ARM GAS  C:\Users\rbhar\AppData\Local\Temp\cctu8Dx4.s 			page 1


   1              		.syntax unified
   2              		.cpu cortex-m3
   3              		.fpu softvfp
   4              		.eabi_attribute 20, 1
   5              		.eabi_attribute 21, 1
   6              		.eabi_attribute 23, 3
   7              		.eabi_attribute 24, 1
   8              		.eabi_attribute 25, 1
   9              		.eabi_attribute 26, 1
  10              		.eabi_attribute 30, 1
  11              		.eabi_attribute 34, 1
  12              		.eabi_attribute 18, 4
  13              		.thumb
  14              		.syntax unified
  15              		.file	"main.c"
  16              		.text
  17              	.Ltext0:
  18              		.cfi_sections	.debug_frame
  19              		.section	.text.LedStateChange,"ax",%progbits
  20              		.align	2
  21              		.thumb
  22              		.thumb_func
  23              		.type	LedStateChange, %function
  24              	LedStateChange:
  25              	.LFB63:
  26              		.file 1 "main.c"
   1:main.c        **** /* ========================================
   2:main.c        ****  *
   3:main.c        ****  * Copyright YOUR COMPANY, THE YEAR
   4:main.c        ****  * All Rights Reserved
   5:main.c        ****  * UNPUBLISHED, LICENSED SOFTWARE.
   6:main.c        ****  *
   7:main.c        ****  * CONFIDENTIAL AND PROPRIETARY INFORMATION
   8:main.c        ****  * WHICH IS THE PROPERTY OF your company.
   9:main.c        ****  *
  10:main.c        ****  * ========================================
  11:main.c        **** */
  12:main.c        **** #include "project.h"
  13:main.c        **** #include <ISR_1.h>
  14:main.c        **** #include <ISR_2.h>
  15:main.c        **** 
  16:main.c        **** typedef enum
  17:main.c        **** {
  18:main.c        ****     RED,
  19:main.c        ****     GREEN,
  20:main.c        ****     YELLOW,
  21:main.c        **** } LED_e;
  22:main.c        **** 
  23:main.c        **** 
  24:main.c        **** static void LedStateChange(LED_e Pin, int Value)
  25:main.c        **** {
  27              		.loc 1 25 0
  28              		.cfi_startproc
  29              		@ args = 0, pretend = 0, frame = 0
  30              		@ frame_needed = 0, uses_anonymous_args = 0
  31              	.LVL0:
  32 0000 08B5     		push	{r3, lr}
ARM GAS  C:\Users\rbhar\AppData\Local\Temp\cctu8Dx4.s 			page 2


  33              		.cfi_def_cfa_offset 8
  34              		.cfi_offset 3, -8
  35              		.cfi_offset 14, -4
  26:main.c        ****     switch (Pin)
  36              		.loc 1 26 0
  37 0002 0128     		cmp	r0, #1
  38 0004 07D0     		beq	.L3
  39 0006 10B1     		cbz	r0, .L4
  40 0008 0228     		cmp	r0, #2
  41 000a 08D0     		beq	.L5
  42 000c 08BD     		pop	{r3, pc}
  43              	.L4:
  27:main.c        ****     {
  28:main.c        ****         case RED:
  29:main.c        ****             Pin_LedRed_Write(Value);
  44              		.loc 1 29 0
  45 000e C8B2     		uxtb	r0, r1
  46              	.LVL1:
  47 0010 FFF7FEFF 		bl	Pin_LedRed_Write
  48              	.LVL2:
  30:main.c        ****         break;
  49              		.loc 1 30 0
  50 0014 08BD     		pop	{r3, pc}
  51              	.LVL3:
  52              	.L3:
  31:main.c        ****         
  32:main.c        ****         case GREEN:
  33:main.c        ****             Pin_LedGreen_Write(Value);
  53              		.loc 1 33 0
  54 0016 C8B2     		uxtb	r0, r1
  55              	.LVL4:
  56 0018 FFF7FEFF 		bl	Pin_LedGreen_Write
  57              	.LVL5:
  34:main.c        ****         break;
  58              		.loc 1 34 0
  59 001c 08BD     		pop	{r3, pc}
  60              	.LVL6:
  61              	.L5:
  35:main.c        ****         
  36:main.c        ****         case YELLOW:
  37:main.c        ****             Pin_LedYellow_Write(Value);
  62              		.loc 1 37 0
  63 001e C8B2     		uxtb	r0, r1
  64              	.LVL7:
  65 0020 FFF7FEFF 		bl	Pin_LedYellow_Write
  66              	.LVL8:
  67 0024 08BD     		pop	{r3, pc}
  68              		.cfi_endproc
  69              	.LFE63:
  70              		.size	LedStateChange, .-LedStateChange
  71 0026 00BF     		.section	.text.CheckToToggleYellow,"ax",%progbits
  72              		.align	2
  73              		.thumb
  74              		.thumb_func
  75              		.type	CheckToToggleYellow, %function
  76              	CheckToToggleYellow:
  77              	.LFB66:
ARM GAS  C:\Users\rbhar\AppData\Local\Temp\cctu8Dx4.s 			page 3


  38:main.c        ****         break;
  39:main.c        ****         
  40:main.c        ****         default:
  41:main.c        ****         break;
  42:main.c        ****         
  43:main.c        ****     }
  44:main.c        **** }
  45:main.c        **** 
  46:main.c        **** void ISR1_Callback(void)
  47:main.c        **** {
  48:main.c        ****     LedStateChange(RED, 1);
  49:main.c        **** }
  50:main.c        **** 
  51:main.c        **** void ISR2_Callback(void)
  52:main.c        **** {
  53:main.c        ****     LedStateChange(RED, 0);
  54:main.c        **** }
  55:main.c        **** 
  56:main.c        **** static void CheckToToggleYellow(void)
  57:main.c        **** {
  78              		.loc 1 57 0
  79              		.cfi_startproc
  80              		@ args = 0, pretend = 0, frame = 0
  81              		@ frame_needed = 0, uses_anonymous_args = 0
  82 0000 08B5     		push	{r3, lr}
  83              		.cfi_def_cfa_offset 8
  84              		.cfi_offset 3, -8
  85              		.cfi_offset 14, -4
  58:main.c        ****     static int Flag = 0;
  59:main.c        ****     while (Pin_Button2_Read())
  86              		.loc 1 59 0
  87 0002 03E0     		b	.L8
  88              	.L9:
  60:main.c        ****     {
  61:main.c        ****         Flag = ~Flag;
  89              		.loc 1 61 0
  90 0004 064A     		ldr	r2, .L11
  91 0006 1368     		ldr	r3, [r2]
  92 0008 DB43     		mvns	r3, r3
  93 000a 1360     		str	r3, [r2]
  94              	.L8:
  59:main.c        ****     {
  95              		.loc 1 59 0
  96 000c FFF7FEFF 		bl	Pin_Button2_Read
  97              	.LVL9:
  98 0010 0028     		cmp	r0, #0
  99 0012 F7D1     		bne	.L9
  62:main.c        ****     }
  63:main.c        ****     
  64:main.c        ****     Pin_LedYellow_Write(Flag);
 100              		.loc 1 64 0
 101 0014 024B     		ldr	r3, .L11
 102 0016 1878     		ldrb	r0, [r3]	@ zero_extendqisi2
 103 0018 FFF7FEFF 		bl	Pin_LedYellow_Write
 104              	.LVL10:
 105 001c 08BD     		pop	{r3, pc}
 106              	.L12:
ARM GAS  C:\Users\rbhar\AppData\Local\Temp\cctu8Dx4.s 			page 4


 107 001e 00BF     		.align	2
 108              	.L11:
 109 0020 00000000 		.word	.LANCHOR0
 110              		.cfi_endproc
 111              	.LFE66:
 112              		.size	CheckToToggleYellow, .-CheckToToggleYellow
 113              		.section	.text.ISR1_Callback,"ax",%progbits
 114              		.align	2
 115              		.global	ISR1_Callback
 116              		.thumb
 117              		.thumb_func
 118              		.type	ISR1_Callback, %function
 119              	ISR1_Callback:
 120              	.LFB64:
  47:main.c        ****     LedStateChange(RED, 1);
 121              		.loc 1 47 0
 122              		.cfi_startproc
 123              		@ args = 0, pretend = 0, frame = 0
 124              		@ frame_needed = 0, uses_anonymous_args = 0
 125 0000 08B5     		push	{r3, lr}
 126              		.cfi_def_cfa_offset 8
 127              		.cfi_offset 3, -8
 128              		.cfi_offset 14, -4
  48:main.c        **** }
 129              		.loc 1 48 0
 130 0002 0121     		movs	r1, #1
 131 0004 0020     		movs	r0, #0
 132 0006 FFF7FEFF 		bl	LedStateChange
 133              	.LVL11:
 134 000a 08BD     		pop	{r3, pc}
 135              		.cfi_endproc
 136              	.LFE64:
 137              		.size	ISR1_Callback, .-ISR1_Callback
 138              		.section	.text.ISR2_Callback,"ax",%progbits
 139              		.align	2
 140              		.global	ISR2_Callback
 141              		.thumb
 142              		.thumb_func
 143              		.type	ISR2_Callback, %function
 144              	ISR2_Callback:
 145              	.LFB65:
  52:main.c        ****     LedStateChange(RED, 0);
 146              		.loc 1 52 0
 147              		.cfi_startproc
 148              		@ args = 0, pretend = 0, frame = 0
 149              		@ frame_needed = 0, uses_anonymous_args = 0
 150 0000 08B5     		push	{r3, lr}
 151              		.cfi_def_cfa_offset 8
 152              		.cfi_offset 3, -8
 153              		.cfi_offset 14, -4
  53:main.c        **** }
 154              		.loc 1 53 0
 155 0002 0021     		movs	r1, #0
 156 0004 0846     		mov	r0, r1
 157 0006 FFF7FEFF 		bl	LedStateChange
 158              	.LVL12:
 159 000a 08BD     		pop	{r3, pc}
ARM GAS  C:\Users\rbhar\AppData\Local\Temp\cctu8Dx4.s 			page 5


 160              		.cfi_endproc
 161              	.LFE65:
 162              		.size	ISR2_Callback, .-ISR2_Callback
 163              		.section	.text.main,"ax",%progbits
 164              		.align	2
 165              		.global	main
 166              		.thumb
 167              		.thumb_func
 168              		.type	main, %function
 169              	main:
 170              	.LFB67:
  65:main.c        ****     
  66:main.c        ****     return;
  67:main.c        **** }
  68:main.c        **** 
  69:main.c        **** 
  70:main.c        **** int main(void)
  71:main.c        **** {
 171              		.loc 1 71 0
 172              		.cfi_startproc
 173              		@ Volatile: function does not return.
 174              		@ args = 0, pretend = 0, frame = 0
 175              		@ frame_needed = 0, uses_anonymous_args = 0
 176 0000 08B5     		push	{r3, lr}
 177              		.cfi_def_cfa_offset 8
 178              		.cfi_offset 3, -8
 179              		.cfi_offset 14, -4
  72:main.c        ****     CyGlobalIntEnable; /* Enable global interrupts. */
 180              		.loc 1 72 0
 181              		.syntax unified
 182              	@ 72 "main.c" 1
 183 0002 62B6     		CPSIE   i
 184              	@ 0 "" 2
  73:main.c        **** 
  74:main.c        ****     /* Place your initialization/startup code here (e.g. MyInst_Start()) */
  75:main.c        ****     ISR_1_Start();
 185              		.loc 1 75 0
 186              		.thumb
 187              		.syntax unified
 188 0004 FFF7FEFF 		bl	ISR_1_Start
 189              	.LVL13:
  76:main.c        ****     ISR_2_Start();
 190              		.loc 1 76 0
 191 0008 FFF7FEFF 		bl	ISR_2_Start
 192              	.LVL14:
 193              	.L20:
  77:main.c        **** 
  78:main.c        ****     for(;;)
  79:main.c        ****     {
  80:main.c        ****         /* Place your application code here. */
  81:main.c        ****         if (Pin_Button1_Read())
 194              		.loc 1 81 0
 195 000c FFF7FEFF 		bl	Pin_Button1_Read
 196              	.LVL15:
 197 0010 18B1     		cbz	r0, .L18
  82:main.c        ****         {
  83:main.c        ****             Pin_LedGreen_Write(1);
ARM GAS  C:\Users\rbhar\AppData\Local\Temp\cctu8Dx4.s 			page 6


 198              		.loc 1 83 0
 199 0012 0120     		movs	r0, #1
 200 0014 FFF7FEFF 		bl	Pin_LedGreen_Write
 201              	.LVL16:
 202 0018 02E0     		b	.L19
 203              	.L18:
  84:main.c        ****         }
  85:main.c        ****         else
  86:main.c        ****         {
  87:main.c        ****             Pin_LedGreen_Write(0);
 204              		.loc 1 87 0
 205 001a 0020     		movs	r0, #0
 206 001c FFF7FEFF 		bl	Pin_LedGreen_Write
 207              	.LVL17:
 208              	.L19:
  88:main.c        ****         }
  89:main.c        ****         
  90:main.c        ****         CheckToToggleYellow();
 209              		.loc 1 90 0
 210 0020 FFF7FEFF 		bl	CheckToToggleYellow
 211              	.LVL18:
  91:main.c        ****     }
 212              		.loc 1 91 0
 213 0024 F2E7     		b	.L20
 214              		.cfi_endproc
 215              	.LFE67:
 216              		.size	main, .-main
 217 0026 00BF     		.bss
 218              		.align	2
 219              		.set	.LANCHOR0,. + 0
 220              		.type	Flag.5672, %object
 221              		.size	Flag.5672, 4
 222              	Flag.5672:
 223 0000 00000000 		.space	4
 224              		.text
 225              	.Letext0:
 226              		.file 2 "c:\\program files (x86)\\cypress\\psoc creator\\4.2\\psoc creator\\import\\gnu\\arm\\5.4.
 227              		.file 3 "c:\\program files (x86)\\cypress\\psoc creator\\4.2\\psoc creator\\import\\gnu\\arm\\5.4.
 228              		.file 4 "Generated_Source\\PSoC5/Pin_LedRed.h"
 229              		.file 5 "Generated_Source\\PSoC5/Pin_LedGreen.h"
 230              		.file 6 "Generated_Source\\PSoC5/Pin_LedYellow.h"
 231              		.file 7 "Generated_Source\\PSoC5/Pin_Button2.h"
 232              		.file 8 "Generated_Source\\PSoC5/ISR_1.h"
 233              		.file 9 "Generated_Source\\PSoC5/ISR_2.h"
 234              		.file 10 "Generated_Source\\PSoC5/Pin_Button1.h"
 235              		.file 11 "Generated_Source\\PSoC5/core_cm3.h"