ARM GAS  C:\Users\rbhar\AppData\Local\Temp\cchQ2fuJ.s 			page 1


   1              		.syntax unified
   2              		.cpu cortex-m3
   3              		.fpu softvfp
   4              		.eabi_attribute 20, 1
   5              		.eabi_attribute 21, 1
   6              		.eabi_attribute 23, 3
   7              		.eabi_attribute 24, 1
   8              		.eabi_attribute 25, 1
   9              		.eabi_attribute 26, 1
  10              		.eabi_attribute 30, 1
  11              		.eabi_attribute 34, 1
  12              		.eabi_attribute 18, 4
  13              		.thumb
  14              		.syntax unified
  15              		.file	"ISR_Handler.c"
  16              		.text
  17              	.Ltext0:
  18              		.cfi_sections	.debug_frame
  19              		.section	.text.ISR_Button1_Callback,"ax",%progbits
  20              		.align	2
  21              		.global	ISR_Button1_Callback
  22              		.thumb
  23              		.thumb_func
  24              		.type	ISR_Button1_Callback, %function
  25              	ISR_Button1_Callback:
  26              	.LFB0:
  27              		.file 1 "source\\bsw\\ISR_Handler.c"
   1:source\bsw/ISR_Handler.c **** /**
   2:source\bsw/ISR_Handler.c **** * \file <ISR_Handler.c>
   3:source\bsw/ISR_Handler.c **** * \author <Bharath Ramachandraiah>
   4:source\bsw/ISR_Handler.c **** * \date <25/09/2018>
   5:source\bsw/ISR_Handler.c **** *
   6:source\bsw/ISR_Handler.c **** * \brief <Symbolic File name>
   7:source\bsw/ISR_Handler.c **** *
   8:source\bsw/ISR_Handler.c **** * \copyright Copyright ©2016
   9:source\bsw/ISR_Handler.c **** * Department of electrical engineering and information technology, Hochschule Darmstadt - Universit
  10:source\bsw/ISR_Handler.c **** * Permission to use, copy, modify, and distribute this software and its documentation for education
  11:source\bsw/ISR_Handler.c **** * (unless permitted by h_da) and official h_da projects, is hereby granted for enrolled students of
  12:source\bsw/ISR_Handler.c **** * this paragraph and the following paragraph appear in all copies, modifications, and distributions
  13:source\bsw/ISR_Handler.c **** * Contact Prof.Dr.-Ing. Peter Fromm, peter.fromm@h-da.de, Birkenweg 8 64295 Darmstadt - GERMANY for
  14:source\bsw/ISR_Handler.c **** *
  15:source\bsw/ISR_Handler.c **** * \warning This software is a PROTOTYPE version and is not designed or intended for use in producti
  16:source\bsw/ISR_Handler.c **** * The user represents and warrants that it will NOT use or redistribute the Software for such purpo
  17:source\bsw/ISR_Handler.c **** * This prototype is for research purposes only. This software is provided "AS IS," without a warran
  18:source\bsw/ISR_Handler.c **** */
  19:source\bsw/ISR_Handler.c **** 
  20:source\bsw/ISR_Handler.c **** /*****************************************************************************/
  21:source\bsw/ISR_Handler.c **** /* Include files                                                             */
  22:source\bsw/ISR_Handler.c **** /*****************************************************************************/
  23:source\bsw/ISR_Handler.c **** #include "ISR_Handler.h"
  24:source\bsw/ISR_Handler.c **** /*****************************************************************************/
  25:source\bsw/ISR_Handler.c **** /* Local pre-processor symbols/macros ('#define')                            */
  26:source\bsw/ISR_Handler.c **** /*****************************************************************************/
  27:source\bsw/ISR_Handler.c **** 
  28:source\bsw/ISR_Handler.c **** /*****************************************************************************/
  29:source\bsw/ISR_Handler.c **** /* Global variable definitions (declared in header file with 'extern')       */
  30:source\bsw/ISR_Handler.c **** /*****************************************************************************/
ARM GAS  C:\Users\rbhar\AppData\Local\Temp\cchQ2fuJ.s 			page 2


  31:source\bsw/ISR_Handler.c **** 
  32:source\bsw/ISR_Handler.c **** /*****************************************************************************/
  33:source\bsw/ISR_Handler.c **** /* Local type definitions ('typedef')                                        */
  34:source\bsw/ISR_Handler.c **** /*****************************************************************************/
  35:source\bsw/ISR_Handler.c **** 
  36:source\bsw/ISR_Handler.c **** /*****************************************************************************/
  37:source\bsw/ISR_Handler.c **** /* Local variable definitions ('static')                                     */
  38:source\bsw/ISR_Handler.c **** /*****************************************************************************/
  39:source\bsw/ISR_Handler.c **** 
  40:source\bsw/ISR_Handler.c **** 
  41:source\bsw/ISR_Handler.c **** 
  42:source\bsw/ISR_Handler.c **** /*****************************************************************************/
  43:source\bsw/ISR_Handler.c **** /* Local function prototypes ('static')                                      */
  44:source\bsw/ISR_Handler.c **** /*****************************************************************************/
  45:source\bsw/ISR_Handler.c **** 
  46:source\bsw/ISR_Handler.c **** 
  47:source\bsw/ISR_Handler.c **** /*****************************************************************************/
  48:source\bsw/ISR_Handler.c **** /* Function implementation - global ('extern') and local ('static')          */
  49:source\bsw/ISR_Handler.c **** /*****************************************************************************/
  50:source\bsw/ISR_Handler.c **** 
  51:source\bsw/ISR_Handler.c **** /**
  52:source\bsw/ISR_Handler.c ****  * This is a callback function for Button 1 press. The process of the ISR is
  53:source\bsw/ISR_Handler.c ****  * done here.
  54:source\bsw/ISR_Handler.c ****  * @param void
  55:source\bsw/ISR_Handler.c ****  * @return void
  56:source\bsw/ISR_Handler.c ****  */
  57:source\bsw/ISR_Handler.c **** void ISR_Button1_Callback(void)
  58:source\bsw/ISR_Handler.c **** {
  28              		.loc 1 58 0
  29              		.cfi_startproc
  30              		@ args = 0, pretend = 0, frame = 0
  31              		@ frame_needed = 0, uses_anonymous_args = 0
  32              		@ link register save eliminated.
  33 0000 7047     		bx	lr
  34              		.cfi_endproc
  35              	.LFE0:
  36              		.size	ISR_Button1_Callback, .-ISR_Button1_Callback
  37 0002 00BF     		.section	.text.ISR_Button2_Callback,"ax",%progbits
  38              		.align	2
  39              		.global	ISR_Button2_Callback
  40              		.thumb
  41              		.thumb_func
  42              		.type	ISR_Button2_Callback, %function
  43              	ISR_Button2_Callback:
  44              	.LFB1:
  59:source\bsw/ISR_Handler.c ****     return;
  60:source\bsw/ISR_Handler.c **** }
  61:source\bsw/ISR_Handler.c **** 
  62:source\bsw/ISR_Handler.c **** /**
  63:source\bsw/ISR_Handler.c ****  * This is a callback function for Button 2 press. The process of the ISR is
  64:source\bsw/ISR_Handler.c ****  * done here.
  65:source\bsw/ISR_Handler.c ****  * @param void
  66:source\bsw/ISR_Handler.c ****  * @return void
  67:source\bsw/ISR_Handler.c ****  */
  68:source\bsw/ISR_Handler.c **** void ISR_Button2_Callback(void)
  69:source\bsw/ISR_Handler.c **** {
  45              		.loc 1 69 0
ARM GAS  C:\Users\rbhar\AppData\Local\Temp\cchQ2fuJ.s 			page 3


  46              		.cfi_startproc
  47              		@ args = 0, pretend = 0, frame = 0
  48              		@ frame_needed = 0, uses_anonymous_args = 0
  49              		@ link register save eliminated.
  50 0000 7047     		bx	lr
  51              		.cfi_endproc
  52              	.LFE1:
  53              		.size	ISR_Button2_Callback, .-ISR_Button2_Callback
  54 0002 00BF     		.section	.text.ISR_Button3_Callback,"ax",%progbits
  55              		.align	2
  56              		.global	ISR_Button3_Callback
  57              		.thumb
  58              		.thumb_func
  59              		.type	ISR_Button3_Callback, %function
  60              	ISR_Button3_Callback:
  61              	.LFB2:
  70:source\bsw/ISR_Handler.c ****     return;
  71:source\bsw/ISR_Handler.c **** }
  72:source\bsw/ISR_Handler.c **** 
  73:source\bsw/ISR_Handler.c **** /**
  74:source\bsw/ISR_Handler.c ****  * This is a callback function for Button 3 press. The process of the ISR is
  75:source\bsw/ISR_Handler.c ****  * done here.
  76:source\bsw/ISR_Handler.c ****  * @param void
  77:source\bsw/ISR_Handler.c ****  * @return void
  78:source\bsw/ISR_Handler.c ****  */
  79:source\bsw/ISR_Handler.c **** void ISR_Button3_Callback(void)
  80:source\bsw/ISR_Handler.c **** {
  62              		.loc 1 80 0
  63              		.cfi_startproc
  64              		@ args = 0, pretend = 0, frame = 0
  65              		@ frame_needed = 0, uses_anonymous_args = 0
  66              		@ link register save eliminated.
  67 0000 7047     		bx	lr
  68              		.cfi_endproc
  69              	.LFE2:
  70              		.size	ISR_Button3_Callback, .-ISR_Button3_Callback
  71 0002 00BF     		.section	.text.ISR_Button4_Callback,"ax",%progbits
  72              		.align	2
  73              		.global	ISR_Button4_Callback
  74              		.thumb
  75              		.thumb_func
  76              		.type	ISR_Button4_Callback, %function
  77              	ISR_Button4_Callback:
  78              	.LFB3:
  81:source\bsw/ISR_Handler.c ****     return;
  82:source\bsw/ISR_Handler.c **** }
  83:source\bsw/ISR_Handler.c **** 
  84:source\bsw/ISR_Handler.c **** /**
  85:source\bsw/ISR_Handler.c ****  * This is a callback function for Button 4 press. The process of the ISR is
  86:source\bsw/ISR_Handler.c ****  * done here.
  87:source\bsw/ISR_Handler.c ****  * @param void
  88:source\bsw/ISR_Handler.c ****  * @return void
  89:source\bsw/ISR_Handler.c ****  */
  90:source\bsw/ISR_Handler.c **** void ISR_Button4_Callback(void)
  91:source\bsw/ISR_Handler.c **** {
  79              		.loc 1 91 0
  80              		.cfi_startproc
ARM GAS  C:\Users\rbhar\AppData\Local\Temp\cchQ2fuJ.s 			page 4


  81              		@ args = 0, pretend = 0, frame = 0
  82              		@ frame_needed = 0, uses_anonymous_args = 0
  83              		@ link register save eliminated.
  84 0000 7047     		bx	lr
  85              		.cfi_endproc
  86              	.LFE3:
  87              		.size	ISR_Button4_Callback, .-ISR_Button4_Callback
  88 0002 00BF     		.text
  89              	.Letext0: