ARM GAS  C:\Users\rbhar\AppData\Local\Temp\ccxuw7Ij.s 			page 1


   1              		.syntax unified
   2              		.cpu cortex-m3
   3              		.fpu softvfp
   4              		.eabi_attribute 20, 1
   5              		.eabi_attribute 21, 1
   6              		.eabi_attribute 23, 3
   7              		.eabi_attribute 24, 1
   8              		.eabi_attribute 25, 1
   9              		.eabi_attribute 26, 1
  10              		.eabi_attribute 30, 1
  11              		.eabi_attribute 34, 1
  12              		.eabi_attribute 18, 4
  13              		.thumb
  14              		.syntax unified
  15              		.file	"seven.c"
  16              		.text
  17              	.Ltext0:
  18              		.cfi_sections	.debug_frame
  19              		.section	.text.SEVEN_Set,"ax",%progbits
  20              		.align	2
  21              		.thumb
  22              		.thumb_func
  23              		.type	SEVEN_Set, %function
  24              	SEVEN_Set:
  25              	.LFB65:
  26              		.file 1 "source\\bsw\\seven.c"
   1:source\bsw/seven.c **** /**
   2:source\bsw/seven.c **** * \file <seven.c>
   3:source\bsw/seven.c **** * \author <Bharath Ramachandraiah>
   4:source\bsw/seven.c **** * \date <25/09/2018>
   5:source\bsw/seven.c **** *
   6:source\bsw/seven.c **** * \brief <Symbolic File name>
   7:source\bsw/seven.c **** *
   8:source\bsw/seven.c **** * \copyright Copyright ©2016
   9:source\bsw/seven.c **** * Department of electrical engineering and information technology, Hochschule Darmstadt - Universit
  10:source\bsw/seven.c **** * Permission to use, copy, modify, and distribute this software and its documentation for education
  11:source\bsw/seven.c **** * (unless permitted by h_da) and official h_da projects, is hereby granted for enrolled students of
  12:source\bsw/seven.c **** * this paragraph and the following paragraph appear in all copies, modifications, and distributions
  13:source\bsw/seven.c **** * Contact Prof.Dr.-Ing. Peter Fromm, peter.fromm@h-da.de, Birkenweg 8 64295 Darmstadt - GERMANY for
  14:source\bsw/seven.c **** *
  15:source\bsw/seven.c **** * \warning This software is a PROTOTYPE version and is not designed or intended for use in producti
  16:source\bsw/seven.c **** * The user represents and warrants that it will NOT use or redistribute the Software for such purpo
  17:source\bsw/seven.c **** * This prototype is for research purposes only. This software is provided "AS IS," without a warran
  18:source\bsw/seven.c **** */
  19:source\bsw/seven.c **** 
  20:source\bsw/seven.c **** /*****************************************************************************/
  21:source\bsw/seven.c **** /* Include files                                                             */
  22:source\bsw/seven.c **** /*****************************************************************************/
  23:source\bsw/seven.c **** #include "global.h"
  24:source\bsw/seven.c **** #include "Pin_Seg1_A.h"
  25:source\bsw/seven.c **** #include "Pin_Seg1_B.h"
  26:source\bsw/seven.c **** #include "Pin_Seg1_C.h"
  27:source\bsw/seven.c **** #include "Pin_Seg1_D.h"
  28:source\bsw/seven.c **** #include "Pin_Seg1_E.h"
  29:source\bsw/seven.c **** #include "Pin_Seg1_F.h"
  30:source\bsw/seven.c **** #include "Pin_Seg1_G.h"
  31:source\bsw/seven.c **** #include "Pin_Display.h"
ARM GAS  C:\Users\rbhar\AppData\Local\Temp\ccxuw7Ij.s 			page 2


  32:source\bsw/seven.c **** #include "Pin_Select.h"
  33:source\bsw/seven.c **** #include "seven.h"
  34:source\bsw/seven.c **** 
  35:source\bsw/seven.c **** /*****************************************************************************/
  36:source\bsw/seven.c **** /* Local pre-processor symbols/macros ('#define')                            */
  37:source\bsw/seven.c **** /*****************************************************************************/
  38:source\bsw/seven.c **** #define SEVEN_NO_DISPLAYS_MAX       2
  39:source\bsw/seven.c **** #define SEVEN_NO_OF_SEGMENTS        7
  40:source\bsw/seven.c **** 
  41:source\bsw/seven.c **** /*****************************************************************************/
  42:source\bsw/seven.c **** /* Global variable definitions (declared in header file with 'extern')       */
  43:source\bsw/seven.c **** /*****************************************************************************/
  44:source\bsw/seven.c **** 
  45:source\bsw/seven.c **** /*****************************************************************************/
  46:source\bsw/seven.c **** /* Local type definitions ('typedef')                                        */
  47:source\bsw/seven.c **** /*****************************************************************************/
  48:source\bsw/seven.c **** 
  49:source\bsw/seven.c **** /*****************************************************************************/
  50:source\bsw/seven.c **** /* Local variable definitions ('static')                                     */
  51:source\bsw/seven.c **** /*****************************************************************************/
  52:source\bsw/seven.c **** static const FunctionPtr pFunSevenSegement[] = 
  53:source\bsw/seven.c **** {
  54:source\bsw/seven.c ****     Pin_Seg1_A_Write,
  55:source\bsw/seven.c ****     Pin_Seg1_B_Write,
  56:source\bsw/seven.c ****     Pin_Seg1_C_Write,
  57:source\bsw/seven.c ****     Pin_Seg1_D_Write,
  58:source\bsw/seven.c ****     Pin_Seg1_E_Write,
  59:source\bsw/seven.c ****     Pin_Seg1_F_Write,
  60:source\bsw/seven.c ****     Pin_Seg1_G_Write,
  61:source\bsw/seven.c **** };
  62:source\bsw/seven.c **** 
  63:source\bsw/seven.c **** static const uint8 LookUpForDisplay[] = 
  64:source\bsw/seven.c **** {
  65:source\bsw/seven.c ****     0x3F,
  66:source\bsw/seven.c ****     0x06,
  67:source\bsw/seven.c ****     0x5b,
  68:source\bsw/seven.c ****     0x4f,
  69:source\bsw/seven.c ****     0x66,
  70:source\bsw/seven.c ****     0x6d,
  71:source\bsw/seven.c ****     0x7d,
  72:source\bsw/seven.c ****     0x07,
  73:source\bsw/seven.c ****     0x7f,
  74:source\bsw/seven.c ****     0x6f,
  75:source\bsw/seven.c ****     0x77,
  76:source\bsw/seven.c ****     0x7c,
  77:source\bsw/seven.c ****     0x39,
  78:source\bsw/seven.c ****     0x5e,
  79:source\bsw/seven.c ****     0x79,
  80:source\bsw/seven.c ****     0x71,
  81:source\bsw/seven.c **** };
  82:source\bsw/seven.c **** 
  83:source\bsw/seven.c **** /*****************************************************************************/
  84:source\bsw/seven.c **** /* Local function prototypes ('static')                                      */
  85:source\bsw/seven.c **** /*****************************************************************************/
  86:source\bsw/seven.c **** 
  87:source\bsw/seven.c **** 
  88:source\bsw/seven.c **** /*****************************************************************************/
ARM GAS  C:\Users\rbhar\AppData\Local\Temp\ccxuw7Ij.s 			page 3


  89:source\bsw/seven.c **** /* Function implementation - global ('extern') and local ('static')          */
  90:source\bsw/seven.c **** /*****************************************************************************/
  91:source\bsw/seven.c **** 
  92:source\bsw/seven.c **** /**
  93:source\bsw/seven.c ****  * The function initializes the display to default settings.
  94:source\bsw/seven.c ****  * @param void
  95:source\bsw/seven.c ****  * @return the displays are reset.
  96:source\bsw/seven.c ****  */
  97:source\bsw/seven.c **** RC_t SEVEN_init(void)
  98:source\bsw/seven.c **** {
  99:source\bsw/seven.c ****     Pin_Display_Write(SEGMENT_ON);
 100:source\bsw/seven.c ****     
 101:source\bsw/seven.c ****     /* Select 0th Display */
 102:source\bsw/seven.c ****     Pin_Select_Write(SEGMENT_OFF);
 103:source\bsw/seven.c ****     SEVEN_Write(0);
 104:source\bsw/seven.c ****     
 105:source\bsw/seven.c ****     /* Select 1st Display */
 106:source\bsw/seven.c ****     Pin_Select_Write(SEGMENT_ON);
 107:source\bsw/seven.c ****     SEVEN_Write(0);
 108:source\bsw/seven.c ****     
 109:source\bsw/seven.c ****     return RC_SUCCESS;
 110:source\bsw/seven.c **** }
 111:source\bsw/seven.c **** 
 112:source\bsw/seven.c **** 
 113:source\bsw/seven.c **** /**
 114:source\bsw/seven.c ****  * The function clears the displays.
 115:source\bsw/seven.c ****  * @param void
 116:source\bsw/seven.c ****  * @return the displays are reset.
 117:source\bsw/seven.c ****  */
 118:source\bsw/seven.c **** RC_t SEVEN_clear(void)
 119:source\bsw/seven.c **** {   
 120:source\bsw/seven.c ****     return (SEVEN_init());
 121:source\bsw/seven.c **** }
 122:source\bsw/seven.c **** 
 123:source\bsw/seven.c **** /**
 124:source\bsw/seven.c ****  * The function takes the number as an input and updates on to the display.
 125:source\bsw/seven.c ****  * @param uint8 Value       : IN 0 - 0xF
 126:source\bsw/seven.c ****  * @return Updates the seven segment display with the values.
 127:source\bsw/seven.c ****  */
 128:source\bsw/seven.c **** static RC_t SEVEN_Set(eSegments_t DisplayNo, uint8 Value)
 129:source\bsw/seven.c **** {
  27              		.loc 1 129 0
  28              		.cfi_startproc
  29              		@ args = 0, pretend = 0, frame = 0
  30              		@ frame_needed = 0, uses_anonymous_args = 0
  31              	.LVL0:
  32 0000 38B5     		push	{r3, r4, r5, lr}
  33              		.cfi_def_cfa_offset 16
  34              		.cfi_offset 3, -16
  35              		.cfi_offset 4, -12
  36              		.cfi_offset 5, -8
  37              		.cfi_offset 14, -4
  38 0002 0C46     		mov	r4, r1
  39              	.LVL1:
 130:source\bsw/seven.c ****     uint8 NoToDisplay = 0, LoopCounter = 0;
 131:source\bsw/seven.c ****     /* Select the Display */
 132:source\bsw/seven.c ****     Pin_Select_Write(DisplayNo);
ARM GAS  C:\Users\rbhar\AppData\Local\Temp\ccxuw7Ij.s 			page 4


  40              		.loc 1 132 0
  41 0004 FFF7FEFF 		bl	Pin_Select_Write
  42              	.LVL2:
 133:source\bsw/seven.c ****     
 134:source\bsw/seven.c ****     NoToDisplay = LookUpForDisplay[Value & MASK_MSB_UINT8];
  43              		.loc 1 134 0
  44 0008 04F00F04 		and	r4, r4, #15
  45 000c 094B     		ldr	r3, .L5
  46 000e 1D5D     		ldrb	r5, [r3, r4]	@ zero_extendqisi2
  47              	.LVL3:
 135:source\bsw/seven.c ****     
 136:source\bsw/seven.c ****     for (LoopCounter = 0; LoopCounter < SEVEN_NO_OF_SEGMENTS; LoopCounter++)
  48              		.loc 1 136 0
  49 0010 0024     		movs	r4, #0
  50 0012 0AE0     		b	.L2
  51              	.LVL4:
  52              	.L3:
 137:source\bsw/seven.c ****     {
 138:source\bsw/seven.c ****         pFunSevenSegement[LoopCounter]((NoToDisplay >> LoopCounter) & BIT_MASK);
  53              		.loc 1 138 0 discriminator 3
  54 0014 074B     		ldr	r3, .L5
  55 0016 03EB8403 		add	r3, r3, r4, lsl #2
  56 001a 1B69     		ldr	r3, [r3, #16]
  57 001c 45FA04F0 		asr	r0, r5, r4
  58 0020 00F00100 		and	r0, r0, #1
  59 0024 9847     		blx	r3
  60              	.LVL5:
 136:source\bsw/seven.c ****     {
  61              		.loc 1 136 0 discriminator 3
  62 0026 0134     		adds	r4, r4, #1
  63              	.LVL6:
  64 0028 E4B2     		uxtb	r4, r4
  65              	.LVL7:
  66              	.L2:
 136:source\bsw/seven.c ****     {
  67              		.loc 1 136 0 is_stmt 0 discriminator 1
  68 002a 062C     		cmp	r4, #6
  69 002c F2D9     		bls	.L3
 139:source\bsw/seven.c ****     }
 140:source\bsw/seven.c ****     
 141:source\bsw/seven.c ****     return RC_SUCCESS;
 142:source\bsw/seven.c **** }
  70              		.loc 1 142 0 is_stmt 1
  71 002e 0020     		movs	r0, #0
  72 0030 38BD     		pop	{r3, r4, r5, pc}
  73              	.LVL8:
  74              	.L6:
  75 0032 00BF     		.align	2
  76              	.L5:
  77 0034 00000000 		.word	.LANCHOR0
  78              		.cfi_endproc
  79              	.LFE65:
  80              		.size	SEVEN_Set, .-SEVEN_Set
  81              		.section	.text.SEVEN_Write,"ax",%progbits
  82              		.align	2
  83              		.global	SEVEN_Write
  84              		.thumb
ARM GAS  C:\Users\rbhar\AppData\Local\Temp\ccxuw7Ij.s 			page 5


  85              		.thumb_func
  86              		.type	SEVEN_Write, %function
  87              	SEVEN_Write:
  88              	.LFB66:
 143:source\bsw/seven.c **** 
 144:source\bsw/seven.c **** /**
 145:source\bsw/seven.c ****  * The function takes the number as an input and updates on to the displays.
 146:source\bsw/seven.c ****  * @param uint8 Value       : IN 0 - 0xFF
 147:source\bsw/seven.c ****  * @return Updates the seven segment display with the values.
 148:source\bsw/seven.c ****  */
 149:source\bsw/seven.c **** RC_t SEVEN_Write(uint8 Value)
 150:source\bsw/seven.c **** {
  89              		.loc 1 150 0
  90              		.cfi_startproc
  91              		@ args = 0, pretend = 0, frame = 0
  92              		@ frame_needed = 0, uses_anonymous_args = 0
  93              	.LVL9:
  94 0000 10B5     		push	{r4, lr}
  95              		.cfi_def_cfa_offset 8
  96              		.cfi_offset 4, -8
  97              		.cfi_offset 14, -4
  98 0002 0446     		mov	r4, r0
 151:source\bsw/seven.c ****     /* Update 0th display */
 152:source\bsw/seven.c ****     SEVEN_Set(SEVEN_DISPLAY0, Value & MASK_MSB_UINT8);
  99              		.loc 1 152 0
 100 0004 00F00F01 		and	r1, r0, #15
 101 0008 0020     		movs	r0, #0
 102              	.LVL10:
 103 000a FFF7FEFF 		bl	SEVEN_Set
 104              	.LVL11:
 153:source\bsw/seven.c ****     
 154:source\bsw/seven.c ****     /* Update 1st display */
 155:source\bsw/seven.c ****     SEVEN_Set(SEVEN_DISPLAY1, (Value & MASK_LSB_UINT8) >> SHIFT_NIBBLE);
 105              		.loc 1 155 0
 106 000e 2109     		lsrs	r1, r4, #4
 107 0010 0120     		movs	r0, #1
 108 0012 FFF7FEFF 		bl	SEVEN_Set
 109              	.LVL12:
 156:source\bsw/seven.c ****     
 157:source\bsw/seven.c ****     return RC_SUCCESS;
 158:source\bsw/seven.c **** }...
 110              		.loc 1 158 0
 111 0016 0020     		movs	r0, #0
 112 0018 10BD     		pop	{r4, pc}
 113              		.cfi_endproc
 114              	.LFE66:
 115              		.size	SEVEN_Write, .-SEVEN_Write
 116 001a 00BF     		.section	.text.SEVEN_init,"ax",%progbits
 117              		.align	2
 118              		.global	SEVEN_init
 119              		.thumb
 120              		.thumb_func
 121              		.type	SEVEN_init, %function
 122              	SEVEN_init:
 123              	.LFB63:
  98:source\bsw/seven.c **** {
 124              		.loc 1 98 0
ARM GAS  C:\Users\rbhar\AppData\Local\Temp\ccxuw7Ij.s 			page 6


 125              		.cfi_startproc
 126              		@ args = 0, pretend = 0, frame = 0
 127              		@ frame_needed = 0, uses_anonymous_args = 0
 128 0000 08B5     		push	{r3, lr}
 129              		.cfi_def_cfa_offset 8
 130              		.cfi_offset 3, -8
 131              		.cfi_offset 14, -4
  99:source\bsw/seven.c ****     Pin_Display_Write(SEGMENT_ON);
 132              		.loc 1 99 0
 133 0002 0120     		movs	r0, #1
 134 0004 FFF7FEFF 		bl	Pin_Display_Write
 135              	.LVL13:
 102:source\bsw/seven.c ****     Pin_Select_Write(SEGMENT_OFF);
 136              		.loc 1 102 0
 137 0008 0020     		movs	r0, #0
 138 000a FFF7FEFF 		bl	Pin_Select_Write
 139              	.LVL14:
 103:source\bsw/seven.c ****     SEVEN_Write(0);
 140              		.loc 1 103 0
 141 000e 0020     		movs	r0, #0
 142 0010 FFF7FEFF 		bl	SEVEN_Write
 143              	.LVL15:
 106:source\bsw/seven.c ****     Pin_Select_Write(SEGMENT_ON);
 144              		.loc 1 106 0
 145 0014 0120     		movs	r0, #1
 146 0016 FFF7FEFF 		bl	Pin_Select_Write
 147              	.LVL16:
 107:source\bsw/seven.c ****     SEVEN_Write(0);
 148              		.loc 1 107 0
 149 001a 0020     		movs	r0, #0
 150 001c FFF7FEFF 		bl	SEVEN_Write
 151              	.LVL17:
 110:source\bsw/seven.c **** }
 152              		.loc 1 110 0
 153 0020 0020     		movs	r0, #0
 154 0022 08BD     		pop	{r3, pc}
 155              		.cfi_endproc
 156              	.LFE63:
 157              		.size	SEVEN_init, .-SEVEN_init
 158              		.section	.text.SEVEN_clear,"ax",%progbits
 159              		.align	2
 160              		.global	SEVEN_clear
 161              		.thumb
 162              		.thumb_func
 163              		.type	SEVEN_clear, %function
 164              	SEVEN_clear:
 165              	.LFB64:
 119:source\bsw/seven.c **** {   
 166              		.loc 1 119 0
 167              		.cfi_startproc
 168              		@ args = 0, pretend = 0, frame = 0
 169              		@ frame_needed = 0, uses_anonymous_args = 0
 170 0000 08B5     		push	{r3, lr}
 171              		.cfi_def_cfa_offset 8
 172              		.cfi_offset 3, -8
 173              		.cfi_offset 14, -4
 120:source\bsw/seven.c ****     return (SEVEN_init());
ARM GAS  C:\Users\rbhar\AppData\Local\Temp\ccxuw7Ij.s 			page 7


 174              		.loc 1 120 0
 175 0002 FFF7FEFF 		bl	SEVEN_init
 176              	.LVL18:
 121:source\bsw/seven.c **** }
 177              		.loc 1 121 0
 178 0006 08BD     		pop	{r3, pc}
 179              		.cfi_endproc
 180              	.LFE64:
 181              		.size	SEVEN_clear, .-SEVEN_clear
 182              		.section	.rodata
 183              		.align	2
 184              		.set	.LANCHOR0,. + 0
 185              		.type	LookUpForDisplay, %object
 186              		.size	LookUpForDisplay, 16
 187              	LookUpForDisplay:
 188 0000 3F       		.byte	63
 189 0001 06       		.byte	6
 190 0002 5B       		.byte	91
 191 0003 4F       		.byte	79
 192 0004 66       		.byte	102
 193 0005 6D       		.byte	109
 194 0006 7D       		.byte	125
 195 0007 07       		.byte	7
 196 0008 7F       		.byte	127
 197 0009 6F       		.byte	111
 198 000a 77       		.byte	119
 199 000b 7C       		.byte	124
 200 000c 39       		.byte	57
 201 000d 5E       		.byte	94
 202 000e 79       		.byte	121
 203 000f 71       		.byte	113
 204              		.type	pFunSevenSegement, %object
 205              		.size	pFunSevenSegement, 28
 206              	pFunSevenSegement:
 207 0010 00000000 		.word	Pin_Seg1_A_Write
 208 0014 00000000 		.word	Pin_Seg1_B_Write
 209 0018 00000000 		.word	Pin_Seg1_C_Write
 210 001c 00000000 		.word	Pin_Seg1_D_Write
 211 0020 00000000 		.word	Pin_Seg1_E_Write
 212 0024 00000000 		.word	Pin_Seg1_F_Write
 213 0028 00000000 		.word	Pin_Seg1_G_Write
 214              		.text
 215              	.Letext0:
 216              		.file 2 "c:\\program files (x86)\\cypress\\psoc creator\\4.2\\psoc creator\\import\\gnu\\arm\\5.4.
 217              		.file 3 "c:\\program files (x86)\\cypress\\psoc creator\\4.2\\psoc creator\\import\\gnu\\arm\\5.4.
 218              		.file 4 "Generated_Source\\PSoC5/cytypes.h"
 219              		.file 5 "source\\bsw\\global.h"
 220              		.file 6 "source\\bsw\\seven.h"
 221              		.file 7 "Generated_Source\\PSoC5/Pin_Select.h"
 222              		.file 8 "Generated_Source\\PSoC5/Pin_Display.h"
 223              		.file 9 "Generated_Source\\PSoC5/core_cm3.h"