ARM GAS  C:\Users\rbhar\AppData\Local\Temp\ccQtuKOz.s 			page 1


   1              		.syntax unified
   2              		.cpu cortex-m3
   3              		.fpu softvfp
   4              		.eabi_attribute 20, 1
   5              		.eabi_attribute 21, 1
   6              		.eabi_attribute 23, 3
   7              		.eabi_attribute 24, 1
   8              		.eabi_attribute 25, 1
   9              		.eabi_attribute 26, 1
  10              		.eabi_attribute 30, 1
  11              		.eabi_attribute 34, 1
  12              		.eabi_attribute 18, 4
  13              		.thumb
  14              		.syntax unified
  15              		.file	"Button.c"
  16              		.text
  17              	.Ltext0:
  18              		.cfi_sections	.debug_frame
  19              		.section	.text.ISR_Button1_Callback,"ax",%progbits
  20              		.align	2
  21              		.global	ISR_Button1_Callback
  22              		.thumb
  23              		.thumb_func
  24              		.type	ISR_Button1_Callback, %function
  25              	ISR_Button1_Callback:
  26              	.LFB63:
  27              		.file 1 "source\\bsw\\Button.c"
   1:source\bsw/Button.c **** /**
   2:source\bsw/Button.c **** * \file <ISR_Handler.c>
   3:source\bsw/Button.c **** * \author <Bharath Ramachandraiah>
   4:source\bsw/Button.c **** * \date <25/09/2018>
   5:source\bsw/Button.c **** *
   6:source\bsw/Button.c **** * \brief <Symbolic File name>
   7:source\bsw/Button.c **** *
   8:source\bsw/Button.c **** * \copyright Copyright ©2016
   9:source\bsw/Button.c **** * Department of electrical engineering and information technology, Hochschule Darmstadt - Universit
  10:source\bsw/Button.c **** * Permission to use, copy, modify, and distribute this software and its documentation for education
  11:source\bsw/Button.c **** * (unless permitted by h_da) and official h_da projects, is hereby granted for enrolled students of
  12:source\bsw/Button.c **** * this paragraph and the following paragraph appear in all copies, modifications, and distributions
  13:source\bsw/Button.c **** * Contact Prof.Dr.-Ing. Peter Fromm, peter.fromm@h-da.de, Birkenweg 8 64295 Darmstadt - GERMANY for
  14:source\bsw/Button.c **** *
  15:source\bsw/Button.c **** * \warning This software is a PROTOTYPE version and is not designed or intended for use in producti
  16:source\bsw/Button.c **** * The user represents and warrants that it will NOT use or redistribute the Software for such purpo
  17:source\bsw/Button.c **** * This prototype is for research purposes only. This software is provided "AS IS," without a warran
  18:source\bsw/Button.c **** */
  19:source\bsw/Button.c **** 
  20:source\bsw/Button.c **** /*****************************************************************************/
  21:source\bsw/Button.c **** /* Include files                                                             */
  22:source\bsw/Button.c **** /*****************************************************************************/
  23:source\bsw/Button.c **** #include "global.h"
  24:source\bsw/Button.c **** #include "Button.h"
  25:source\bsw/Button.c **** #include "seven.h"
  26:source\bsw/Button.c **** #include "led.h"
  27:source\bsw/Button.c **** #include "Timer.h"
  28:source\bsw/Button.c **** /*****************************************************************************/
  29:source\bsw/Button.c **** /* Local pre-processor symbols/macros ('#define')                            */
  30:source\bsw/Button.c **** /*****************************************************************************/
ARM GAS  C:\Users\rbhar\AppData\Local\Temp\ccQtuKOz.s 			page 2


  31:source\bsw/Button.c **** 
  32:source\bsw/Button.c **** /*****************************************************************************/
  33:source\bsw/Button.c **** /* Global variable definitions (declared in header file with 'extern')       */
  34:source\bsw/Button.c **** /*****************************************************************************/
  35:source\bsw/Button.c **** 
  36:source\bsw/Button.c **** /*****************************************************************************/
  37:source\bsw/Button.c **** /* Local type definitions ('typedef')                                        */
  38:source\bsw/Button.c **** /*****************************************************************************/
  39:source\bsw/Button.c **** 
  40:source\bsw/Button.c **** /*****************************************************************************/
  41:source\bsw/Button.c **** /* Local variable definitions ('static')                                     */
  42:source\bsw/Button.c **** /*****************************************************************************/
  43:source\bsw/Button.c **** static eButtonPressStates_t CurrentButtonState = BUTTON_UNPRESSED;
  44:source\bsw/Button.c **** 
  45:source\bsw/Button.c **** 
  46:source\bsw/Button.c **** /*****************************************************************************/
  47:source\bsw/Button.c **** /* Local function prototypes ('static')                                      */
  48:source\bsw/Button.c **** /*****************************************************************************/
  49:source\bsw/Button.c **** 
  50:source\bsw/Button.c **** 
  51:source\bsw/Button.c **** /*****************************************************************************/
  52:source\bsw/Button.c **** /* Function implementation - global ('extern') and local ('static')          */
  53:source\bsw/Button.c **** /*****************************************************************************/
  54:source\bsw/Button.c **** 
  55:source\bsw/Button.c **** /**
  56:source\bsw/Button.c ****  * This is a callback function for Button 1 press. The process of the ISR is
  57:source\bsw/Button.c ****  * done here.
  58:source\bsw/Button.c ****  * @param void
  59:source\bsw/Button.c ****  * @return void
  60:source\bsw/Button.c ****  */
  61:source\bsw/Button.c **** void ISR_Button1_Callback(void)
  62:source\bsw/Button.c **** {
  28              		.loc 1 62 0
  29              		.cfi_startproc
  30              		@ args = 0, pretend = 0, frame = 0
  31              		@ frame_needed = 0, uses_anonymous_args = 0
  32 0000 08B5     		push	{r3, lr}
  33              		.cfi_def_cfa_offset 8
  34              		.cfi_offset 3, -8
  35              		.cfi_offset 14, -4
  63:source\bsw/Button.c ****     StopTimerMeasurement();
  36              		.loc 1 63 0
  37 0002 FFF7FEFF 		bl	StopTimerMeasurement
  38              	.LVL0:
  64:source\bsw/Button.c ****     
  65:source\bsw/Button.c ****     if (CurrentButtonState == BUTTON_UNPRESSED)
  39              		.loc 1 65 0
  40 0006 034B     		ldr	r3, .L4
  41 0008 1B78     		ldrb	r3, [r3]	@ zero_extendqisi2
  42 000a 13B9     		cbnz	r3, .L1
  66:source\bsw/Button.c ****     {
  67:source\bsw/Button.c ****         CurrentButtonState = BUTTON_PRESSED_1;
  43              		.loc 1 67 0
  44 000c 0122     		movs	r2, #1
  45 000e 014B     		ldr	r3, .L4
  46 0010 1A70     		strb	r2, [r3]
  47              	.L1:
ARM GAS  C:\Users\rbhar\AppData\Local\Temp\ccQtuKOz.s 			page 3


  48 0012 08BD     		pop	{r3, pc}
  49              	.L5:
  50              		.align	2
  51              	.L4:
  52 0014 00000000 		.word	.LANCHOR0
  53              		.cfi_endproc
  54              	.LFE63:
  55              		.size	ISR_Button1_Callback, .-ISR_Button1_Callback
  56              		.section	.text.ISR_Button2_Callback,"ax",%progbits
  57              		.align	2
  58              		.global	ISR_Button2_Callback
  59              		.thumb
  60              		.thumb_func
  61              		.type	ISR_Button2_Callback, %function
  62              	ISR_Button2_Callback:
  63              	.LFB64:
  68:source\bsw/Button.c ****     }
  69:source\bsw/Button.c ****     return;
  70:source\bsw/Button.c **** }
  71:source\bsw/Button.c **** 
  72:source\bsw/Button.c **** /**
  73:source\bsw/Button.c ****  * This is a callback function for Button 2 press. The process of the ISR is
  74:source\bsw/Button.c ****  * done here.
  75:source\bsw/Button.c ****  * @param void
  76:source\bsw/Button.c ****  * @return void
  77:source\bsw/Button.c ****  */
  78:source\bsw/Button.c **** void ISR_Button2_Callback(void)
  79:source\bsw/Button.c **** {
  64              		.loc 1 79 0
  65              		.cfi_startproc
  66              		@ args = 0, pretend = 0, frame = 0
  67              		@ frame_needed = 0, uses_anonymous_args = 0
  68 0000 08B5     		push	{r3, lr}
  69              		.cfi_def_cfa_offset 8
  70              		.cfi_offset 3, -8
  71              		.cfi_offset 14, -4
  80:source\bsw/Button.c ****     StopTimerMeasurement();
  72              		.loc 1 80 0
  73 0002 FFF7FEFF 		bl	StopTimerMeasurement
  74              	.LVL1:
  81:source\bsw/Button.c ****     
  82:source\bsw/Button.c ****     if (CurrentButtonState == BUTTON_UNPRESSED)
  75              		.loc 1 82 0
  76 0006 034B     		ldr	r3, .L9
  77 0008 1B78     		ldrb	r3, [r3]	@ zero_extendqisi2
  78 000a 13B9     		cbnz	r3, .L6
  83:source\bsw/Button.c ****     {
  84:source\bsw/Button.c ****         CurrentButtonState = BUTTON_PRESSED_2;
  79              		.loc 1 84 0
  80 000c 0222     		movs	r2, #2
  81 000e 014B     		ldr	r3, .L9
  82 0010 1A70     		strb	r2, [r3]
  83              	.L6:
  84 0012 08BD     		pop	{r3, pc}
  85              	.L10:
  86              		.align	2
  87              	.L9:
ARM GAS  C:\Users\rbhar\AppData\Local\Temp\ccQtuKOz.s 			page 4


  88 0014 00000000 		.word	.LANCHOR0
  89              		.cfi_endproc
  90              	.LFE64:
  91              		.size	ISR_Button2_Callback, .-ISR_Button2_Callback
  92              		.section	.text.ISR_Button3_Callback,"ax",%progbits
  93              		.align	2
  94              		.global	ISR_Button3_Callback
  95              		.thumb
  96              		.thumb_func
  97              		.type	ISR_Button3_Callback, %function
  98              	ISR_Button3_Callback:
  99              	.LFB65:
  85:source\bsw/Button.c ****     }
  86:source\bsw/Button.c ****     return;
  87:source\bsw/Button.c **** }
  88:source\bsw/Button.c **** 
  89:source\bsw/Button.c **** /**
  90:source\bsw/Button.c ****  * This is a callback function for Button 3 press. The process of the ISR is
  91:source\bsw/Button.c ****  * done here.
  92:source\bsw/Button.c ****  * @param void
  93:source\bsw/Button.c ****  * @return void
  94:source\bsw/Button.c ****  */
  95:source\bsw/Button.c **** void ISR_Button3_Callback(void)
  96:source\bsw/Button.c **** {
 100              		.loc 1 96 0
 101              		.cfi_startproc
 102              		@ args = 0, pretend = 0, frame = 0
 103              		@ frame_needed = 0, uses_anonymous_args = 0
 104              		@ link register save eliminated.
 105 0000 7047     		bx	lr
 106              		.cfi_endproc
 107              	.LFE65:
 108              		.size	ISR_Button3_Callback, .-ISR_Button3_Callback
 109 0002 00BF     		.section	.text.ISR_Button4_Callback,"ax",%progbits
 110              		.align	2
 111              		.global	ISR_Button4_Callback
 112              		.thumb
 113              		.thumb_func
 114              		.type	ISR_Button4_Callback, %function
 115              	ISR_Button4_Callback:
 116              	.LFB66:
  97:source\bsw/Button.c ****     return;
  98:source\bsw/Button.c **** }
  99:source\bsw/Button.c **** 
 100:source\bsw/Button.c **** /**
 101:source\bsw/Button.c ****  * This is a callback function for Button 4 press. The process of the ISR is
 102:source\bsw/Button.c ****  * done here.
 103:source\bsw/Button.c ****  * @param void
 104:source\bsw/Button.c ****  * @return void
 105:source\bsw/Button.c ****  */
 106:source\bsw/Button.c **** void ISR_Button4_Callback(void)
 107:source\bsw/Button.c **** {
 117              		.loc 1 107 0
 118              		.cfi_startproc
 119              		@ args = 0, pretend = 0, frame = 0
 120              		@ frame_needed = 0, uses_anonymous_args = 0
 121              		@ link register save eliminated.
ARM GAS  C:\Users\rbhar\AppData\Local\Temp\ccQtuKOz.s 			page 5


 122 0000 7047     		bx	lr
 123              		.cfi_endproc
 124              	.LFE66:
 125              		.size	ISR_Button4_Callback, .-ISR_Button4_Callback
 126 0002 00BF     		.section	.text.UpdateButtonPressed,"ax",%progbits
 127              		.align	2
 128              		.global	UpdateButtonPressed
 129              		.thumb
 130              		.thumb_func
 131              		.type	UpdateButtonPressed, %function
 132              	UpdateButtonPressed:
 133              	.LFB67:
 108:source\bsw/Button.c ****     return;
 109:source\bsw/Button.c **** }
 110:source\bsw/Button.c **** 
 111:source\bsw/Button.c **** /**
 112:source\bsw/Button.c ****  * The function is called to update the current button pressed by the user.
 113:source\bsw/Button.c ****  * @param eButtonPressStates_t ButtonStat       : IN the button which is pressed
 114:source\bsw/Button.c ****  * @return the button press is saved in the memory
 115:source\bsw/Button.c ****  */
 116:source\bsw/Button.c **** void UpdateButtonPressed(eButtonPressStates_t ButtonState)
 117:source\bsw/Button.c **** {
 134              		.loc 1 117 0
 135              		.cfi_startproc
 136              		@ args = 0, pretend = 0, frame = 0
 137              		@ frame_needed = 0, uses_anonymous_args = 0
 138              		@ link register save eliminated.
 139              	.LVL2:
 118:source\bsw/Button.c ****     CurrentButtonState = ButtonState;
 140              		.loc 1 118 0
 141 0000 014B     		ldr	r3, .L14
 142 0002 1870     		strb	r0, [r3]
 143 0004 7047     		bx	lr
 144              	.L15:
 145 0006 00BF     		.align	2
 146              	.L14:
 147 0008 00000000 		.word	.LANCHOR0
 148              		.cfi_endproc
 149              	.LFE67:
 150              		.size	UpdateButtonPressed, .-UpdateButtonPressed
 151              		.section	.text.ReadCurrentButtonPressed,"ax",%progbits
 152              		.align	2
 153              		.global	ReadCurrentButtonPressed
 154              		.thumb
 155              		.thumb_func
 156              		.type	ReadCurrentButtonPressed, %function
 157              	ReadCurrentButtonPressed:
 158              	.LFB68:
 119:source\bsw/Button.c **** }
 120:source\bsw/Button.c **** 
 121:source\bsw/Button.c **** /**
 122:source\bsw/Button.c ****  * The function is called to read the button pressed which is stored in the memory.
 123:source\bsw/Button.c ****  * @param void
 124:source\bsw/Button.c ****  * @return the button press status from the memory.
 125:source\bsw/Button.c ****  */
 126:source\bsw/Button.c **** eButtonPressStates_t ReadCurrentButtonPressed(void)
 127:source\bsw/Button.c **** {
ARM GAS  C:\Users\rbhar\AppData\Local\Temp\ccQtuKOz.s 			page 6


 159              		.loc 1 127 0
 160              		.cfi_startproc
 161              		@ args = 0, pretend = 0, frame = 0
 162              		@ frame_needed = 0, uses_anonymous_args = 0
 163              		@ link register save eliminated.
 128:source\bsw/Button.c ****     return CurrentButtonState;
 129:source\bsw/Button.c **** }...
 164              		.loc 1 129 0
 165 0000 014B     		ldr	r3, .L17
 166 0002 1878     		ldrb	r0, [r3]	@ zero_extendqisi2
 167 0004 7047     		bx	lr
 168              	.L18:
 169 0006 00BF     		.align	2
 170              	.L17:
 171 0008 00000000 		.word	.LANCHOR0
 172              		.cfi_endproc
 173              	.LFE68:
 174              		.size	ReadCurrentButtonPressed, .-ReadCurrentButtonPressed
 175              		.bss
 176              		.set	.LANCHOR0,. + 0
 177              		.type	CurrentButtonState, %object
 178              		.size	CurrentButtonState, 1
 179              	CurrentButtonState:
 180 0000 00       		.space	1
 181              		.text
 182              	.Letext0:
 183              		.file 2 "c:\\program files (x86)\\cypress\\psoc creator\\4.2\\psoc creator\\import\\gnu\\arm\\5.4.
 184              		.file 3 "c:\\program files (x86)\\cypress\\psoc creator\\4.2\\psoc creator\\import\\gnu\\arm\\5.4.
 185              		.file 4 "source\\bsw\\Button.h"
 186              		.file 5 "Generated_Source\\PSoC5/core_cm3.h"
 187              		.file 6 "source\\bsw\\Timer.h"