ARM GAS  C:\Users\rbhar\AppData\Local\Temp\ccWJTOli.s 			page 1


   1              		.syntax unified
   2              		.cpu cortex-m3
   3              		.fpu softvfp
   4              		.eabi_attribute 20, 1
   5              		.eabi_attribute 21, 1
   6              		.eabi_attribute 23, 3
   7              		.eabi_attribute 24, 1
   8              		.eabi_attribute 25, 1
   9              		.eabi_attribute 26, 1
  10              		.eabi_attribute 30, 1
  11              		.eabi_attribute 34, 1
  12              		.eabi_attribute 18, 4
  13              		.thumb
  14              		.syntax unified
  15              		.file	"console.c"
  16              		.text
  17              	.Ltext0:
  18              		.cfi_sections	.debug_frame
  19              		.section	.text.ConsoleWrite,"ax",%progbits
  20              		.align	2
  21              		.thumb
  22              		.thumb_func
  23              		.type	ConsoleWrite, %function
  24              	ConsoleWrite:
  25              	.LFB64:
  26              		.file 1 "source\\bsw\\console.c"
   1:source\bsw/console.c **** /**
   2:source\bsw/console.c **** * \file <console.c>
   3:source\bsw/console.c **** * \author <Bharath Ramachandraiah>
   4:source\bsw/console.c **** * \date <25/09/2018>
   5:source\bsw/console.c **** *
   6:source\bsw/console.c **** * \brief <Symbolic File name>
   7:source\bsw/console.c **** *
   8:source\bsw/console.c **** * \copyright Copyright ©2016
   9:source\bsw/console.c **** * Department of electrical engineering and information technology, Hochschule Darmstadt - Universit
  10:source\bsw/console.c **** * Permission to use, copy, modify, and distribute this software and its documentation for education
  11:source\bsw/console.c **** * (unless permitted by h_da) and official h_da projects, is hereby granted for enrolled students of
  12:source\bsw/console.c **** * this paragraph and the following paragraph appear in all copies, modifications, and distributions
  13:source\bsw/console.c **** * Contact Prof.Dr.-Ing. Peter Fromm, peter.fromm@h-da.de, Birkenweg 8 64295 Darmstadt - GERMANY for
  14:source\bsw/console.c **** *
  15:source\bsw/console.c **** * \warning This software is a PROTOTYPE version and is not designed or intended for use in producti
  16:source\bsw/console.c **** * The user represents and warrants that it will NOT use or redistribute the Software for such purpo
  17:source\bsw/console.c **** * This prototype is for research purposes only. This software is provided "AS IS," without a warran
  18:source\bsw/console.c **** */
  19:source\bsw/console.c **** 
  20:source\bsw/console.c **** /*****************************************************************************/
  21:source\bsw/console.c **** /* Include files                                                             */
  22:source\bsw/console.c **** /*****************************************************************************/
  23:source\bsw/console.c **** #include "global.h"
  24:source\bsw/console.c **** #include "UART_1.h"
  25:source\bsw/console.c **** #include "console.h"
  26:source\bsw/console.c **** #include <stdarg.h>
  27:source\bsw/console.c **** #include <stdio.h>
  28:source\bsw/console.c **** 
  29:source\bsw/console.c **** /*****************************************************************************/
  30:source\bsw/console.c **** /* Local pre-processor symbols/macros ('#define')                            */
  31:source\bsw/console.c **** /*****************************************************************************/
ARM GAS  C:\Users\rbhar\AppData\Local\Temp\ccWJTOli.s 			page 2


  32:source\bsw/console.c **** 
  33:source\bsw/console.c **** /*****************************************************************************/
  34:source\bsw/console.c **** /* Global variable definitions (declared in header file with 'extern')       */
  35:source\bsw/console.c **** /*****************************************************************************/
  36:source\bsw/console.c **** 
  37:source\bsw/console.c **** /*****************************************************************************/
  38:source\bsw/console.c **** /* Local type definitions ('typedef')                                        */
  39:source\bsw/console.c **** /*****************************************************************************/
  40:source\bsw/console.c **** 
  41:source\bsw/console.c **** /*****************************************************************************/
  42:source\bsw/console.c **** /* Local variable definitions ('static')                                     */
  43:source\bsw/console.c **** /*****************************************************************************/
  44:source\bsw/console.c **** 
  45:source\bsw/console.c **** 
  46:source\bsw/console.c **** 
  47:source\bsw/console.c **** /*****************************************************************************/
  48:source\bsw/console.c **** /* Local function prototypes ('static')                                      */
  49:source\bsw/console.c **** /*****************************************************************************/
  50:source\bsw/console.c **** 
  51:source\bsw/console.c **** 
  52:source\bsw/console.c **** /*****************************************************************************/
  53:source\bsw/console.c **** /* Function implementation - global ('extern') and local ('static')          */
  54:source\bsw/console.c **** /*****************************************************************************/
  55:source\bsw/console.c **** 
  56:source\bsw/console.c **** /**
  57:source\bsw/console.c ****  * A function transmits the string characters over serial console.
  58:source\bsw/console.c ****  * @param const sint8_t *pMessaage      : IN String
  59:source\bsw/console.c ****  * @return Transmits the messsage character by character over the UART.
  60:source\bsw/console.c ****  */
  61:source\bsw/console.c **** static void ConsoleWrite(const char *pMessage)
  62:source\bsw/console.c **** {
  27              		.loc 1 62 0
  28              		.cfi_startproc
  29              		@ args = 0, pretend = 0, frame = 0
  30              		@ frame_needed = 0, uses_anonymous_args = 0
  31              	.LVL0:
  32 0000 08B5     		push	{r3, lr}
  33              		.cfi_def_cfa_offset 8
  34              		.cfi_offset 3, -8
  35              		.cfi_offset 14, -4
  63:source\bsw/console.c ****     UART_1_PutString(pMessage);
  36              		.loc 1 63 0
  37 0002 FFF7FEFF 		bl	UART_1_PutString
  38              	.LVL1:
  39 0006 08BD     		pop	{r3, pc}
  40              		.cfi_endproc
  41              	.LFE64:
  42              		.size	ConsoleWrite, .-ConsoleWrite
  43              		.section	.text.PrintOnConsole,"ax",%progbits
  44              		.align	2
  45              		.global	PrintOnConsole
  46              		.thumb
  47              		.thumb_func
  48              		.type	PrintOnConsole, %function
  49              	PrintOnConsole:
  50              	.LFB65:
  64:source\bsw/console.c **** }
ARM GAS  C:\Users\rbhar\AppData\Local\Temp\ccWJTOli.s 			page 3


  65:source\bsw/console.c **** 
  66:source\bsw/console.c **** /**
  67:source\bsw/console.c ****  * A function which takes variable number of args to be printed on console.
  68:source\bsw/console.c ****  * @param eConsoleMsgTypes_t MessageType      : IN Message Type
  69:source\bsw/console.c ****  * @param char *msg                           : IN String to be printed
  70:source\bsw/console.c ****  * @return fomats the string into printable data over console.
  71:source\bsw/console.c ****  */
  72:source\bsw/console.c **** void PrintOnConsole(eConsoleMsgTypes_t MessageType, char *msg, ...)
  73:source\bsw/console.c **** {
  51              		.loc 1 73 0
  52              		.cfi_startproc
  53              		@ args = 4, pretend = 12, frame = 104
  54              		@ frame_needed = 0, uses_anonymous_args = 1
  55              	.LVL2:
  56 0000 0EB4     		push	{r1, r2, r3}
  57              		.cfi_def_cfa_offset 12
  58              		.cfi_offset 1, -12
  59              		.cfi_offset 2, -8
  60              		.cfi_offset 3, -4
  61 0002 30B5     		push	{r4, r5, lr}
  62              		.cfi_def_cfa_offset 24
  63              		.cfi_offset 4, -24
  64              		.cfi_offset 5, -20
  65              		.cfi_offset 14, -16
  66 0004 9AB0     		sub	sp, sp, #104
  67              		.cfi_def_cfa_offset 128
  68 0006 1DAC     		add	r4, sp, #116
  69 0008 54F8045B 		ldr	r5, [r4], #4
  74:source\bsw/console.c ****     char MessageData[100] = {0};
  70              		.loc 1 74 0
  71 000c 6422     		movs	r2, #100
  72 000e 0021     		movs	r1, #0
  73 0010 01A8     		add	r0, sp, #4
  74              	.LVL3:
  75 0012 FFF7FEFF 		bl	memset
  76              	.LVL4:
  75:source\bsw/console.c ****     va_list valist; 
  76:source\bsw/console.c **** 
  77:source\bsw/console.c ****     va_start(valist, msg); 
  77              		.loc 1 77 0
  78 0016 0094     		str	r4, [sp]
  78:source\bsw/console.c ****     vsprintf((char *)MessageData, (const char *)msg, valist); 
  79              		.loc 1 78 0
  80 0018 2246     		mov	r2, r4
  81 001a 2946     		mov	r1, r5
  82 001c 01A8     		add	r0, sp, #4
  83 001e FFF7FEFF 		bl	vsprintf
  84              	.LVL5:
  79:source\bsw/console.c ****   
  80:source\bsw/console.c ****     va_end(valist);
  81:source\bsw/console.c ****     
  82:source\bsw/console.c ****     ConsoleWrite(MessageData);
  85              		.loc 1 82 0
  86 0022 01A8     		add	r0, sp, #4
  87 0024 FFF7FEFF 		bl	ConsoleWrite
  88              	.LVL6:
  83:source\bsw/console.c ****     
ARM GAS  C:\Users\rbhar\AppData\Local\Temp\ccWJTOli.s 			page 4


  84:source\bsw/console.c ****     (void)MessageType;
  85:source\bsw/console.c ****     return;
  86:source\bsw/console.c **** }...
  89              		.loc 1 86 0
  90 0028 1AB0     		add	sp, sp, #104
  91              		.cfi_def_cfa_offset 24
  92              		@ sp needed
  93 002a BDE83040 		pop	{r4, r5, lr}
  94              		.cfi_restore 14
  95              		.cfi_restore 5
  96              		.cfi_restore 4
  97              		.cfi_def_cfa_offset 12
  98 002e 03B0     		add	sp, sp, #12
  99              		.cfi_restore 3
 100              		.cfi_restore 2
 101              		.cfi_restore 1
 102              		.cfi_def_cfa_offset 0
 103 0030 7047     		bx	lr
 104              		.cfi_endproc
 105              	.LFE65:
 106              		.size	PrintOnConsole, .-PrintOnConsole
 107 0032 00BF     		.text
 108              	.Letext0:
 109              		.file 2 "c:\\program files (x86)\\cypress\\psoc creator\\4.2\\psoc creator\\import\\gnu\\arm\\5.4.
 110              		.file 3 "c:\\program files (x86)\\cypress\\psoc creator\\4.2\\psoc creator\\import\\gnu\\arm\\5.4.
 111              		.file 4 "source\\bsw\\console.h"
 112              		.file 5 "c:\\program files (x86)\\cypress\\psoc creator\\4.2\\psoc creator\\import\\gnu\\arm\\5.4.
 113              		.file 6 "Generated_Source\\PSoC5/UART_1.h"
 114              		.file 7 "c:\\program files (x86)\\cypress\\psoc creator\\4.2\\psoc creator\\import\\gnu\\arm\\5.4.
 115              		.file 8 "<built-in>"
 116              		.file 9 "Generated_Source\\PSoC5/core_cm3.h"