ARM GAS  C:\Users\rbhar\AppData\Local\Temp\cc0h7jsc.s 			page 1


   1              		.syntax unified
   2              		.cpu cortex-m3
   3              		.fpu softvfp
   4              		.eabi_attribute 20, 1
   5              		.eabi_attribute 21, 1
   6              		.eabi_attribute 23, 3
   7              		.eabi_attribute 24, 1
   8              		.eabi_attribute 25, 1
   9              		.eabi_attribute 26, 1
  10              		.eabi_attribute 30, 1
  11              		.eabi_attribute 34, 1
  12              		.eabi_attribute 18, 4
  13              		.thumb
  14              		.syntax unified
  15              		.file	"ReactionGame.c"
  16              		.text
  17              	.Ltext0:
  18              		.cfi_sections	.debug_frame
  19              		.section	.text.DisplayReactionResults,"ax",%progbits
  20              		.align	2
  21              		.thumb
  22              		.thumb_func
  23              		.type	DisplayReactionResults, %function
  24              	DisplayReactionResults:
  25              	.LFB67:
  26              		.file 1 "source\\asw\\ReactionGame.c"
   1:source\asw/ReactionGame.c **** /**
   2:source\asw/ReactionGame.c **** * \file <ReactionGame.c>
   3:source\asw/ReactionGame.c **** * \author <Bharath Ramachandraiah>
   4:source\asw/ReactionGame.c **** * \date <25/09/2018>
   5:source\asw/ReactionGame.c **** *
   6:source\asw/ReactionGame.c **** * \brief <Symbolic File name>
   7:source\asw/ReactionGame.c **** *
   8:source\asw/ReactionGame.c **** * \copyright Copyright ©2016
   9:source\asw/ReactionGame.c **** * Department of electrical engineering and information technology, Hochschule Darmstadt - Universit
  10:source\asw/ReactionGame.c **** * Permission to use, copy, modify, and distribute this software and its documentation for education
  11:source\asw/ReactionGame.c **** * (unless permitted by h_da) and official h_da projects, is hereby granted for enrolled students of
  12:source\asw/ReactionGame.c **** * this paragraph and the following paragraph appear in all copies, modifications, and distributions
  13:source\asw/ReactionGame.c **** * Contact Prof.Dr.-Ing. Peter Fromm, peter.fromm@h-da.de, Birkenweg 8 64295 Darmstadt - GERMANY for
  14:source\asw/ReactionGame.c **** *
  15:source\asw/ReactionGame.c **** * \warning This software is a PROTOTYPE version and is not designed or intended for use in producti
  16:source\asw/ReactionGame.c **** * The user represents and warrants that it will NOT use or redistribute the Software for such purpo
  17:source\asw/ReactionGame.c **** * This prototype is for research purposes only. This software is provided "AS IS," without a warran
  18:source\asw/ReactionGame.c **** */
  19:source\asw/ReactionGame.c **** 
  20:source\asw/ReactionGame.c **** /*****************************************************************************/
  21:source\asw/ReactionGame.c **** /* Include files                                                             */
  22:source\asw/ReactionGame.c **** /*****************************************************************************/
  23:source\asw/ReactionGame.c **** #include "global.h"
  24:source\asw/ReactionGame.c **** #include "console.h"
  25:source\asw/ReactionGame.c **** #include "Timer.h"
  26:source\asw/ReactionGame.c **** #include "seven.h"
  27:source\asw/ReactionGame.c **** #include "Button.h"
  28:source\asw/ReactionGame.c **** #include <stdlib.h>
  29:source\asw/ReactionGame.c **** 
  30:source\asw/ReactionGame.c **** /*****************************************************************************/
  31:source\asw/ReactionGame.c **** /* Local pre-processor symbols/macros ('#define')                            */
ARM GAS  C:\Users\rbhar\AppData\Local\Temp\cc0h7jsc.s 			page 2


  32:source\asw/ReactionGame.c **** /*****************************************************************************/
  33:source\asw/ReactionGame.c **** #define REACTIONGAME_TIMEOUT    1
  34:source\asw/ReactionGame.c **** #define MAX_RANDOM_TIME         3
  35:source\asw/ReactionGame.c **** #define MAX_RANDOM_NUMBER       2
  36:source\asw/ReactionGame.c **** #define NIBBLE_SHIFT            4
  37:source\asw/ReactionGame.c **** #define MASK_BIT0_BIT0          0x01
  38:source\asw/ReactionGame.c **** #define MASK_BIT1_BIT0          0x03
  39:source\asw/ReactionGame.c **** #define MASK_BIT2_BIT0          0x07
  40:source\asw/ReactionGame.c **** 
  41:source\asw/ReactionGame.c **** /*****************************************************************************/
  42:source\asw/ReactionGame.c **** /* Global variable definitions (declared in header file with 'extern')       */
  43:source\asw/ReactionGame.c **** /*****************************************************************************/
  44:source\asw/ReactionGame.c **** 
  45:source\asw/ReactionGame.c **** 
  46:source\asw/ReactionGame.c **** /*****************************************************************************/
  47:source\asw/ReactionGame.c **** /* Local type definitions ('typedef')                                        */
  48:source\asw/ReactionGame.c **** /*****************************************************************************/
  49:source\asw/ReactionGame.c **** enum eReactionStates
  50:source\asw/ReactionGame.c **** {
  51:source\asw/ReactionGame.c ****     REACTION_NO,
  52:source\asw/ReactionGame.c ****     REACTION_CORRECT,
  53:source\asw/ReactionGame.c ****     REACTION_WRONG,
  54:source\asw/ReactionGame.c **** };
  55:source\asw/ReactionGame.c **** 
  56:source\asw/ReactionGame.c **** enum eReactionStateTypes
  57:source\asw/ReactionGame.c **** {
  58:source\asw/ReactionGame.c ****     RG_START_BUTTON_PRESSED,
  59:source\asw/ReactionGame.c ****     RG_START_SCREEN,
  60:source\asw/ReactionGame.c ****     RG_GENERATE_RANDOM_DELAY,
  61:source\asw/ReactionGame.c ****     RG_GENERATE_RANDOM_NO_TO_DISPLAY,
  62:source\asw/ReactionGame.c ****     RG_UPDATE_SCREEN_WITH_RANDOM_NO,
  63:source\asw/ReactionGame.c ****     RG_ENABLE_KEY_INTERRUPTS,
  64:source\asw/ReactionGame.c ****     RG_START_REACTION_MEASUREMENT,
  65:source\asw/ReactionGame.c ****     RG_DISABLE_KEY_INTERRUPTS,
  66:source\asw/ReactionGame.c ****     RG_GET_REACTION_MEASUREMENT,
  67:source\asw/ReactionGame.c ****     RG_GET_BUTTON_PRESSED,
  68:source\asw/ReactionGame.c ****     RG_DISPLAY_RESULTS,
  69:source\asw/ReactionGame.c **** };
  70:source\asw/ReactionGame.c **** 
  71:source\asw/ReactionGame.c **** typedef enum eReactionStates eReactionStates_t;
  72:source\asw/ReactionGame.c **** typedef enum eReactionStateTypes eReactionStateTypes_t;
  73:source\asw/ReactionGame.c **** 
  74:source\asw/ReactionGame.c **** /*****************************************************************************/
  75:source\asw/ReactionGame.c **** /* Local variable definitions ('static')                                     */
  76:source\asw/ReactionGame.c **** /*****************************************************************************/
  77:source\asw/ReactionGame.c **** static uint32_t ReactionCorrectCounter = 0, ReactionWrongCounter = 0, ReactionNoCounter = 0;
  78:source\asw/ReactionGame.c **** static const char *PredefinedMessages[] = 
  79:source\asw/ReactionGame.c **** {
  80:source\asw/ReactionGame.c ****     "Missed ",
  81:source\asw/ReactionGame.c ****     "Correct",
  82:source\asw/ReactionGame.c ****     "Wrong  "
  83:source\asw/ReactionGame.c **** };
  84:source\asw/ReactionGame.c **** 
  85:source\asw/ReactionGame.c **** 
  86:source\asw/ReactionGame.c **** /*****************************************************************************/
  87:source\asw/ReactionGame.c **** /* Local function prototypes ('static')                                      */
  88:source\asw/ReactionGame.c **** /*****************************************************************************/
ARM GAS  C:\Users\rbhar\AppData\Local\Temp\cc0h7jsc.s 			page 3


  89:source\asw/ReactionGame.c **** 
  90:source\asw/ReactionGame.c **** 
  91:source\asw/ReactionGame.c **** /*****************************************************************************/
  92:source\asw/ReactionGame.c **** /* Function implementation - global ('extern') and local ('static')          */
  93:source\asw/ReactionGame.c **** /*****************************************************************************/
  94:source\asw/ReactionGame.c **** /**
  95:source\asw/ReactionGame.c ****  * A function to generate a random number.
  96:source\asw/ReactionGame.c ****  * @param uint8_t NumRange      : IN Maximum value of a random number
  97:source\asw/ReactionGame.c ****  * @return a random value.
  98:source\asw/ReactionGame.c ****  */
  99:source\asw/ReactionGame.c **** static uint8_t GetRandomNumber(uint8_t NumRange)
 100:source\asw/ReactionGame.c **** {
 101:source\asw/ReactionGame.c ****     uint32_t RandNum = 0;
 102:source\asw/ReactionGame.c ****     
 103:source\asw/ReactionGame.c ****     RandNum = rand();
 104:source\asw/ReactionGame.c **** 
 105:source\asw/ReactionGame.c ****     RandNum &= NumRange;
 106:source\asw/ReactionGame.c ****     
 107:source\asw/ReactionGame.c ****     return RandNum;
 108:source\asw/ReactionGame.c **** }
 109:source\asw/ReactionGame.c **** 
 110:source\asw/ReactionGame.c **** /**
 111:source\asw/ReactionGame.c ****  * A function to start the reaction time measurement and reset the button pressed.
 112:source\asw/ReactionGame.c ****  * @param void
 113:source\asw/ReactionGame.c ****  * @return timer is started to measure the reaction time.
 114:source\asw/ReactionGame.c ****  */
 115:source\asw/ReactionGame.c **** static void StartReactionMeasurement(void)
 116:source\asw/ReactionGame.c **** {
 117:source\asw/ReactionGame.c ****     StartTimerMeasurement();
 118:source\asw/ReactionGame.c ****     
 119:source\asw/ReactionGame.c ****     UpdateButtonPressed(BUTTON_UNPRESSED);
 120:source\asw/ReactionGame.c ****     
 121:source\asw/ReactionGame.c ****     return;
 122:source\asw/ReactionGame.c **** }
 123:source\asw/ReactionGame.c **** 
 124:source\asw/ReactionGame.c **** /**
 125:source\asw/ReactionGame.c ****  * A function to start the reaction time measurement and reset the button pressed.
 126:source\asw/ReactionGame.c ****  * @param void
 127:source\asw/ReactionGame.c ****  * @return timer is started to measure the reaction time.
 128:source\asw/ReactionGame.c ****  */
 129:source\asw/ReactionGame.c **** static uint32_t GetReactionMeasurement(eButtonPressStates_t *ButtonState)
 130:source\asw/ReactionGame.c **** {
 131:source\asw/ReactionGame.c ****     uint32_t MeasuredReactionTime = 0;
 132:source\asw/ReactionGame.c ****     
 133:source\asw/ReactionGame.c ****     MeasuredReactionTime = GetTimerMeasurement();
 134:source\asw/ReactionGame.c ****     *ButtonState = ReadCurrentButtonPressed();
 135:source\asw/ReactionGame.c ****     
 136:source\asw/ReactionGame.c ****     return MeasuredReactionTime;
 137:source\asw/ReactionGame.c **** }
 138:source\asw/ReactionGame.c ****    
 139:source\asw/ReactionGame.c **** /**
 140:source\asw/ReactionGame.c ****  * A function to check whether a button is pressed and validate it.
 141:source\asw/ReactionGame.c ****  * @param sint32_t Number                   : IN Number displayed
 142:source\asw/ReactionGame.c ****  * @param eButtonPressStates_t ButtonState  : IN Button pressed
 143:source\asw/ReactionGame.c ****  * @return validate the button check with the number displayed.
 144:source\asw/ReactionGame.c ****  */
 145:source\asw/ReactionGame.c **** static eReactionStates_t CheckButtonPressMatch(sint32_t Number, eButtonPressStates_t ButtonState)
ARM GAS  C:\Users\rbhar\AppData\Local\Temp\cc0h7jsc.s 			page 4


 146:source\asw/ReactionGame.c **** {
 147:source\asw/ReactionGame.c ****     eReactionStates_t result = REACTION_NO;
 148:source\asw/ReactionGame.c ****    
 149:source\asw/ReactionGame.c ****     if (ReadCurrentButtonPressed() == BUTTON_UNPRESSED)
 150:source\asw/ReactionGame.c ****     {
 151:source\asw/ReactionGame.c ****         result = REACTION_NO;
 152:source\asw/ReactionGame.c ****         ReactionNoCounter++;
 153:source\asw/ReactionGame.c ****     }
 154:source\asw/ReactionGame.c ****     else if (Number == ButtonState)
 155:source\asw/ReactionGame.c ****     {
 156:source\asw/ReactionGame.c ****         ReactionCorrectCounter++;
 157:source\asw/ReactionGame.c ****         result = REACTION_CORRECT;
 158:source\asw/ReactionGame.c ****     }
 159:source\asw/ReactionGame.c ****     else
 160:source\asw/ReactionGame.c ****     {
 161:source\asw/ReactionGame.c ****         ReactionWrongCounter++;
 162:source\asw/ReactionGame.c ****         result = REACTION_WRONG;
 163:source\asw/ReactionGame.c ****     }
 164:source\asw/ReactionGame.c ****     
 165:source\asw/ReactionGame.c ****     return result;
 166:source\asw/ReactionGame.c **** }
 167:source\asw/ReactionGame.c **** 
 168:source\asw/ReactionGame.c **** /**
 169:source\asw/ReactionGame.c ****  * A function to display the reaction results.
 170:source\asw/ReactionGame.c ****  * @param uint32_t MeasuredTime
 171:source\asw/ReactionGame.c ****  * @return the appropriate message is displayed.
 172:source\asw/ReactionGame.c ****  */
 173:source\asw/ReactionGame.c **** static void DisplayReactionResults(uint32_t MeasuredTime, eReactionStates_t ReactionIndex)
 174:source\asw/ReactionGame.c **** {
  27              		.loc 1 174 0
  28              		.cfi_startproc
  29              		@ args = 0, pretend = 0, frame = 0
  30              		@ frame_needed = 0, uses_anonymous_args = 0
  31              	.LVL0:
  32 0000 00B5     		push	{lr}
  33              		.cfi_def_cfa_offset 4
  34              		.cfi_offset 14, -4
  35 0002 85B0     		sub	sp, sp, #20
  36              		.cfi_def_cfa_offset 24
 175:source\asw/ReactionGame.c ****     PrintOnConsole(CONSOLE_MSG, "%s Button Press | The reaction time is %ums | Correct %u | Wrong %
  37              		.loc 1 175 0
  38 0004 084B     		ldr	r3, .L3
  39 0006 53F82120 		ldr	r2, [r3, r1, lsl #2]
  40 000a 084B     		ldr	r3, .L3+4
  41 000c 1968     		ldr	r1, [r3]
  42              	.LVL1:
  43 000e 0291     		str	r1, [sp, #8]
  44 0010 5968     		ldr	r1, [r3, #4]
  45 0012 0191     		str	r1, [sp, #4]
  46 0014 9B68     		ldr	r3, [r3, #8]
  47 0016 0093     		str	r3, [sp]
  48 0018 0346     		mov	r3, r0
  49 001a 0549     		ldr	r1, .L3+8
  50 001c 0020     		movs	r0, #0
  51              	.LVL2:
  52 001e FFF7FEFF 		bl	PrintOnConsole
  53              	.LVL3:
ARM GAS  C:\Users\rbhar\AppData\Local\Temp\cc0h7jsc.s 			page 5


 176:source\asw/ReactionGame.c ****         PredefinedMessages[ReactionIndex], MeasuredTime, ReactionCorrectCounter, ReactionWrongCount
 177:source\asw/ReactionGame.c ****     return;
 178:source\asw/ReactionGame.c **** }
  54              		.loc 1 178 0
  55 0022 05B0     		add	sp, sp, #20
  56              		.cfi_def_cfa_offset 4
  57              		@ sp needed
  58 0024 5DF804FB 		ldr	pc, [sp], #4
  59              	.L4:
  60              		.align	2
  61              	.L3:
  62 0028 00000000 		.word	.LANCHOR0
  63 002c 00000000 		.word	.LANCHOR1
  64 0030 00000000 		.word	.LC0
  65              		.cfi_endproc
  66              	.LFE67:
  67              		.size	DisplayReactionResults, .-DisplayReactionResults
  68              		.section	.text.CheckButtonPressMatch,"ax",%progbits
  69              		.align	2
  70              		.thumb
  71              		.thumb_func
  72              		.type	CheckButtonPressMatch, %function
  73              	CheckButtonPressMatch:
  74              	.LFB66:
 146:source\asw/ReactionGame.c ****     eReactionStates_t result = REACTION_NO;
  75              		.loc 1 146 0
  76              		.cfi_startproc
  77              		@ args = 0, pretend = 0, frame = 0
  78              		@ frame_needed = 0, uses_anonymous_args = 0
  79              	.LVL4:
  80 0000 38B5     		push	{r3, r4, r5, lr}
  81              		.cfi_def_cfa_offset 16
  82              		.cfi_offset 3, -16
  83              		.cfi_offset 4, -12
  84              		.cfi_offset 5, -8
  85              		.cfi_offset 14, -4
  86 0002 0446     		mov	r4, r0
  87 0004 0D46     		mov	r5, r1
  88              	.LVL5:
 149:source\asw/ReactionGame.c ****     {
  89              		.loc 1 149 0
  90 0006 FFF7FEFF 		bl	ReadCurrentButtonPressed
  91              	.LVL6:
  92 000a 20B9     		cbnz	r0, .L6
 152:source\asw/ReactionGame.c ****     }
  93              		.loc 1 152 0
  94 000c 094A     		ldr	r2, .L10
  95 000e 1368     		ldr	r3, [r2]
  96 0010 0133     		adds	r3, r3, #1
  97 0012 1360     		str	r3, [r2]
  98 0014 38BD     		pop	{r3, r4, r5, pc}
  99              	.LVL7:
 100              	.L6:
 154:source\asw/ReactionGame.c ****     {
 101              		.loc 1 154 0
 102 0016 A542     		cmp	r5, r4
 103 0018 05D1     		bne	.L8
ARM GAS  C:\Users\rbhar\AppData\Local\Temp\cc0h7jsc.s 			page 6


 156:source\asw/ReactionGame.c ****         result = REACTION_CORRECT;
 104              		.loc 1 156 0
 105 001a 064A     		ldr	r2, .L10
 106 001c 9368     		ldr	r3, [r2, #8]
 107 001e 0133     		adds	r3, r3, #1
 108 0020 9360     		str	r3, [r2, #8]
 109              	.LVL8:
 157:source\asw/ReactionGame.c ****     }
 110              		.loc 1 157 0
 111 0022 0120     		movs	r0, #1
 112 0024 38BD     		pop	{r3, r4, r5, pc}
 113              	.LVL9:
 114              	.L8:
 161:source\asw/ReactionGame.c ****         result = REACTION_WRONG;
 115              		.loc 1 161 0
 116 0026 034A     		ldr	r2, .L10
 117 0028 5368     		ldr	r3, [r2, #4]
 118 002a 0133     		adds	r3, r3, #1
 119 002c 5360     		str	r3, [r2, #4]
 120              	.LVL10:
 162:source\asw/ReactionGame.c ****     }
 121              		.loc 1 162 0
 122 002e 0220     		movs	r0, #2
 123              	.LVL11:
 166:source\asw/ReactionGame.c **** 
 124              		.loc 1 166 0
 125 0030 38BD     		pop	{r3, r4, r5, pc}
 126              	.LVL12:
 127              	.L11:
 128 0032 00BF     		.align	2
 129              	.L10:
 130 0034 00000000 		.word	.LANCHOR1
 131              		.cfi_endproc
 132              	.LFE66:
 133              		.size	CheckButtonPressMatch, .-CheckButtonPressMatch
 134              		.section	.text.GetRandomNumber,"ax",%progbits
 135              		.align	2
 136              		.thumb
 137              		.thumb_func
 138              		.type	GetRandomNumber, %function
 139              	GetRandomNumber:
 140              	.LFB63:
 100:source\asw/ReactionGame.c ****     uint32_t RandNum = 0;
 141              		.loc 1 100 0
 142              		.cfi_startproc
 143              		@ args = 0, pretend = 0, frame = 0
 144              		@ frame_needed = 0, uses_anonymous_args = 0
 145              	.LVL13:
 146 0000 10B5     		push	{r4, lr}
 147              		.cfi_def_cfa_offset 8
 148              		.cfi_offset 4, -8
 149              		.cfi_offset 14, -4
 150 0002 0446     		mov	r4, r0
 151              	.LVL14:
 103:source\asw/ReactionGame.c **** 
 152              		.loc 1 103 0
 153 0004 FFF7FEFF 		bl	rand
ARM GAS  C:\Users\rbhar\AppData\Local\Temp\cc0h7jsc.s 			page 7


 154              	.LVL15:
 108:source\asw/ReactionGame.c **** 
 155              		.loc 1 108 0
 156 0008 2040     		ands	r0, r0, r4
 157              	.LVL16:
 158 000a 10BD     		pop	{r4, pc}
 159              		.cfi_endproc
 160              	.LFE63:
 161              		.size	GetRandomNumber, .-GetRandomNumber
 162              		.section	.text.StartReactionMeasurement,"ax",%progbits
 163              		.align	2
 164              		.thumb
 165              		.thumb_func
 166              		.type	StartReactionMeasurement, %function
 167              	StartReactionMeasurement:
 168              	.LFB64:
 116:source\asw/ReactionGame.c ****     StartTimerMeasurement();
 169              		.loc 1 116 0
 170              		.cfi_startproc
 171              		@ args = 0, pretend = 0, frame = 0
 172              		@ frame_needed = 0, uses_anonymous_args = 0
 173 0000 08B5     		push	{r3, lr}
 174              		.cfi_def_cfa_offset 8
 175              		.cfi_offset 3, -8
 176              		.cfi_offset 14, -4
 117:source\asw/ReactionGame.c ****     
 177              		.loc 1 117 0
 178 0002 FFF7FEFF 		bl	StartTimerMeasurement
 179              	.LVL17:
 119:source\asw/ReactionGame.c ****     
 180              		.loc 1 119 0
 181 0006 0020     		movs	r0, #0
 182 0008 FFF7FEFF 		bl	UpdateButtonPressed
 183              	.LVL18:
 184 000c 08BD     		pop	{r3, pc}
 185              		.cfi_endproc
 186              	.LFE64:
 187              		.size	StartReactionMeasurement, .-StartReactionMeasurement
 188 000e 00BF     		.section	.text.GetReactionMeasurement,"ax",%progbits
 189              		.align	2
 190              		.thumb
 191              		.thumb_func
 192              		.type	GetReactionMeasurement, %function
 193              	GetReactionMeasurement:
 194              	.LFB65:
 130:source\asw/ReactionGame.c ****     uint32_t MeasuredReactionTime = 0;
 195              		.loc 1 130 0
 196              		.cfi_startproc
 197              		@ args = 0, pretend = 0, frame = 0
 198              		@ frame_needed = 0, uses_anonymous_args = 0
 199              	.LVL19:
 200 0000 38B5     		push	{r3, r4, r5, lr}
 201              		.cfi_def_cfa_offset 16
 202              		.cfi_offset 3, -16
 203              		.cfi_offset 4, -12
 204              		.cfi_offset 5, -8
 205              		.cfi_offset 14, -4
ARM GAS  C:\Users\rbhar\AppData\Local\Temp\cc0h7jsc.s 			page 8


 206 0002 0546     		mov	r5, r0
 207              	.LVL20:
 133:source\asw/ReactionGame.c ****     *ButtonState = ReadCurrentButtonPressed();
 208              		.loc 1 133 0
 209 0004 FFF7FEFF 		bl	GetTimerMeasurement
 210              	.LVL21:
 211 0008 0446     		mov	r4, r0
 212              	.LVL22:
 134:source\asw/ReactionGame.c ****     
 213              		.loc 1 134 0
 214 000a FFF7FEFF 		bl	ReadCurrentButtonPressed
 215              	.LVL23:
 216 000e 2870     		strb	r0, [r5]
 137:source\asw/ReactionGame.c ****    
 217              		.loc 1 137 0
 218 0010 2046     		mov	r0, r4
 219 0012 38BD     		pop	{r3, r4, r5, pc}
 220              		.cfi_endproc
 221              	.LFE65:
 222              		.size	GetReactionMeasurement, .-GetReactionMeasurement
 223              		.section	.text.ReactionGameRun,"ax",%progbits
 224              		.align	2
 225              		.global	ReactionGameRun
 226              		.thumb
 227              		.thumb_func
 228              		.type	ReactionGameRun, %function
 229              	ReactionGameRun:
 230              	.LFB68:
 179:source\asw/ReactionGame.c **** 
 180:source\asw/ReactionGame.c **** /**
 181:source\asw/ReactionGame.c ****  * A function starts the reaction game.
 182:source\asw/ReactionGame.c ****  * @param void
 183:source\asw/ReactionGame.c ****  * @return Starts the game.
 184:source\asw/ReactionGame.c ****  */
 185:source\asw/ReactionGame.c **** void ReactionGameRun(void)
 186:source\asw/ReactionGame.c **** {
 231              		.loc 1 186 0
 232              		.cfi_startproc
 233              		@ args = 0, pretend = 0, frame = 8
 234              		@ frame_needed = 0, uses_anonymous_args = 0
 235 0000 70B5     		push	{r4, r5, r6, lr}
 236              		.cfi_def_cfa_offset 16
 237              		.cfi_offset 4, -16
 238              		.cfi_offset 5, -12
 239              		.cfi_offset 6, -8
 240              		.cfi_offset 14, -4
 241 0002 82B0     		sub	sp, sp, #8
 242              		.cfi_def_cfa_offset 24
 187:source\asw/ReactionGame.c ****     eButtonPressStates_t ButtonState = BUTTON_UNPRESSED;
 243              		.loc 1 187 0
 244 0004 0024     		movs	r4, #0
 245 0006 8DF80740 		strb	r4, [sp, #7]
 246              	.LVL24:
 188:source\asw/ReactionGame.c ****     sint32_t RandNum = 0;
 189:source\asw/ReactionGame.c ****     uint32_t MeasuredTime = 0;
 190:source\asw/ReactionGame.c ****     eReactionStates_t ReactionButton = REACTION_NO;
 191:source\asw/ReactionGame.c ****     eReactionStateTypes_t RG_CurrentState = RG_START_BUTTON_PRESSED;
ARM GAS  C:\Users\rbhar\AppData\Local\Temp\cc0h7jsc.s 			page 9


 192:source\asw/ReactionGame.c ****     
 193:source\asw/ReactionGame.c ****     PrintOnConsole(CONSOLE_MSG, "Welcome to the Reaction Game\n\nPress a button to start...\n");
 247              		.loc 1 193 0
 248 000a 2C49     		ldr	r1, .L35
 249 000c 2046     		mov	r0, r4
 250 000e FFF7FEFF 		bl	PrintOnConsole
 251              	.LVL25:
 191:source\asw/ReactionGame.c ****     
 252              		.loc 1 191 0
 253 0012 2346     		mov	r3, r4
 190:source\asw/ReactionGame.c ****     eReactionStateTypes_t RG_CurrentState = RG_START_BUTTON_PRESSED;
 254              		.loc 1 190 0
 255 0014 2646     		mov	r6, r4
 189:source\asw/ReactionGame.c ****     eReactionStates_t ReactionButton = REACTION_NO;
 256              		.loc 1 189 0
 257 0016 2546     		mov	r5, r4
 258              	.LVL26:
 259              	.L20:
 194:source\asw/ReactionGame.c ****     
 195:source\asw/ReactionGame.c ****     do
 196:source\asw/ReactionGame.c ****     {
 197:source\asw/ReactionGame.c ****         switch (RG_CurrentState)
 260              		.loc 1 197 0
 261 0018 0A2B     		cmp	r3, #10
 262 001a FDD8     		bhi	.L20
 263 001c DFE803F0 		tbb	[pc, r3]
 264              	.L22:
 265 0020 06       		.byte	(.L21-.L22)/2
 266 0021 0C       		.byte	(.L23-.L22)/2
 267 0022 10       		.byte	(.L24-.L22)/2
 268 0023 19       		.byte	(.L25-.L22)/2
 269 0024 1F       		.byte	(.L26-.L22)/2
 270 0025 26       		.byte	(.L27-.L22)/2
 271 0026 2C       		.byte	(.L28-.L22)/2
 272 0027 33       		.byte	(.L29-.L22)/2
 273 0028 39       		.byte	(.L30-.L22)/2
 274 0029 40       		.byte	(.L31-.L22)/2
 275 002a 48       		.byte	(.L32-.L22)/2
 276              	.LVL27:
 277 002b 00       		.p2align 1
 278              	.L21:
 198:source\asw/ReactionGame.c ****         {
 199:source\asw/ReactionGame.c ****             case RG_START_BUTTON_PRESSED:
 200:source\asw/ReactionGame.c ****                 while (ReadCurrentButtonPressed() == BUTTON_UNPRESSED);
 279              		.loc 1 200 0 discriminator 1
 280 002c FFF7FEFF 		bl	ReadCurrentButtonPressed
 281              	.LVL28:
 282 0030 0028     		cmp	r0, #0
 283 0032 FBD0     		beq	.L21
 201:source\asw/ReactionGame.c ****                 RG_CurrentState = RG_START_SCREEN;
 284              		.loc 1 201 0
 285 0034 0123     		movs	r3, #1
 286 0036 EFE7     		b	.L20
 287              	.LVL29:
 288              	.L23:
 202:source\asw/ReactionGame.c ****             break;
 203:source\asw/ReactionGame.c ****             
ARM GAS  C:\Users\rbhar\AppData\Local\Temp\cc0h7jsc.s 			page 10


 204:source\asw/ReactionGame.c ****             case RG_START_SCREEN:
 205:source\asw/ReactionGame.c ****                 /* Clear the screen & button */
 206:source\asw/ReactionGame.c ****                 SEVEN_clear();
 289              		.loc 1 206 0
 290 0038 FFF7FEFF 		bl	SEVEN_clear
 291              	.LVL30:
 207:source\asw/ReactionGame.c ****                 RG_CurrentState = RG_GENERATE_RANDOM_DELAY;
 292              		.loc 1 207 0
 293 003c 0223     		movs	r3, #2
 208:source\asw/ReactionGame.c ****             break;
 294              		.loc 1 208 0
 295 003e EBE7     		b	.L20
 296              	.LVL31:
 297              	.L24:
 209:source\asw/ReactionGame.c ****                 
 210:source\asw/ReactionGame.c ****             case RG_GENERATE_RANDOM_DELAY:
 211:source\asw/ReactionGame.c ****                 /* Generate the random delay for blank screen */
 212:source\asw/ReactionGame.c ****                 RandNum = GetRandomNumber(MASK_BIT1_BIT0) + 1;        
 298              		.loc 1 212 0
 299 0040 0320     		movs	r0, #3
 300 0042 FFF7FEFF 		bl	GetRandomNumber
 301              	.LVL32:
 302 0046 441C     		adds	r4, r0, #1
 303              	.LVL33:
 213:source\asw/ReactionGame.c ****                 DelayGenerator(RandNum);
 304              		.loc 1 213 0
 305 0048 E0B2     		uxtb	r0, r4
 306 004a FFF7FEFF 		bl	DelayGenerator
 307              	.LVL34:
 214:source\asw/ReactionGame.c ****                 RG_CurrentState = RG_GENERATE_RANDOM_NO_TO_DISPLAY;
 308              		.loc 1 214 0
 309 004e 0323     		movs	r3, #3
 215:source\asw/ReactionGame.c ****             break;
 310              		.loc 1 215 0
 311 0050 E2E7     		b	.L20
 312              	.LVL35:
 313              	.L25:
 216:source\asw/ReactionGame.c ****                 
 217:source\asw/ReactionGame.c ****             case RG_GENERATE_RANDOM_NO_TO_DISPLAY:
 218:source\asw/ReactionGame.c ****                 /* Generate a random number to display - 0 or 1 is returned here */
 219:source\asw/ReactionGame.c ****                 RandNum = GetRandomNumber(MASK_BIT0_BIT0) + 1;
 314              		.loc 1 219 0
 315 0052 0120     		movs	r0, #1
 316 0054 FFF7FEFF 		bl	GetRandomNumber
 317              	.LVL36:
 318 0058 441C     		adds	r4, r0, #1
 319              	.LVL37:
 220:source\asw/ReactionGame.c ****                 RG_CurrentState = RG_UPDATE_SCREEN_WITH_RANDOM_NO;
 320              		.loc 1 220 0
 321 005a 0423     		movs	r3, #4
 221:source\asw/ReactionGame.c ****             break;
 322              		.loc 1 221 0
 323 005c DCE7     		b	.L20
 324              	.LVL38:
 325              	.L26:
 222:source\asw/ReactionGame.c ****                 
 223:source\asw/ReactionGame.c ****             case RG_UPDATE_SCREEN_WITH_RANDOM_NO:
ARM GAS  C:\Users\rbhar\AppData\Local\Temp\cc0h7jsc.s 			page 11


 224:source\asw/ReactionGame.c ****                 /* Update the screen with the random number */
 225:source\asw/ReactionGame.c ****                 SEVEN_Write(RandNum << NIBBLE_SHIFT | RandNum);
 326              		.loc 1 225 0
 327 005e 44EA0410 		orr	r0, r4, r4, lsl #4
 328 0062 C0B2     		uxtb	r0, r0
 329 0064 FFF7FEFF 		bl	SEVEN_Write
 330              	.LVL39:
 226:source\asw/ReactionGame.c ****                 RG_CurrentState = RG_ENABLE_KEY_INTERRUPTS;
 331              		.loc 1 226 0
 332 0068 0523     		movs	r3, #5
 227:source\asw/ReactionGame.c ****             break;
 333              		.loc 1 227 0
 334 006a D5E7     		b	.L20
 335              	.LVL40:
 336              	.L27:
 228:source\asw/ReactionGame.c ****                 
 229:source\asw/ReactionGame.c ****             case RG_ENABLE_KEY_INTERRUPTS:
 230:source\asw/ReactionGame.c ****                 /* Enable Interrupts */
 231:source\asw/ReactionGame.c ****                 ISR_Button3_Enable();
 337              		.loc 1 231 0
 338 006c FFF7FEFF 		bl	ISR_Button3_Enable
 339              	.LVL41:
 232:source\asw/ReactionGame.c ****                 ISR_Button4_Enable();
 340              		.loc 1 232 0
 341 0070 FFF7FEFF 		bl	ISR_Button4_Enable
 342              	.LVL42:
 233:source\asw/ReactionGame.c ****                 RG_CurrentState = RG_START_REACTION_MEASUREMENT;
 343              		.loc 1 233 0
 344 0074 0623     		movs	r3, #6
 234:source\asw/ReactionGame.c ****             break;
 345              		.loc 1 234 0
 346 0076 CFE7     		b	.L20
 347              	.LVL43:
 348              	.L28:
 235:source\asw/ReactionGame.c ****                 
 236:source\asw/ReactionGame.c ****             case RG_START_REACTION_MEASUREMENT:
 237:source\asw/ReactionGame.c ****                 StartReactionMeasurement();
 349              		.loc 1 237 0
 350 0078 FFF7FEFF 		bl	StartReactionMeasurement
 351              	.LVL44:
 238:source\asw/ReactionGame.c ****                 DelayGenerator(REACTIONGAME_TIMEOUT);
 352              		.loc 1 238 0
 353 007c 0120     		movs	r0, #1
 354 007e FFF7FEFF 		bl	DelayGenerator
 355              	.LVL45:
 239:source\asw/ReactionGame.c ****                 RG_CurrentState = RG_DISABLE_KEY_INTERRUPTS;
 356              		.loc 1 239 0
 357 0082 0723     		movs	r3, #7
 240:source\asw/ReactionGame.c ****             break;
 358              		.loc 1 240 0
 359 0084 C8E7     		b	.L20
 360              	.LVL46:
 361              	.L29:
 241:source\asw/ReactionGame.c ****                 
 242:source\asw/ReactionGame.c ****             case RG_DISABLE_KEY_INTERRUPTS:
 243:source\asw/ReactionGame.c ****                 /* Disable Interrupts */
 244:source\asw/ReactionGame.c ****                 ISR_Button3_Disable();
ARM GAS  C:\Users\rbhar\AppData\Local\Temp\cc0h7jsc.s 			page 12


 362              		.loc 1 244 0
 363 0086 FFF7FEFF 		bl	ISR_Button3_Disable
 364              	.LVL47:
 245:source\asw/ReactionGame.c ****                 ISR_Button4_Disable();
 365              		.loc 1 245 0
 366 008a FFF7FEFF 		bl	ISR_Button4_Disable
 367              	.LVL48:
 246:source\asw/ReactionGame.c ****                 RG_CurrentState = RG_GET_REACTION_MEASUREMENT;
 368              		.loc 1 246 0
 369 008e 0823     		movs	r3, #8
 247:source\asw/ReactionGame.c ****             break;
 370              		.loc 1 247 0
 371 0090 C2E7     		b	.L20
 372              	.LVL49:
 373              	.L30:
 248:source\asw/ReactionGame.c ****                 
 249:source\asw/ReactionGame.c ****             case RG_GET_REACTION_MEASUREMENT:
 250:source\asw/ReactionGame.c ****                 MeasuredTime = GetReactionMeasurement(&ButtonState);
 374              		.loc 1 250 0
 375 0092 0DF10700 		add	r0, sp, #7
 376 0096 FFF7FEFF 		bl	GetReactionMeasurement
 377              	.LVL50:
 378 009a 0546     		mov	r5, r0
 379              	.LVL51:
 251:source\asw/ReactionGame.c ****                 RG_CurrentState = RG_GET_BUTTON_PRESSED;
 380              		.loc 1 251 0
 381 009c 0923     		movs	r3, #9
 252:source\asw/ReactionGame.c ****             break;
 382              		.loc 1 252 0
 383 009e BBE7     		b	.L20
 384              	.LVL52:
 385              	.L31:
 253:source\asw/ReactionGame.c ****                 
 254:source\asw/ReactionGame.c ****             case RG_GET_BUTTON_PRESSED:
 255:source\asw/ReactionGame.c ****                 ReactionButton = CheckButtonPressMatch(RandNum, ButtonState);
 386              		.loc 1 255 0
 387 00a0 9DF80710 		ldrb	r1, [sp, #7]	@ zero_extendqisi2
 388 00a4 2046     		mov	r0, r4
 389 00a6 FFF7FEFF 		bl	CheckButtonPressMatch
 390              	.LVL53:
 391 00aa 0646     		mov	r6, r0
 392              	.LVL54:
 256:source\asw/ReactionGame.c ****                 RG_CurrentState = RG_DISPLAY_RESULTS;
 393              		.loc 1 256 0
 394 00ac 0A23     		movs	r3, #10
 257:source\asw/ReactionGame.c ****             break;
 395              		.loc 1 257 0
 396 00ae B3E7     		b	.L20
 397              	.LVL55:
 398              	.L32:
 258:source\asw/ReactionGame.c ****                 
 259:source\asw/ReactionGame.c ****             case RG_DISPLAY_RESULTS:
 260:source\asw/ReactionGame.c ****                 /* Display Information of reaction time */
 261:source\asw/ReactionGame.c ****                 DisplayReactionResults(MeasuredTime, ReactionButton);
 399              		.loc 1 261 0
 400 00b0 3146     		mov	r1, r6
 401 00b2 2846     		mov	r0, r5
ARM GAS  C:\Users\rbhar\AppData\Local\Temp\cc0h7jsc.s 			page 13


 402 00b4 FFF7FEFF 		bl	DisplayReactionResults
 403              	.LVL56:
 262:source\asw/ReactionGame.c ****                 RG_CurrentState = RG_START_SCREEN;
 404              		.loc 1 262 0
 405 00b8 0123     		movs	r3, #1
 263:source\asw/ReactionGame.c ****             break;
 406              		.loc 1 263 0
 407 00ba ADE7     		b	.L20
 408              	.L36:
 409              		.align	2
 410              	.L35:
 411 00bc 54000000 		.word	.LC1
 412              		.cfi_endproc
 413              	.LFE68:
 414              		.size	ReactionGameRun, .-ReactionGameRun
 415              		.section	.rodata
 416              		.align	2
 417              		.set	.LANCHOR0,. + 0
 418              		.type	PredefinedMessages, %object
 419              		.size	PredefinedMessages, 12
 420              	PredefinedMessages:
 421 0000 90000000 		.word	.LC2
 422 0004 98000000 		.word	.LC3
 423 0008 A0000000 		.word	.LC4
 424              		.section	.rodata.str1.4,"aMS",%progbits,1
 425              		.align	2
 426              	.LC0:
 427 0000 25732042 		.ascii	"%s Button Press | The reaction time is %ums | Corre"
 427      7574746F 
 427      6E205072 
 427      65737320 
 427      7C205468 
 428 0033 63742025 		.ascii	"ct %u | Wrong %u | Missed %u\012\000"
 428      75207C20 
 428      57726F6E 
 428      67202575 
 428      207C204D 
 429 0051 000000   		.space	3
 430              	.LC1:
 431 0054 57656C63 		.ascii	"Welcome to the Reaction Game\012\012Press a button "
 431      6F6D6520 
 431      746F2074 
 431      68652052 
 431      65616374 
 432 0081 746F2073 		.ascii	"to start...\012\000"
 432      74617274 
 432      2E2E2E0A 
 432      00
 433 008e 0000     		.space	2
 434              	.LC2:
 435 0090 4D697373 		.ascii	"Missed \000"
 435      65642000 
 436              	.LC3:
 437 0098 436F7272 		.ascii	"Correct\000"
 437      65637400 
 438              	.LC4:
 439 00a0 57726F6E 		.ascii	"Wrong  \000"
ARM GAS  C:\Users\rbhar\AppData\Local\Temp\cc0h7jsc.s 			page 14


 439      67202000 
 440              		.bss
 441              		.align	2
 442              		.set	.LANCHOR1,. + 0
 443              		.type	ReactionNoCounter, %object
 444              		.size	ReactionNoCounter, 4
 445              	ReactionNoCounter:
 446 0000 00000000 		.space	4
 447              		.type	ReactionWrongCounter, %object
 448              		.size	ReactionWrongCounter, 4
 449              	ReactionWrongCounter:
 450 0004 00000000 		.space	4
 451              		.type	ReactionCorrectCounter, %object
 452              		.size	ReactionCorrectCounter, 4
 453              	ReactionCorrectCounter:
 454 0008 00000000 		.space	4
 455              		.text
 456              	.Letext0:
 457              		.file 2 "c:\\program files (x86)\\cypress\\psoc creator\\4.2\\psoc creator\\import\\gnu\\arm\\5.4.
 458              		.file 3 "c:\\program files (x86)\\cypress\\psoc creator\\4.2\\psoc creator\\import\\gnu\\arm\\5.4.
 459              		.file 4 ".\\source\\bsw/global.h"
 460              		.file 5 ".\\source\\bsw/console.h"
 461              		.file 6 ".\\source\\bsw/Button.h"
 462              		.file 7 "c:\\program files (x86)\\cypress\\psoc creator\\4.2\\psoc creator\\import\\gnu\\arm\\5.4.
 463              		.file 8 ".\\source\\bsw/Timer.h"
 464              		.file 9 ".\\source\\bsw/seven.h"
 465              		.file 10 "Generated_Source\\PSoC5/ISR_Button3.h"
 466              		.file 11 "Generated_Source\\PSoC5/ISR_Button4.h"
 467              		.file 12 "Generated_Source\\PSoC5/core_cm3.h"