ARM GAS  C:\Users\rbhar\AppData\Local\Temp\ccSrbOLa.s 			page 1


   1              		.syntax unified
   2              		.cpu cortex-m3
   3              		.fpu softvfp
   4              		.eabi_attribute 20, 1
   5              		.eabi_attribute 21, 1
   6              		.eabi_attribute 23, 3
   7              		.eabi_attribute 24, 1
   8              		.eabi_attribute 25, 1
   9              		.eabi_attribute 26, 1
  10              		.eabi_attribute 30, 1
  11              		.eabi_attribute 34, 1
  12              		.eabi_attribute 18, 4
  13              		.thumb
  14              		.syntax unified
  15              		.file	"seven.c"
  16              		.text
  17              	.Ltext0:
  18              		.cfi_sections	.debug_frame
  19              		.section	.text.SEVEN_Set,"ax",%progbits
  20              		.align	2
  21              		.thumb
  22              		.thumb_func
  23              		.type	SEVEN_Set, %function
  24              	SEVEN_Set:
  25              	.LFB65:
  26              		.file 1 "source\\bsw\\seven.c"
   1:source\bsw/seven.c **** /**
   2:source\bsw/seven.c **** * \file <seven.c>
   3:source\bsw/seven.c **** * \author <Bharath Ramachandraiah>
   4:source\bsw/seven.c **** * \date <25/09/2018>
   5:source\bsw/seven.c **** *
   6:source\bsw/seven.c **** * \brief <Symbolic File name>
   7:source\bsw/seven.c **** *
   8:source\bsw/seven.c **** * \copyright Copyright ©2016
   9:source\bsw/seven.c **** * Department of electrical engineering and information technology, Hochschule Darmstadt - Universit
  10:source\bsw/seven.c **** * Permission to use, copy, modify, and distribute this software and its documentation for education
  11:source\bsw/seven.c **** * (unless permitted by h_da) and official h_da projects, is hereby granted for enrolled students of
  12:source\bsw/seven.c **** * this paragraph and the following paragraph appear in all copies, modifications, and distributions
  13:source\bsw/seven.c **** * Contact Prof.Dr.-Ing. Peter Fromm, peter.fromm@h-da.de, Birkenweg 8 64295 Darmstadt - GERMANY for
  14:source\bsw/seven.c **** *
  15:source\bsw/seven.c **** * \warning This software is a PROTOTYPE version and is not designed or intended for use in producti
  16:source\bsw/seven.c **** * The user represents and warrants that it will NOT use or redistribute the Software for such purpo
  17:source\bsw/seven.c **** * This prototype is for research purposes only. This software is provided "AS IS," without a warran
  18:source\bsw/seven.c **** */
  19:source\bsw/seven.c **** 
  20:source\bsw/seven.c **** /*****************************************************************************/
  21:source\bsw/seven.c **** /* Include files                                                             */
  22:source\bsw/seven.c **** /*****************************************************************************/
  23:source\bsw/seven.c **** #include "global.h"
  24:source\bsw/seven.c **** #include "Pin_Display.h"
  25:source\bsw/seven.c **** #include "Pin_Select.h"
  26:source\bsw/seven.c **** #include "seven.h"
  27:source\bsw/seven.c **** #include "Control_Reg_SevenSegmentLED.h"
  28:source\bsw/seven.c **** 
  29:source\bsw/seven.c **** /*****************************************************************************/
  30:source\bsw/seven.c **** /* Local pre-processor symbols/macros ('#define')                            */
  31:source\bsw/seven.c **** /*****************************************************************************/
ARM GAS  C:\Users\rbhar\AppData\Local\Temp\ccSrbOLa.s 			page 2


  32:source\bsw/seven.c **** #define SEVEN_NO_DISPLAYS_MAX       2
  33:source\bsw/seven.c **** #define SEVEN_NO_OF_SEGMENTS        7
  34:source\bsw/seven.c **** 
  35:source\bsw/seven.c **** /*****************************************************************************/
  36:source\bsw/seven.c **** /* Global variable definitions (declared in header file with 'extern')       */
  37:source\bsw/seven.c **** /*****************************************************************************/
  38:source\bsw/seven.c **** 
  39:source\bsw/seven.c **** /*****************************************************************************/
  40:source\bsw/seven.c **** /* Local type definitions ('typedef')                                        */
  41:source\bsw/seven.c **** /*****************************************************************************/
  42:source\bsw/seven.c **** 
  43:source\bsw/seven.c **** /*****************************************************************************/
  44:source\bsw/seven.c **** /* Local variable definitions ('static')                                     */
  45:source\bsw/seven.c **** /*****************************************************************************/
  46:source\bsw/seven.c **** static const uint8 LookUpForDisplay[] = 
  47:source\bsw/seven.c **** {
  48:source\bsw/seven.c ****     0x3F,
  49:source\bsw/seven.c ****     0x06,
  50:source\bsw/seven.c ****     0x5b,
  51:source\bsw/seven.c ****     0x4f,
  52:source\bsw/seven.c ****     0x66,
  53:source\bsw/seven.c ****     0x6d,
  54:source\bsw/seven.c ****     0x7d,
  55:source\bsw/seven.c ****     0x07,
  56:source\bsw/seven.c ****     0x7f,
  57:source\bsw/seven.c ****     0x6f,
  58:source\bsw/seven.c ****     0x77,
  59:source\bsw/seven.c ****     0x7c,
  60:source\bsw/seven.c ****     0x39,
  61:source\bsw/seven.c ****     0x5e,
  62:source\bsw/seven.c ****     0x79,
  63:source\bsw/seven.c ****     0x71,
  64:source\bsw/seven.c ****     0x00,
  65:source\bsw/seven.c **** };
  66:source\bsw/seven.c **** 
  67:source\bsw/seven.c **** /*****************************************************************************/
  68:source\bsw/seven.c **** /* Local function prototypes ('static')                                      */
  69:source\bsw/seven.c **** /*****************************************************************************/
  70:source\bsw/seven.c **** 
  71:source\bsw/seven.c **** 
  72:source\bsw/seven.c **** /*****************************************************************************/
  73:source\bsw/seven.c **** /* Function implementation - global ('extern') and local ('static')          */
  74:source\bsw/seven.c **** /*****************************************************************************/
  75:source\bsw/seven.c **** 
  76:source\bsw/seven.c **** /**
  77:source\bsw/seven.c ****  * The function initializes the display to default settings.
  78:source\bsw/seven.c ****  * @param void
  79:source\bsw/seven.c ****  * @return the displays are reset.
  80:source\bsw/seven.c ****  */
  81:source\bsw/seven.c **** RC_t SEVEN_init(void)
  82:source\bsw/seven.c **** {
  83:source\bsw/seven.c ****     Pin_Display_Write(SEGMENT_ON);
  84:source\bsw/seven.c ****     
  85:source\bsw/seven.c ****     /* Select 0th Display */
  86:source\bsw/seven.c ****     Pin_Select_Write(SEVEN_DISPLAY0);
  87:source\bsw/seven.c ****     Control_Reg_SevenSegmentLED_Write(LookUpForDisplay[(sizeof(LookUpForDisplay) / sizeof(uint8)) -
  88:source\bsw/seven.c ****     
ARM GAS  C:\Users\rbhar\AppData\Local\Temp\ccSrbOLa.s 			page 3


  89:source\bsw/seven.c ****     /* Select 1st Display */
  90:source\bsw/seven.c ****     Pin_Select_Write(SEVEN_DISPLAY1);
  91:source\bsw/seven.c ****     Control_Reg_SevenSegmentLED_Write(LookUpForDisplay[(sizeof(LookUpForDisplay) / sizeof(uint8)) -
  92:source\bsw/seven.c ****     
  93:source\bsw/seven.c ****     return RC_SUCCESS;
  94:source\bsw/seven.c **** }
  95:source\bsw/seven.c **** 
  96:source\bsw/seven.c **** 
  97:source\bsw/seven.c **** /**
  98:source\bsw/seven.c ****  * The function clears the displays.
  99:source\bsw/seven.c ****  * @param void
 100:source\bsw/seven.c ****  * @return the displays are reset.
 101:source\bsw/seven.c ****  */
 102:source\bsw/seven.c **** RC_t SEVEN_clear(void)
 103:source\bsw/seven.c **** {   
 104:source\bsw/seven.c ****     return (SEVEN_init());
 105:source\bsw/seven.c **** }
 106:source\bsw/seven.c **** 
 107:source\bsw/seven.c **** /**
 108:source\bsw/seven.c ****  * The function takes the number as an input and updates on to the display.
 109:source\bsw/seven.c ****  * @param uint8 Value       : IN 0 - 0xF
 110:source\bsw/seven.c ****  * @return Updates the seven segment display with the values.
 111:source\bsw/seven.c ****  */
 112:source\bsw/seven.c **** static RC_t SEVEN_Set(eSegments_t DisplayNo, uint8 Value)
 113:source\bsw/seven.c **** {
  27              		.loc 1 113 0
  28              		.cfi_startproc
  29              		@ args = 0, pretend = 0, frame = 0
  30              		@ frame_needed = 0, uses_anonymous_args = 0
  31              	.LVL0:
  32 0000 10B5     		push	{r4, lr}
  33              		.cfi_def_cfa_offset 8
  34              		.cfi_offset 4, -8
  35              		.cfi_offset 14, -4
  36 0002 0C46     		mov	r4, r1
  37              	.LVL1:
 114:source\bsw/seven.c ****     uint8 NoToDisplay = 0;
 115:source\bsw/seven.c ****     /* Select the Display */
 116:source\bsw/seven.c ****     Pin_Select_Write(DisplayNo);
  38              		.loc 1 116 0
  39 0004 FFF7FEFF 		bl	Pin_Select_Write
  40              	.LVL2:
 117:source\bsw/seven.c ****     
 118:source\bsw/seven.c ****     NoToDisplay = LookUpForDisplay[Value & MASK_MSB_UINT8];
  41              		.loc 1 118 0
  42 0008 04F00F04 		and	r4, r4, #15
  43              	.LVL3:
 119:source\bsw/seven.c **** 
 120:source\bsw/seven.c ****     Control_Reg_SevenSegmentLED_Write(NoToDisplay);
  44              		.loc 1 120 0
  45 000c 024B     		ldr	r3, .L3
  46 000e 185D     		ldrb	r0, [r3, r4]	@ zero_extendqisi2
  47 0010 FFF7FEFF 		bl	Control_Reg_SevenSegmentLED_Write
  48              	.LVL4:
 121:source\bsw/seven.c **** 
 122:source\bsw/seven.c ****     return RC_SUCCESS;
 123:source\bsw/seven.c **** }
ARM GAS  C:\Users\rbhar\AppData\Local\Temp\ccSrbOLa.s 			page 4


  49              		.loc 1 123 0
  50 0014 0020     		movs	r0, #0
  51 0016 10BD     		pop	{r4, pc}
  52              	.LVL5:
  53              	.L4:
  54              		.align	2
  55              	.L3:
  56 0018 00000000 		.word	.LANCHOR0
  57              		.cfi_endproc
  58              	.LFE65:
  59              		.size	SEVEN_Set, .-SEVEN_Set
  60              		.section	.text.SEVEN_init,"ax",%progbits
  61              		.align	2
  62              		.global	SEVEN_init
  63              		.thumb
  64              		.thumb_func
  65              		.type	SEVEN_init, %function
  66              	SEVEN_init:
  67              	.LFB63:
  82:source\bsw/seven.c ****     Pin_Display_Write(SEGMENT_ON);
  68              		.loc 1 82 0
  69              		.cfi_startproc
  70              		@ args = 0, pretend = 0, frame = 0
  71              		@ frame_needed = 0, uses_anonymous_args = 0
  72 0000 08B5     		push	{r3, lr}
  73              		.cfi_def_cfa_offset 8
  74              		.cfi_offset 3, -8
  75              		.cfi_offset 14, -4
  83:source\bsw/seven.c ****     
  76              		.loc 1 83 0
  77 0002 0120     		movs	r0, #1
  78 0004 FFF7FEFF 		bl	Pin_Display_Write
  79              	.LVL6:
  86:source\bsw/seven.c ****     Control_Reg_SevenSegmentLED_Write(LookUpForDisplay[(sizeof(LookUpForDisplay) / sizeof(uint8)) -
  80              		.loc 1 86 0
  81 0008 0020     		movs	r0, #0
  82 000a FFF7FEFF 		bl	Pin_Select_Write
  83              	.LVL7:
  87:source\bsw/seven.c ****     
  84              		.loc 1 87 0
  85 000e 0020     		movs	r0, #0
  86 0010 FFF7FEFF 		bl	Control_Reg_SevenSegmentLED_Write
  87              	.LVL8:
  90:source\bsw/seven.c ****     Control_Reg_SevenSegmentLED_Write(LookUpForDisplay[(sizeof(LookUpForDisplay) / sizeof(uint8)) -
  88              		.loc 1 90 0
  89 0014 0120     		movs	r0, #1
  90 0016 FFF7FEFF 		bl	Pin_Select_Write
  91              	.LVL9:
  91:source\bsw/seven.c ****     
  92              		.loc 1 91 0
  93 001a 0020     		movs	r0, #0
  94 001c FFF7FEFF 		bl	Control_Reg_SevenSegmentLED_Write
  95              	.LVL10:
  94:source\bsw/seven.c **** 
  96              		.loc 1 94 0
  97 0020 0020     		movs	r0, #0
  98 0022 08BD     		pop	{r3, pc}
ARM GAS  C:\Users\rbhar\AppData\Local\Temp\ccSrbOLa.s 			page 5


  99              		.cfi_endproc
 100              	.LFE63:
 101              		.size	SEVEN_init, .-SEVEN_init
 102              		.section	.text.SEVEN_clear,"ax",%progbits
 103              		.align	2
 104              		.global	SEVEN_clear
 105              		.thumb
 106              		.thumb_func
 107              		.type	SEVEN_clear, %function
 108              	SEVEN_clear:
 109              	.LFB64:
 103:source\bsw/seven.c ****     return (SEVEN_init());
 110              		.loc 1 103 0
 111              		.cfi_startproc
 112              		@ args = 0, pretend = 0, frame = 0
 113              		@ frame_needed = 0, uses_anonymous_args = 0
 114 0000 08B5     		push	{r3, lr}
 115              		.cfi_def_cfa_offset 8
 116              		.cfi_offset 3, -8
 117              		.cfi_offset 14, -4
 104:source\bsw/seven.c **** }
 118              		.loc 1 104 0
 119 0002 FFF7FEFF 		bl	SEVEN_init
 120              	.LVL11:
 105:source\bsw/seven.c **** 
 121              		.loc 1 105 0
 122 0006 08BD     		pop	{r3, pc}
 123              		.cfi_endproc
 124              	.LFE64:
 125              		.size	SEVEN_clear, .-SEVEN_clear
 126              		.section	.text.SEVEN_Write,"ax",%progbits
 127              		.align	2
 128              		.global	SEVEN_Write
 129              		.thumb
 130              		.thumb_func
 131              		.type	SEVEN_Write, %function
 132              	SEVEN_Write:
 133              	.LFB66:
 124:source\bsw/seven.c **** 
 125:source\bsw/seven.c **** /**
 126:source\bsw/seven.c ****  * The function takes the number as an input and updates on to the displays.
 127:source\bsw/seven.c ****  * @param uint8 Value       : IN 0 - 0xFF
 128:source\bsw/seven.c ****  * @return Updates the seven segment display with the values.
 129:source\bsw/seven.c ****  */
 130:source\bsw/seven.c **** RC_t SEVEN_Write(uint8 Value)
 131:source\bsw/seven.c **** {
 134              		.loc 1 131 0
 135              		.cfi_startproc
 136              		@ args = 0, pretend = 0, frame = 0
 137              		@ frame_needed = 0, uses_anonymous_args = 0
 138              	.LVL12:
 139 0000 10B5     		push	{r4, lr}
 140              		.cfi_def_cfa_offset 8
 141              		.cfi_offset 4, -8
 142              		.cfi_offset 14, -4
 143 0002 0446     		mov	r4, r0
 132:source\bsw/seven.c ****     /* Update 0th display */
ARM GAS  C:\Users\rbhar\AppData\Local\Temp\ccSrbOLa.s 			page 6


 133:source\bsw/seven.c ****     SEVEN_Set(SEVEN_DISPLAY0, Value & MASK_MSB_UINT8);
 144              		.loc 1 133 0
 145 0004 00F00F01 		and	r1, r0, #15
 146 0008 0020     		movs	r0, #0
 147              	.LVL13:
 148 000a FFF7FEFF 		bl	SEVEN_Set
 149              	.LVL14:
 134:source\bsw/seven.c ****     
 135:source\bsw/seven.c ****     /* Update 1st display */
 136:source\bsw/seven.c ****     SEVEN_Set(SEVEN_DISPLAY1, (Value & MASK_LSB_UINT8) >> SHIFT_NIBBLE);
 150              		.loc 1 136 0
 151 000e 2109     		lsrs	r1, r4, #4
 152 0010 0120     		movs	r0, #1
 153 0012 FFF7FEFF 		bl	SEVEN_Set
 154              	.LVL15:
 137:source\bsw/seven.c ****     
 138:source\bsw/seven.c ****     return RC_SUCCESS;
 139:source\bsw/seven.c **** }...
 155              		.loc 1 139 0
 156 0016 0020     		movs	r0, #0
 157 0018 10BD     		pop	{r4, pc}
 158              		.cfi_endproc
 159              	.LFE66:
 160              		.size	SEVEN_Write, .-SEVEN_Write
 161 001a 00BF     		.section	.rodata
 162              		.align	2
 163              		.set	.LANCHOR0,. + 0
 164              		.type	LookUpForDisplay, %object
 165              		.size	LookUpForDisplay, 17
 166              	LookUpForDisplay:
 167 0000 3F       		.byte	63
 168 0001 06       		.byte	6
 169 0002 5B       		.byte	91
 170 0003 4F       		.byte	79
 171 0004 66       		.byte	102
 172 0005 6D       		.byte	109
 173 0006 7D       		.byte	125
 174 0007 07       		.byte	7
 175 0008 7F       		.byte	127
 176 0009 6F       		.byte	111
 177 000a 77       		.byte	119
 178 000b 7C       		.byte	124
 179 000c 39       		.byte	57
 180 000d 5E       		.byte	94
 181 000e 79       		.byte	121
 182 000f 71       		.byte	113
 183 0010 00       		.byte	0
 184              		.text
 185              	.Letext0:
 186              		.file 2 "c:\\program files (x86)\\cypress\\psoc creator\\4.2\\psoc creator\\import\\gnu\\arm\\5.4.
 187              		.file 3 "c:\\program files (x86)\\cypress\\psoc creator\\4.2\\psoc creator\\import\\gnu\\arm\\5.4.
 188              		.file 4 "Generated_Source\\PSoC5/cytypes.h"
 189              		.file 5 "source\\bsw\\global.h"
 190              		.file 6 "source\\bsw\\seven.h"
 191              		.file 7 "Generated_Source\\PSoC5/Pin_Select.h"
 192              		.file 8 "Generated_Source\\PSoC5/Control_Reg_SevenSegmentLED.h"
 193              		.file 9 "Generated_Source\\PSoC5/Pin_Display.h"
ARM GAS  C:\Users\rbhar\AppData\Local\Temp\ccSrbOLa.s 			page 7


 194              		.file 10 "Generated_Source\\PSoC5/core_cm3.h"