ARM GAS  C:\Users\rbhar\AppData\Local\Temp\cczd1ZdJ.s 			page 1


   1              		.syntax unified
   2              		.cpu cortex-m3
   3              		.fpu softvfp
   4              		.eabi_attribute 20, 1
   5              		.eabi_attribute 21, 1
   6              		.eabi_attribute 23, 3
   7              		.eabi_attribute 24, 1
   8              		.eabi_attribute 25, 1
   9              		.eabi_attribute 26, 1
  10              		.eabi_attribute 30, 1
  11              		.eabi_attribute 34, 1
  12              		.eabi_attribute 18, 4
  13              		.thumb
  14              		.syntax unified
  15              		.file	"Timer.c"
  16              		.text
  17              	.Ltext0:
  18              		.cfi_sections	.debug_frame
  19              		.section	.text.BSW_TimeCallBack,"ax",%progbits
  20              		.align	2
  21              		.global	BSW_TimeCallBack
  22              		.thumb
  23              		.thumb_func
  24              		.type	BSW_TimeCallBack, %function
  25              	BSW_TimeCallBack:
  26              	.LFB63:
  27              		.file 1 "source\\bsw\\Timer.c"
   1:source\bsw/Timer.c **** /**
   2:source\bsw/Timer.c **** * \file <Timer.c>
   3:source\bsw/Timer.c **** * \author <Bharath Ramachandraiah>
   4:source\bsw/Timer.c **** * \date <25/09/2018>
   5:source\bsw/Timer.c **** *
   6:source\bsw/Timer.c **** * \brief <Symbolic File name>
   7:source\bsw/Timer.c **** *
   8:source\bsw/Timer.c **** * \copyright Copyright ©2016
   9:source\bsw/Timer.c **** * Department of electrical engineering and information technology, Hochschule Darmstadt - Universit
  10:source\bsw/Timer.c **** * Permission to use, copy, modify, and distribute this software and its documentation for education
  11:source\bsw/Timer.c **** * (unless permitted by h_da) and official h_da projects, is hereby granted for enrolled students of
  12:source\bsw/Timer.c **** * this paragraph and the following paragraph appear in all copies, modifications, and distributions
  13:source\bsw/Timer.c **** * Contact Prof.Dr.-Ing. Peter Fromm, peter.fromm@h-da.de, Birkenweg 8 64295 Darmstadt - GERMANY for
  14:source\bsw/Timer.c **** *
  15:source\bsw/Timer.c **** * \warning This software is a PROTOTYPE version and is not designed or intended for use in producti
  16:source\bsw/Timer.c **** * The user represents and warrants that it will NOT use or redistribute the Software for such purpo
  17:source\bsw/Timer.c **** * This prototype is for research purposes only. This software is provided "AS IS," without a warran
  18:source\bsw/Timer.c **** */
  19:source\bsw/Timer.c **** 
  20:source\bsw/Timer.c **** /*****************************************************************************/
  21:source\bsw/Timer.c **** /* Include files                                                             */
  22:source\bsw/Timer.c **** /*****************************************************************************/
  23:source\bsw/Timer.c **** #include "global.h"
  24:source\bsw/Timer.c **** #include "Timer.h"
  25:source\bsw/Timer.c **** #include "Button.h"
  26:source\bsw/Timer.c **** 
  27:source\bsw/Timer.c **** /*****************************************************************************/
  28:source\bsw/Timer.c **** /* Local pre-processor symbols/macros ('#define')                            */
  29:source\bsw/Timer.c **** /*****************************************************************************/
  30:source\bsw/Timer.c **** 
ARM GAS  C:\Users\rbhar\AppData\Local\Temp\cczd1ZdJ.s 			page 2


  31:source\bsw/Timer.c **** 
  32:source\bsw/Timer.c **** /*****************************************************************************/
  33:source\bsw/Timer.c **** /* Global variable definitions (declared in header file with 'extern')       */
  34:source\bsw/Timer.c **** /*****************************************************************************/
  35:source\bsw/Timer.c **** 
  36:source\bsw/Timer.c **** /*****************************************************************************/
  37:source\bsw/Timer.c **** /* Local type definitions ('typedef')                                        */
  38:source\bsw/Timer.c **** /*****************************************************************************/
  39:source\bsw/Timer.c **** 
  40:source\bsw/Timer.c **** /*****************************************************************************/
  41:source\bsw/Timer.c **** /* Local variable definitions ('static')                                     */
  42:source\bsw/Timer.c **** /*****************************************************************************/
  43:source\bsw/Timer.c **** static volatile uint32_t SYS_TimeMeasure_1s = 0;
  44:source\bsw/Timer.c **** static volatile uint32_t SYS_TimeMeasure_1ms = 0, CurrentTimeMeasure_ms = 0;
  45:source\bsw/Timer.c **** 
  46:source\bsw/Timer.c **** 
  47:source\bsw/Timer.c **** /*****************************************************************************/
  48:source\bsw/Timer.c **** /* Local function prototypes ('static')                                      */
  49:source\bsw/Timer.c **** /*****************************************************************************/
  50:source\bsw/Timer.c **** 
  51:source\bsw/Timer.c **** 
  52:source\bsw/Timer.c **** /*****************************************************************************/
  53:source\bsw/Timer.c **** /* Function implementation - global ('extern') and local ('static')          */
  54:source\bsw/Timer.c **** /*****************************************************************************/
  55:source\bsw/Timer.c **** 
  56:source\bsw/Timer.c **** /**
  57:source\bsw/Timer.c ****  * This is a callback function for Timer overrun. The process of the ISR is
  58:source\bsw/Timer.c ****  * done here.
  59:source\bsw/Timer.c ****  * @param void
  60:source\bsw/Timer.c ****  * @return void
  61:source\bsw/Timer.c ****  */
  62:source\bsw/Timer.c **** void BSW_TimeCallBack(void)
  63:source\bsw/Timer.c **** {
  28              		.loc 1 63 0
  29              		.cfi_startproc
  30              		@ args = 0, pretend = 0, frame = 0
  31              		@ frame_needed = 0, uses_anonymous_args = 0
  32              		@ link register save eliminated.
  64:source\bsw/Timer.c ****     static volatile uint32_t SYS_TickCounter_1ms = 0;
  65:source\bsw/Timer.c ****     
  66:source\bsw/Timer.c ****     if (SYS_TickCounter_1ms >= 1000)
  33              		.loc 1 66 0
  34 0000 094B     		ldr	r3, .L3
  35 0002 1B68     		ldr	r3, [r3]
  36 0004 B3F57A7F 		cmp	r3, #1000
  37 0008 05D3     		bcc	.L2
  67:source\bsw/Timer.c ****     {
  68:source\bsw/Timer.c ****         SYS_TickCounter_1ms = 0;
  38              		.loc 1 68 0
  39 000a 074B     		ldr	r3, .L3
  40 000c 0022     		movs	r2, #0
  41 000e 1A60     		str	r2, [r3]
  69:source\bsw/Timer.c ****         SYS_TimeMeasure_1s++;
  42              		.loc 1 69 0
  43 0010 5A68     		ldr	r2, [r3, #4]
  44 0012 0132     		adds	r2, r2, #1
  45 0014 5A60     		str	r2, [r3, #4]
ARM GAS  C:\Users\rbhar\AppData\Local\Temp\cczd1ZdJ.s 			page 3


  46              	.L2:
  70:source\bsw/Timer.c ****     }
  71:source\bsw/Timer.c ****     
  72:source\bsw/Timer.c ****     /* Increment Counters */
  73:source\bsw/Timer.c ****     SYS_TickCounter_1ms++;
  47              		.loc 1 73 0
  48 0016 044B     		ldr	r3, .L3
  49 0018 1A68     		ldr	r2, [r3]
  50 001a 0132     		adds	r2, r2, #1
  51 001c 1A60     		str	r2, [r3]
  74:source\bsw/Timer.c ****     SYS_TimeMeasure_1ms++;
  52              		.loc 1 74 0
  53 001e 9A68     		ldr	r2, [r3, #8]
  54 0020 0132     		adds	r2, r2, #1
  55 0022 9A60     		str	r2, [r3, #8]
  56 0024 7047     		bx	lr
  57              	.L4:
  58 0026 00BF     		.align	2
  59              	.L3:
  60 0028 00000000 		.word	.LANCHOR0
  61              		.cfi_endproc
  62              	.LFE63:
  63              		.size	BSW_TimeCallBack, .-BSW_TimeCallBack
  64              		.section	.text.DelayGenerator,"ax",%progbits
  65              		.align	2
  66              		.global	DelayGenerator
  67              		.thumb
  68              		.thumb_func
  69              		.type	DelayGenerator, %function
  70              	DelayGenerator:
  71              	.LFB64:
  75:source\bsw/Timer.c ****     
  76:source\bsw/Timer.c ****     return;
  77:source\bsw/Timer.c **** }
  78:source\bsw/Timer.c **** 
  79:source\bsw/Timer.c **** /**
  80:source\bsw/Timer.c ****  * A function to produce a random delay.
  81:source\bsw/Timer.c ****  * done here.
  82:source\bsw/Timer.c ****  * @param uint8_t Delay         : IN Delay in seconds
  83:source\bsw/Timer.c ****  * @return provides a random delay.
  84:source\bsw/Timer.c ****  */
  85:source\bsw/Timer.c **** void DelayGenerator(uint8_t Delay)
  86:source\bsw/Timer.c **** {
  72              		.loc 1 86 0
  73              		.cfi_startproc
  74              		@ args = 0, pretend = 0, frame = 0
  75              		@ frame_needed = 0, uses_anonymous_args = 0
  76              		@ link register save eliminated.
  77              	.LVL0:
  87:source\bsw/Timer.c ****     SYS_TimeMeasure_1s = 0;
  78              		.loc 1 87 0
  79 0000 0022     		movs	r2, #0
  80 0002 034B     		ldr	r3, .L7
  81 0004 5A60     		str	r2, [r3, #4]
  82              	.L6:
  88:source\bsw/Timer.c ****     
  89:source\bsw/Timer.c ****     /* Produce Random Delay */
ARM GAS  C:\Users\rbhar\AppData\Local\Temp\cczd1ZdJ.s 			page 4


  90:source\bsw/Timer.c ****     while (SYS_TimeMeasure_1s < Delay);
  83              		.loc 1 90 0 discriminator 1
  84 0006 024B     		ldr	r3, .L7
  85 0008 5B68     		ldr	r3, [r3, #4]
  86 000a 9842     		cmp	r0, r3
  87 000c FBD8     		bhi	.L6
  91:source\bsw/Timer.c ****     
  92:source\bsw/Timer.c ****     return;
  93:source\bsw/Timer.c **** }
  88              		.loc 1 93 0
  89 000e 7047     		bx	lr
  90              	.L8:
  91              		.align	2
  92              	.L7:
  93 0010 00000000 		.word	.LANCHOR0
  94              		.cfi_endproc
  95              	.LFE64:
  96              		.size	DelayGenerator, .-DelayGenerator
  97              		.section	.text.StartTimerMeasurement,"ax",%progbits
  98              		.align	2
  99              		.global	StartTimerMeasurement
 100              		.thumb
 101              		.thumb_func
 102              		.type	StartTimerMeasurement, %function
 103              	StartTimerMeasurement:
 104              	.LFB65:
  94:source\bsw/Timer.c **** 
  95:source\bsw/Timer.c **** /**
  96:source\bsw/Timer.c ****  * A function to start the timer measurement.
  97:source\bsw/Timer.c ****  * @param void
  98:source\bsw/Timer.c ****  * @return internal timer counter is reset.
  99:source\bsw/Timer.c ****  */
 100:source\bsw/Timer.c **** void StartTimerMeasurement(void)
 101:source\bsw/Timer.c **** {
 105              		.loc 1 101 0
 106              		.cfi_startproc
 107              		@ args = 0, pretend = 0, frame = 0
 108              		@ frame_needed = 0, uses_anonymous_args = 0
 109              		@ link register save eliminated.
 102:source\bsw/Timer.c ****     SYS_TimeMeasure_1ms = 0;
 110              		.loc 1 102 0
 111 0000 024B     		ldr	r3, .L10
 112 0002 0022     		movs	r2, #0
 113 0004 9A60     		str	r2, [r3, #8]
 103:source\bsw/Timer.c ****     CurrentTimeMeasure_ms = 0;
 114              		.loc 1 103 0
 115 0006 DA60     		str	r2, [r3, #12]
 116 0008 7047     		bx	lr
 117              	.L11:
 118 000a 00BF     		.align	2
 119              	.L10:
 120 000c 00000000 		.word	.LANCHOR0
 121              		.cfi_endproc
 122              	.LFE65:
 123              		.size	StartTimerMeasurement, .-StartTimerMeasurement
 124              		.section	.text.StopTimerMeasurement,"ax",%progbits
 125              		.align	2
ARM GAS  C:\Users\rbhar\AppData\Local\Temp\cczd1ZdJ.s 			page 5


 126              		.global	StopTimerMeasurement
 127              		.thumb
 128              		.thumb_func
 129              		.type	StopTimerMeasurement, %function
 130              	StopTimerMeasurement:
 131              	.LFB66:
 104:source\bsw/Timer.c ****     
 105:source\bsw/Timer.c ****     return;
 106:source\bsw/Timer.c **** }
 107:source\bsw/Timer.c **** 
 108:source\bsw/Timer.c **** /**
 109:source\bsw/Timer.c ****  * A function to stop the timer measurement.
 110:source\bsw/Timer.c ****  * @param void
 111:source\bsw/Timer.c ****  * @return internal timer counter is read.
 112:source\bsw/Timer.c ****  */
 113:source\bsw/Timer.c **** void StopTimerMeasurement(void)
 114:source\bsw/Timer.c **** {
 132              		.loc 1 114 0
 133              		.cfi_startproc
 134              		@ args = 0, pretend = 0, frame = 0
 135              		@ frame_needed = 0, uses_anonymous_args = 0
 136              		@ link register save eliminated.
 115:source\bsw/Timer.c ****     CurrentTimeMeasure_ms = SYS_TimeMeasure_1ms;
 137              		.loc 1 115 0
 138 0000 014B     		ldr	r3, .L13
 139 0002 9A68     		ldr	r2, [r3, #8]
 140 0004 DA60     		str	r2, [r3, #12]
 141 0006 7047     		bx	lr
 142              	.L14:
 143              		.align	2
 144              	.L13:
 145 0008 00000000 		.word	.LANCHOR0
 146              		.cfi_endproc
 147              	.LFE66:
 148              		.size	StopTimerMeasurement, .-StopTimerMeasurement
 149              		.section	.text.GetTimerMeasurement,"ax",%progbits
 150              		.align	2
 151              		.global	GetTimerMeasurement
 152              		.thumb
 153              		.thumb_func
 154              		.type	GetTimerMeasurement, %function
 155              	GetTimerMeasurement:
 156              	.LFB67:
 116:source\bsw/Timer.c ****     
 117:source\bsw/Timer.c ****     return;
 118:source\bsw/Timer.c **** }
 119:source\bsw/Timer.c **** 
 120:source\bsw/Timer.c **** /**
 121:source\bsw/Timer.c ****  * A function to get the timer measurement.
 122:source\bsw/Timer.c ****  * @param void
 123:source\bsw/Timer.c ****  * @return the time measured between start and stop.
 124:source\bsw/Timer.c ****  */
 125:source\bsw/Timer.c **** uint32_t GetTimerMeasurement(void)
 126:source\bsw/Timer.c **** {
 157              		.loc 1 126 0
 158              		.cfi_startproc
 159              		@ args = 0, pretend = 0, frame = 0
ARM GAS  C:\Users\rbhar\AppData\Local\Temp\cczd1ZdJ.s 			page 6


 160              		@ frame_needed = 0, uses_anonymous_args = 0
 161              		@ link register save eliminated.
 127:source\bsw/Timer.c ****     return CurrentTimeMeasure_ms;
 162              		.loc 1 127 0
 163 0000 014B     		ldr	r3, .L16
 164 0002 D868     		ldr	r0, [r3, #12]
 128:source\bsw/Timer.c **** }...
 165              		.loc 1 128 0
 166 0004 7047     		bx	lr
 167              	.L17:
 168 0006 00BF     		.align	2
 169              	.L16:
 170 0008 00000000 		.word	.LANCHOR0
 171              		.cfi_endproc
 172              	.LFE67:
 173              		.size	GetTimerMeasurement, .-GetTimerMeasurement
 174              		.bss
 175              		.align	2
 176              		.set	.LANCHOR0,. + 0
 177              		.type	SYS_TickCounter_1ms.6132, %object
 178              		.size	SYS_TickCounter_1ms.6132, 4
 179              	SYS_TickCounter_1ms.6132:
 180 0000 00000000 		.space	4
 181              		.type	SYS_TimeMeasure_1s, %object
 182              		.size	SYS_TimeMeasure_1s, 4
 183              	SYS_TimeMeasure_1s:
 184 0004 00000000 		.space	4
 185              		.type	SYS_TimeMeasure_1ms, %object
 186              		.size	SYS_TimeMeasure_1ms, 4
 187              	SYS_TimeMeasure_1ms:
 188 0008 00000000 		.space	4
 189              		.type	CurrentTimeMeasure_ms, %object
 190              		.size	CurrentTimeMeasure_ms, 4
 191              	CurrentTimeMeasure_ms:
 192 000c 00000000 		.space	4
 193              		.text
 194              	.Letext0:
 195              		.file 2 "c:\\program files (x86)\\cypress\\psoc creator\\4.2\\psoc creator\\import\\gnu\\arm\\5.4.
 196              		.file 3 "c:\\program files (x86)\\cypress\\psoc creator\\4.2\\psoc creator\\import\\gnu\\arm\\5.4.
 197              		.file 4 "Generated_Source\\PSoC5/core_cm3.h"