ARM GAS  C:\Users\rbhar\AppData\Local\Temp\ccyVjClG.s 			page 1


   1              		.syntax unified
   2              		.cpu cortex-m3
   3              		.fpu softvfp
   4              		.eabi_attribute 20, 1
   5              		.eabi_attribute 21, 1
   6              		.eabi_attribute 23, 3
   7              		.eabi_attribute 24, 1
   8              		.eabi_attribute 25, 1
   9              		.eabi_attribute 26, 1
  10              		.eabi_attribute 30, 1
  11              		.eabi_attribute 34, 1
  12              		.eabi_attribute 18, 4
  13              		.thumb
  14              		.syntax unified
  15              		.file	"ErikaOS_ee_irqendin.c"
  16              		.text
  17              	.Ltext0:
  18              		.cfi_sections	.debug_frame
  19              		.section	.text.EE_IRQ_run_next_task,"ax",%progbits
  20              		.align	2
  21              		.thumb
  22              		.thumb_func
  23              		.type	EE_IRQ_run_next_task, %function
  24              	EE_IRQ_run_next_task:
  25              	.LFB60:
  26              		.file 1 "Generated_Source\\PSoC5\\ErikaOS_ee_irqendin.c"
   1:Generated_Source\PSoC5/ErikaOS_ee_irqendin.c **** /* ###*B*###
   2:Generated_Source\PSoC5/ErikaOS_ee_irqendin.c ****  * ERIKA Enterprise - a tiny RTOS for small microcontrollers
   3:Generated_Source\PSoC5/ErikaOS_ee_irqendin.c ****  *
   4:Generated_Source\PSoC5/ErikaOS_ee_irqendin.c ****  * Copyright (C) 2002-2008  Evidence Srl
   5:Generated_Source\PSoC5/ErikaOS_ee_irqendin.c ****  *
   6:Generated_Source\PSoC5/ErikaOS_ee_irqendin.c ****  * This file is part of ERIKA Enterprise.
   7:Generated_Source\PSoC5/ErikaOS_ee_irqendin.c ****  *
   8:Generated_Source\PSoC5/ErikaOS_ee_irqendin.c ****  * ERIKA Enterprise is free software; you can redistribute it
   9:Generated_Source\PSoC5/ErikaOS_ee_irqendin.c ****  * and/or modify it under the terms of the GNU General Public License
  10:Generated_Source\PSoC5/ErikaOS_ee_irqendin.c ****  * version 2 as published by the Free Software Foundation, 
  11:Generated_Source\PSoC5/ErikaOS_ee_irqendin.c ****  * (with a special exception described below).
  12:Generated_Source\PSoC5/ErikaOS_ee_irqendin.c ****  *
  13:Generated_Source\PSoC5/ErikaOS_ee_irqendin.c ****  * Linking this code statically or dynamically with other modules is
  14:Generated_Source\PSoC5/ErikaOS_ee_irqendin.c ****  * making a combined work based on this code.  Thus, the terms and
  15:Generated_Source\PSoC5/ErikaOS_ee_irqendin.c ****  * conditions of the GNU General Public License cover the whole
  16:Generated_Source\PSoC5/ErikaOS_ee_irqendin.c ****  * combination.
  17:Generated_Source\PSoC5/ErikaOS_ee_irqendin.c ****  *
  18:Generated_Source\PSoC5/ErikaOS_ee_irqendin.c ****  * As a special exception, the copyright holders of this library give you
  19:Generated_Source\PSoC5/ErikaOS_ee_irqendin.c ****  * permission to link this code with independent modules to produce an
  20:Generated_Source\PSoC5/ErikaOS_ee_irqendin.c ****  * executable, regardless of the license terms of these independent
  21:Generated_Source\PSoC5/ErikaOS_ee_irqendin.c ****  * modules, and to copy and distribute the resulting executable under
  22:Generated_Source\PSoC5/ErikaOS_ee_irqendin.c ****  * terms of your choice, provided that you also meet, for each linked
  23:Generated_Source\PSoC5/ErikaOS_ee_irqendin.c ****  * independent module, the terms and conditions of the license of that
  24:Generated_Source\PSoC5/ErikaOS_ee_irqendin.c ****  * module.  An independent module is a module which is not derived from
  25:Generated_Source\PSoC5/ErikaOS_ee_irqendin.c ****  * or based on this library.  If you modify this code, you may extend
  26:Generated_Source\PSoC5/ErikaOS_ee_irqendin.c ****  * this exception to your version of the code, but you are not
  27:Generated_Source\PSoC5/ErikaOS_ee_irqendin.c ****  * obligated to do so.  If you do not wish to do so, delete this
  28:Generated_Source\PSoC5/ErikaOS_ee_irqendin.c ****  * exception statement from your version.
  29:Generated_Source\PSoC5/ErikaOS_ee_irqendin.c ****  *
  30:Generated_Source\PSoC5/ErikaOS_ee_irqendin.c ****  * ERIKA Enterprise is distributed in the hope that it will be
  31:Generated_Source\PSoC5/ErikaOS_ee_irqendin.c ****  * useful, but WITHOUT ANY WARRANTY; without even the implied warranty
ARM GAS  C:\Users\rbhar\AppData\Local\Temp\ccyVjClG.s 			page 2


  32:Generated_Source\PSoC5/ErikaOS_ee_irqendin.c ****  * of MERCHANTABILITY or FITNESS FOR A PARTICULAR PURPOSE.  See the
  33:Generated_Source\PSoC5/ErikaOS_ee_irqendin.c ****  * GNU General Public License version 2 for more details.
  34:Generated_Source\PSoC5/ErikaOS_ee_irqendin.c ****  *
  35:Generated_Source\PSoC5/ErikaOS_ee_irqendin.c ****  * You should have received a copy of the GNU General Public License
  36:Generated_Source\PSoC5/ErikaOS_ee_irqendin.c ****  * version 2 along with ERIKA Enterprise; if not, write to the
  37:Generated_Source\PSoC5/ErikaOS_ee_irqendin.c ****  * Free Software Foundation, Inc., 51 Franklin Street, Fifth Floor,
  38:Generated_Source\PSoC5/ErikaOS_ee_irqendin.c ****  * Boston, MA 02110-1301 USA.
  39:Generated_Source\PSoC5/ErikaOS_ee_irqendin.c ****  * ###*E*### */
  40:Generated_Source\PSoC5/ErikaOS_ee_irqendin.c **** 
  41:Generated_Source\PSoC5/ErikaOS_ee_irqendin.c **** /*
  42:Generated_Source\PSoC5/ErikaOS_ee_irqendin.c ****  * Author: 2002-2004 Paolo Gai
  43:Generated_Source\PSoC5/ErikaOS_ee_irqendin.c ****  * CVS: $Id: ee_irqendin.c,v 1.2 2006/01/24 10:21:14 pj Exp $
  44:Generated_Source\PSoC5/ErikaOS_ee_irqendin.c ****  */
  45:Generated_Source\PSoC5/ErikaOS_ee_irqendin.c **** 
  46:Generated_Source\PSoC5/ErikaOS_ee_irqendin.c **** /*
  47:Generated_Source\PSoC5/ErikaOS_ee_irqendin.c ****  * PSoC Port and API Generation
  48:Generated_Source\PSoC5/ErikaOS_ee_irqendin.c ****  * Carlos Fernando Meier Martinez
  49:Generated_Source\PSoC5/ErikaOS_ee_irqendin.c ****  * Hochschule Darmstadt, Germany. 2017.
  50:Generated_Source\PSoC5/ErikaOS_ee_irqendin.c ****  */
  51:Generated_Source\PSoC5/ErikaOS_ee_irqendin.c **** 
  52:Generated_Source\PSoC5/ErikaOS_ee_irqendin.c **** #include "ErikaOS_ee_internal.inc"
  53:Generated_Source\PSoC5/ErikaOS_ee_irqendin.c **** 
  54:Generated_Source\PSoC5/ErikaOS_ee_irqendin.c **** #if (defined(__OO_ISR2_RESOURCES__)) || (defined(EE_AS_USER_SPINLOCKS__))
  55:Generated_Source\PSoC5/ErikaOS_ee_irqendin.c **** /* Index used to give ISR2 Temporary TID value and to access at
  56:Generated_Source\PSoC5/ErikaOS_ee_irqendin.c ****    EE_isr2_nesting_level array */
  57:Generated_Source\PSoC5/ErikaOS_ee_irqendin.c **** EE_UREG EE_isr2_index = EE_UREG_MINUS1;
  58:Generated_Source\PSoC5/ErikaOS_ee_irqendin.c **** 
  59:Generated_Source\PSoC5/ErikaOS_ee_irqendin.c **** /* Assign a fake TID to an ISR2 to eventually handle resources clean-up */
  60:Generated_Source\PSoC5/ErikaOS_ee_irqendin.c **** EE_TID EE_oo_assign_TID_to_ISR2( void ) {
  61:Generated_Source\PSoC5/ErikaOS_ee_irqendin.c ****   EE_UREG const actual_nesting = EE_hal_get_IRQ_nesting_level();
  62:Generated_Source\PSoC5/ErikaOS_ee_irqendin.c **** 
  63:Generated_Source\PSoC5/ErikaOS_ee_irqendin.c ****   if ( EE_isr2_index == EE_UREG_MINUS1 ) {
  64:Generated_Source\PSoC5/ErikaOS_ee_irqendin.c ****     EE_isr2_index = 0U;
  65:Generated_Source\PSoC5/ErikaOS_ee_irqendin.c ****     EE_isr2_nesting_level[0] = actual_nesting;
  66:Generated_Source\PSoC5/ErikaOS_ee_irqendin.c ****   } else if ( EE_isr2_nesting_level[EE_isr2_index] < actual_nesting ) {
  67:Generated_Source\PSoC5/ErikaOS_ee_irqendin.c ****     ++EE_isr2_index;
  68:Generated_Source\PSoC5/ErikaOS_ee_irqendin.c ****     EE_isr2_nesting_level[EE_isr2_index] = actual_nesting;
  69:Generated_Source\PSoC5/ErikaOS_ee_irqendin.c ****   } else {
  70:Generated_Source\PSoC5/ErikaOS_ee_irqendin.c ****     /* Nothing to do added just for MISRA 2004 Required Rule 14.10 */
  71:Generated_Source\PSoC5/ErikaOS_ee_irqendin.c ****   }
  72:Generated_Source\PSoC5/ErikaOS_ee_irqendin.c **** 
  73:Generated_Source\PSoC5/ErikaOS_ee_irqendin.c ****   return (EE_MAX_TASK + (EE_TID)EE_isr2_index);
  74:Generated_Source\PSoC5/ErikaOS_ee_irqendin.c **** }
  75:Generated_Source\PSoC5/ErikaOS_ee_irqendin.c **** 
  76:Generated_Source\PSoC5/ErikaOS_ee_irqendin.c **** /* [OS369]: If a Category 2 OsIsr calls GetResource() and ends (returns)
  77:Generated_Source\PSoC5/ErikaOS_ee_irqendin.c ****     without calling the corresponding ReleaseResource(), the Operating System
  78:Generated_Source\PSoC5/ErikaOS_ee_irqendin.c ****     shall perform the ReleaseResource() call and shall call the ErrorHook()
  79:Generated_Source\PSoC5/ErikaOS_ee_irqendin.c ****     (if configured) with the status E_OS_RESOURCE. */
  80:Generated_Source\PSoC5/ErikaOS_ee_irqendin.c **** static void EE_IRQ_release_all_items( void );
  81:Generated_Source\PSoC5/ErikaOS_ee_irqendin.c **** static void EE_IRQ_release_all_items( void ) {
  82:Generated_Source\PSoC5/ErikaOS_ee_irqendin.c ****   /* Check if the index is valid -> at least one ISR2 got a resource */
  83:Generated_Source\PSoC5/ErikaOS_ee_irqendin.c ****   if ( EE_isr2_index != EE_UREG_MINUS1 ) {
  84:Generated_Source\PSoC5/ErikaOS_ee_irqendin.c ****     /* N.B This method MUST be called at the end of IRQ post-stub but BEFORE
  85:Generated_Source\PSoC5/ErikaOS_ee_irqendin.c ****        decrementing nesting. */
  86:Generated_Source\PSoC5/ErikaOS_ee_irqendin.c ****     EE_UREG const actual_nesting = EE_hal_get_IRQ_nesting_level();
  87:Generated_Source\PSoC5/ErikaOS_ee_irqendin.c **** 
  88:Generated_Source\PSoC5/ErikaOS_ee_irqendin.c ****     /* Check if this is the right level where do clean-up */
ARM GAS  C:\Users\rbhar\AppData\Local\Temp\ccyVjClG.s 			page 3


  89:Generated_Source\PSoC5/ErikaOS_ee_irqendin.c ****     if ( EE_isr2_nesting_level[EE_isr2_index] == actual_nesting ) {
  90:Generated_Source\PSoC5/ErikaOS_ee_irqendin.c ****       EE_TID current_isr2_tid = (EE_TID)EE_isr2_index + EE_MAX_TASK;
  91:Generated_Source\PSoC5/ErikaOS_ee_irqendin.c **** #ifdef __OO_ISR2_RESOURCES__
  92:Generated_Source\PSoC5/ErikaOS_ee_irqendin.c ****       /* OS369 */
  93:Generated_Source\PSoC5/ErikaOS_ee_irqendin.c ****       if ( EE_oo_release_all_resources(current_isr2_tid) != EE_UREG_MINUS1 ) {
  94:Generated_Source\PSoC5/ErikaOS_ee_irqendin.c ****         EE_ORTI_set_lasterror(E_OS_RESOURCE);
  95:Generated_Source\PSoC5/ErikaOS_ee_irqendin.c ****         EE_oo_notify_error_service(OSId_ISR2Body, E_OS_RESOURCE);
  96:Generated_Source\PSoC5/ErikaOS_ee_irqendin.c ****       }
  97:Generated_Source\PSoC5/ErikaOS_ee_irqendin.c **** #endif /* __OO_ISR2_RESOURCES__ */
  98:Generated_Source\PSoC5/ErikaOS_ee_irqendin.c **** #ifdef EE_AS_USER_SPINLOCKS__
  99:Generated_Source\PSoC5/ErikaOS_ee_irqendin.c ****       /* Force Spinlock Release */
 100:Generated_Source\PSoC5/ErikaOS_ee_irqendin.c ****       if ( EE_as_release_all_spinlocks(current_isr2_tid) !=
 101:Generated_Source\PSoC5/ErikaOS_ee_irqendin.c ****         INVALID_SPINLOCK )
 102:Generated_Source\PSoC5/ErikaOS_ee_irqendin.c ****       {
 103:Generated_Source\PSoC5/ErikaOS_ee_irqendin.c ****         EE_ORTI_set_lasterror(E_OS_SPINLOCK);
 104:Generated_Source\PSoC5/ErikaOS_ee_irqendin.c ****         EE_oo_notify_error_service(OSId_ISR2Body, E_OS_SPINLOCK);
 105:Generated_Source\PSoC5/ErikaOS_ee_irqendin.c ****       }
 106:Generated_Source\PSoC5/ErikaOS_ee_irqendin.c **** #endif /* EE_AS_USER_SPINLOCKS__ */
 107:Generated_Source\PSoC5/ErikaOS_ee_irqendin.c **** 
 108:Generated_Source\PSoC5/ErikaOS_ee_irqendin.c ****       /* Decrement ISR2 index (from 0U to EE_UREG_MINUS1 is handled by
 109:Generated_Source\PSoC5/ErikaOS_ee_irqendin.c ****          unsigned wraparound) */
 110:Generated_Source\PSoC5/ErikaOS_ee_irqendin.c ****       --EE_isr2_index;
 111:Generated_Source\PSoC5/ErikaOS_ee_irqendin.c ****     }
 112:Generated_Source\PSoC5/ErikaOS_ee_irqendin.c ****   }
 113:Generated_Source\PSoC5/ErikaOS_ee_irqendin.c **** }
 114:Generated_Source\PSoC5/ErikaOS_ee_irqendin.c **** #else /* __OO_ISR2_RESOURCES__ || EE_AS_USER_SPINLOCKS__ */
 115:Generated_Source\PSoC5/ErikaOS_ee_irqendin.c **** __INLINE__ void  EE_IRQ_release_all_items( void );
 116:Generated_Source\PSoC5/ErikaOS_ee_irqendin.c **** __INLINE__ void  EE_IRQ_release_all_items( void ) {}
 117:Generated_Source\PSoC5/ErikaOS_ee_irqendin.c **** #endif /* __OO_ISR2_RESOURCES__ || EE_AS_USER_SPINLOCKS__ */
 118:Generated_Source\PSoC5/ErikaOS_ee_irqendin.c **** 
 119:Generated_Source\PSoC5/ErikaOS_ee_irqendin.c **** #ifndef __PRIVATE_IRQ_END_INSTANCE__
 120:Generated_Source\PSoC5/ErikaOS_ee_irqendin.c **** 
 121:Generated_Source\PSoC5/ErikaOS_ee_irqendin.c **** static void EE_IRQ_run_next_task( void );
 122:Generated_Source\PSoC5/ErikaOS_ee_irqendin.c **** 
 123:Generated_Source\PSoC5/ErikaOS_ee_irqendin.c **** #if (defined(__OO_ECC1__)) || (defined(__OO_ECC2__))
 124:Generated_Source\PSoC5/ErikaOS_ee_irqendin.c **** static void EE_IRQ_run_next_task( void )
 125:Generated_Source\PSoC5/ErikaOS_ee_irqendin.c **** {
  27              		.loc 1 125 0
  28              		.cfi_startproc
  29              		@ args = 0, pretend = 0, frame = 0
  30              		@ frame_needed = 0, uses_anonymous_args = 0
  31 0000 08B5     		push	{r3, lr}
  32              		.cfi_def_cfa_offset 8
  33              		.cfi_offset 3, -8
  34              		.cfi_offset 14, -4
 126:Generated_Source\PSoC5/ErikaOS_ee_irqendin.c ****   register EE_TID tnext;
 127:Generated_Source\PSoC5/ErikaOS_ee_irqendin.c ****   tnext = EE_rq2stk_exchange();
  35              		.loc 1 127 0
  36 0002 FFF7FEFF 		bl	EE_rq2stk_exchange
  37              	.LVL0:
 128:Generated_Source\PSoC5/ErikaOS_ee_irqendin.c ****   if ( EE_th_waswaiting[tnext] ) {
  38              		.loc 1 128 0
  39 0006 084B     		ldr	r3, .L5
  40 0008 53F82030 		ldr	r3, [r3, r0, lsl #2]
  41 000c 43B1     		cbz	r3, .L2
 129:Generated_Source\PSoC5/ErikaOS_ee_irqendin.c ****     EE_th_waswaiting[tnext] = EE_FALSE;
  42              		.loc 1 129 0
ARM GAS  C:\Users\rbhar\AppData\Local\Temp\ccyVjClG.s 			page 4


  43 000e 0022     		movs	r2, #0
  44 0010 054B     		ldr	r3, .L5
  45 0012 43F82020 		str	r2, [r3, r0, lsl #2]
  46              	.LVL1:
  47              	.LBB26:
  48              	.LBB27:
  49              		.file 2 "Generated_Source\\PSoC5\\ErikaOS_cortex_mx_ee_context.inc"
   1:Generated_Source\PSoC5/ErikaOS_cortex_mx_ee_context.inc **** /* ###*B*###
   2:Generated_Source\PSoC5/ErikaOS_cortex_mx_ee_context.inc ****  * ERIKA Enterprise - a tiny RTOS for small microcontrollers
   3:Generated_Source\PSoC5/ErikaOS_cortex_mx_ee_context.inc ****  *
   4:Generated_Source\PSoC5/ErikaOS_cortex_mx_ee_context.inc ****  * Copyright (C) 2002-2011  Evidence Srl
   5:Generated_Source\PSoC5/ErikaOS_cortex_mx_ee_context.inc ****  *
   6:Generated_Source\PSoC5/ErikaOS_cortex_mx_ee_context.inc ****  * This file is part of ERIKA Enterprise.
   7:Generated_Source\PSoC5/ErikaOS_cortex_mx_ee_context.inc ****  *
   8:Generated_Source\PSoC5/ErikaOS_cortex_mx_ee_context.inc ****  * ERIKA Enterprise is free software; you can redistribute it
   9:Generated_Source\PSoC5/ErikaOS_cortex_mx_ee_context.inc ****  * and/or modify it under the terms of the GNU General Public License
  10:Generated_Source\PSoC5/ErikaOS_cortex_mx_ee_context.inc ****  * version 2 as published by the Free Software Foundation, 
  11:Generated_Source\PSoC5/ErikaOS_cortex_mx_ee_context.inc ****  * (with a special exception described below).
  12:Generated_Source\PSoC5/ErikaOS_cortex_mx_ee_context.inc ****  *
  13:Generated_Source\PSoC5/ErikaOS_cortex_mx_ee_context.inc ****  * Linking this code statically or dynamically with other modules is
  14:Generated_Source\PSoC5/ErikaOS_cortex_mx_ee_context.inc ****  * making a combined work based on this code.  Thus, the terms and
  15:Generated_Source\PSoC5/ErikaOS_cortex_mx_ee_context.inc ****  * conditions of the GNU General Public License cover the whole
  16:Generated_Source\PSoC5/ErikaOS_cortex_mx_ee_context.inc ****  * combination.
  17:Generated_Source\PSoC5/ErikaOS_cortex_mx_ee_context.inc ****  *
  18:Generated_Source\PSoC5/ErikaOS_cortex_mx_ee_context.inc ****  * As a special exception, the copyright holders of this library give you
  19:Generated_Source\PSoC5/ErikaOS_cortex_mx_ee_context.inc ****  * permission to link this code with independent modules to produce an
  20:Generated_Source\PSoC5/ErikaOS_cortex_mx_ee_context.inc ****  * executable, regardless of the license terms of these independent
  21:Generated_Source\PSoC5/ErikaOS_cortex_mx_ee_context.inc ****  * modules, and to copy and distribute the resulting executable under
  22:Generated_Source\PSoC5/ErikaOS_cortex_mx_ee_context.inc ****  * terms of your choice, provided that you also meet, for each linked
  23:Generated_Source\PSoC5/ErikaOS_cortex_mx_ee_context.inc ****  * independent module, the terms and conditions of the license of that
  24:Generated_Source\PSoC5/ErikaOS_cortex_mx_ee_context.inc ****  * module.  An independent module is a module which is not derived from
  25:Generated_Source\PSoC5/ErikaOS_cortex_mx_ee_context.inc ****  * or based on this library.  If you modify this code, you may extend
  26:Generated_Source\PSoC5/ErikaOS_cortex_mx_ee_context.inc ****  * this exception to your version of the code, but you are not
  27:Generated_Source\PSoC5/ErikaOS_cortex_mx_ee_context.inc ****  * obligated to do so.  If you do not wish to do so, delete this
  28:Generated_Source\PSoC5/ErikaOS_cortex_mx_ee_context.inc ****  * exception statement from your version.
  29:Generated_Source\PSoC5/ErikaOS_cortex_mx_ee_context.inc ****  *
  30:Generated_Source\PSoC5/ErikaOS_cortex_mx_ee_context.inc ****  * ERIKA Enterprise is distributed in the hope that it will be
  31:Generated_Source\PSoC5/ErikaOS_cortex_mx_ee_context.inc ****  * useful, but WITHOUT ANY WARRANTY; without even the implied warranty
  32:Generated_Source\PSoC5/ErikaOS_cortex_mx_ee_context.inc ****  * of MERCHANTABILITY or FITNESS FOR A PARTICULAR PURPOSE.  See the
  33:Generated_Source\PSoC5/ErikaOS_cortex_mx_ee_context.inc ****  * GNU General Public License version 2 for more details.
  34:Generated_Source\PSoC5/ErikaOS_cortex_mx_ee_context.inc ****  *
  35:Generated_Source\PSoC5/ErikaOS_cortex_mx_ee_context.inc ****  * You should have received a copy of the GNU General Public License
  36:Generated_Source\PSoC5/ErikaOS_cortex_mx_ee_context.inc ****  * version 2 along with ERIKA Enterprise; if not, write to the
  37:Generated_Source\PSoC5/ErikaOS_cortex_mx_ee_context.inc ****  * Free Software Foundation, Inc., 51 Franklin Street, Fifth Floor,
  38:Generated_Source\PSoC5/ErikaOS_cortex_mx_ee_context.inc ****  * Boston, MA 02110-1301 USA.
  39:Generated_Source\PSoC5/ErikaOS_cortex_mx_ee_context.inc ****  * ###*E*### */
  40:Generated_Source\PSoC5/ErikaOS_cortex_mx_ee_context.inc **** 
  41:Generated_Source\PSoC5/ErikaOS_cortex_mx_ee_context.inc **** /** 
  42:Generated_Source\PSoC5/ErikaOS_cortex_mx_ee_context.inc **** 	@file ee_internal.h
  43:Generated_Source\PSoC5/ErikaOS_cortex_mx_ee_context.inc **** 	@brief Derived from cpu/common/inc/ee_internal.h
  44:Generated_Source\PSoC5/ErikaOS_cortex_mx_ee_context.inc **** 	@author Gianluca Franchino
  45:Generated_Source\PSoC5/ErikaOS_cortex_mx_ee_context.inc **** 	@author Giuseppe Serano
  46:Generated_Source\PSoC5/ErikaOS_cortex_mx_ee_context.inc **** 	@date 2011
  47:Generated_Source\PSoC5/ErikaOS_cortex_mx_ee_context.inc **** */  
  48:Generated_Source\PSoC5/ErikaOS_cortex_mx_ee_context.inc ****     
  49:Generated_Source\PSoC5/ErikaOS_cortex_mx_ee_context.inc **** /*
  50:Generated_Source\PSoC5/ErikaOS_cortex_mx_ee_context.inc ****  * PSoC Port and API Generation
ARM GAS  C:\Users\rbhar\AppData\Local\Temp\ccyVjClG.s 			page 5


  51:Generated_Source\PSoC5/ErikaOS_cortex_mx_ee_context.inc ****  * Carlos Fernando Meier Martinez
  52:Generated_Source\PSoC5/ErikaOS_cortex_mx_ee_context.inc ****  * Hochschule Darmstadt, Germany. 2017.
  53:Generated_Source\PSoC5/ErikaOS_cortex_mx_ee_context.inc ****  */
  54:Generated_Source\PSoC5/ErikaOS_cortex_mx_ee_context.inc **** 
  55:Generated_Source\PSoC5/ErikaOS_cortex_mx_ee_context.inc **** #ifndef __INCLUDE_CPU_CORTEX_MX_EE_CONTEXT__
  56:Generated_Source\PSoC5/ErikaOS_cortex_mx_ee_context.inc **** #define __INCLUDE_CPU_CORTEX_MX_EE_CONTEXT__
  57:Generated_Source\PSoC5/ErikaOS_cortex_mx_ee_context.inc **** 
  58:Generated_Source\PSoC5/ErikaOS_cortex_mx_ee_context.inc **** /*
  59:Generated_Source\PSoC5/ErikaOS_cortex_mx_ee_context.inc ****  * Instructions
  60:Generated_Source\PSoC5/ErikaOS_cortex_mx_ee_context.inc ****  *
  61:Generated_Source\PSoC5/ErikaOS_cortex_mx_ee_context.inc ****  * The monostack part is complete (obviously, the functions to disable/enable
  62:Generated_Source\PSoC5/ErikaOS_cortex_mx_ee_context.inc ****  *  interrupts are not included here).  For the multistack part you have to
  63:Generated_Source\PSoC5/ErikaOS_cortex_mx_ee_context.inc ****  *  provide two additional things:
  64:Generated_Source\PSoC5/ErikaOS_cortex_mx_ee_context.inc ****  *  1. An assembly implementation of EE_std_change_context_multi(); see below.
  65:Generated_Source\PSoC5/ErikaOS_cortex_mx_ee_context.inc ****  *  2. A #define directive for EE_hal_active_tos, which is just an alias for the
  66:Generated_Source\PSoC5/ErikaOS_cortex_mx_ee_context.inc ****  *  actual architecture-dependent variable.  This variable contains the index of
  67:Generated_Source\PSoC5/ErikaOS_cortex_mx_ee_context.inc ****  *  the current stack.
  68:Generated_Source\PSoC5/ErikaOS_cortex_mx_ee_context.inc ****  */
  69:Generated_Source\PSoC5/ErikaOS_cortex_mx_ee_context.inc **** 
  70:Generated_Source\PSoC5/ErikaOS_cortex_mx_ee_context.inc **** /* After a task terminates, the scheduler puts the id of the new task to launch
  71:Generated_Source\PSoC5/ErikaOS_cortex_mx_ee_context.inc ****  * or switch to in this variable.  If the is stacked, its id is marked so. */
  72:Generated_Source\PSoC5/ErikaOS_cortex_mx_ee_context.inc **** extern EE_TID EE_std_endcycle_next_tid;
  73:Generated_Source\PSoC5/ErikaOS_cortex_mx_ee_context.inc **** 
  74:Generated_Source\PSoC5/ErikaOS_cortex_mx_ee_context.inc **** /* The multistack version must be implemented in ASM; no standard
  75:Generated_Source\PSoC5/ErikaOS_cortex_mx_ee_context.inc ****  * implementation, sorry.  This is the only function that performs context
  76:Generated_Source\PSoC5/ErikaOS_cortex_mx_ee_context.inc ****  * switching.  The multistack version doesn't jump to the task body if its TID
  77:Generated_Source\PSoC5/ErikaOS_cortex_mx_ee_context.inc ****  * has been maked as stacked.  This is used to switch to a task that has been
  78:Generated_Source\PSoC5/ErikaOS_cortex_mx_ee_context.inc ****  * suspend by a previous call to EE_std_change_contex(). */
  79:Generated_Source\PSoC5/ErikaOS_cortex_mx_ee_context.inc **** void EE_cortex_mx_change_context(EE_TID tid);
  80:Generated_Source\PSoC5/ErikaOS_cortex_mx_ee_context.inc **** /* Pseudo code for EE_std_change_context_multi():
  81:Generated_Source\PSoC5/ErikaOS_cortex_mx_ee_context.inc ****      begin:
  82:Generated_Source\PSoC5/ErikaOS_cortex_mx_ee_context.inc ****       tos_index = EE_std_thread_tos[tid+1];
  83:Generated_Source\PSoC5/ErikaOS_cortex_mx_ee_context.inc ****       if is_not_the_current_stack(tos_index) {
  84:Generated_Source\PSoC5/ErikaOS_cortex_mx_ee_context.inc ****           save_caller_saved_registers();
  85:Generated_Source\PSoC5/ErikaOS_cortex_mx_ee_context.inc ****           switch_stacks(tos_index);
  86:Generated_Source\PSoC5/ErikaOS_cortex_mx_ee_context.inc ****           restore_caller_saved_registers();
  87:Generated_Source\PSoC5/ErikaOS_cortex_mx_ee_context.inc ****       }
  88:Generated_Source\PSoC5/ErikaOS_cortex_mx_ee_context.inc ****       if (is_not_marked_stacked(tid)) {
  89:Generated_Source\PSoC5/ErikaOS_cortex_mx_ee_context.inc ****           tid = EE_std_run_task_code(tid);
  90:Generated_Source\PSoC5/ErikaOS_cortex_mx_ee_context.inc ****           goto begin;
  91:Generated_Source\PSoC5/ErikaOS_cortex_mx_ee_context.inc ****       }
  92:Generated_Source\PSoC5/ErikaOS_cortex_mx_ee_context.inc **** 
  93:Generated_Source\PSoC5/ErikaOS_cortex_mx_ee_context.inc ****       Please notice that the "goto begin" is actually a recursive call to
  94:Generated_Source\PSoC5/ErikaOS_cortex_mx_ee_context.inc ****       EE_std_change_context_multi(), but in this way there is no stack growing.
  95:Generated_Source\PSoC5/ErikaOS_cortex_mx_ee_context.inc ****       
  96:Generated_Source\PSoC5/ErikaOS_cortex_mx_ee_context.inc ****       Please notice also that 'tid' must NOT be saved onto the stack before
  97:Generated_Source\PSoC5/ErikaOS_cortex_mx_ee_context.inc ****       switching stacks, otherwise when switching from another stack back to the
  98:Generated_Source\PSoC5/ErikaOS_cortex_mx_ee_context.inc ****       current one, you would overwrite its value.
  99:Generated_Source\PSoC5/ErikaOS_cortex_mx_ee_context.inc **** 
 100:Generated_Source\PSoC5/ErikaOS_cortex_mx_ee_context.inc ****       For processors where the return address is saved in a register, that
 101:Generated_Source\PSoC5/ErikaOS_cortex_mx_ee_context.inc ****       register must be saved in the stack too.
 102:Generated_Source\PSoC5/ErikaOS_cortex_mx_ee_context.inc **** 
 103:Generated_Source\PSoC5/ErikaOS_cortex_mx_ee_context.inc ****       switch_stacks() should also update EE_hal_active_tos.
 104:Generated_Source\PSoC5/ErikaOS_cortex_mx_ee_context.inc **** */
 105:Generated_Source\PSoC5/ErikaOS_cortex_mx_ee_context.inc **** 
 106:Generated_Source\PSoC5/ErikaOS_cortex_mx_ee_context.inc **** /* Call a the body of a task */
 107:Generated_Source\PSoC5/ErikaOS_cortex_mx_ee_context.inc **** #if defined(__OO_BCC1__) || defined(__OO_BCC2__) || \
ARM GAS  C:\Users\rbhar\AppData\Local\Temp\ccyVjClG.s 			page 6


 108:Generated_Source\PSoC5/ErikaOS_cortex_mx_ee_context.inc ****  defined(__OO_ECC1__) || defined(__OO_ECC2__)
 109:Generated_Source\PSoC5/ErikaOS_cortex_mx_ee_context.inc **** #define EE_call_task_body(tid)  EE_oo_thread_stub()
 110:Generated_Source\PSoC5/ErikaOS_cortex_mx_ee_context.inc **** #else
 111:Generated_Source\PSoC5/ErikaOS_cortex_mx_ee_context.inc **** #define EE_call_task_body(tid)  (((void (*)(void))EE_hal_thread_body[tid])())
 112:Generated_Source\PSoC5/ErikaOS_cortex_mx_ee_context.inc **** #endif
 113:Generated_Source\PSoC5/ErikaOS_cortex_mx_ee_context.inc **** 
 114:Generated_Source\PSoC5/ErikaOS_cortex_mx_ee_context.inc **** 
 115:Generated_Source\PSoC5/ErikaOS_cortex_mx_ee_context.inc **** /* Launch a new task, possibly switching to a different stack, clean up the task
 116:Generated_Source\PSoC5/ErikaOS_cortex_mx_ee_context.inc ****  * after it ends, and call the scheduler (and switch to other tasks/stacks)
 117:Generated_Source\PSoC5/ErikaOS_cortex_mx_ee_context.inc ****  * until there are no more tasks to switch to.  In the multistack version, also
 118:Generated_Source\PSoC5/ErikaOS_cortex_mx_ee_context.inc ****  * change the current stack before returning if the scheduler asks for it. */
 119:Generated_Source\PSoC5/ErikaOS_cortex_mx_ee_context.inc **** __DECLARE_INLINE__ void EE_hal_ready2stacked(EE_TID tid);
 120:Generated_Source\PSoC5/ErikaOS_cortex_mx_ee_context.inc **** 
 121:Generated_Source\PSoC5/ErikaOS_cortex_mx_ee_context.inc **** 
 122:Generated_Source\PSoC5/ErikaOS_cortex_mx_ee_context.inc **** /* Launch a new task on the current stack, clean up the task after it ends, and
 123:Generated_Source\PSoC5/ErikaOS_cortex_mx_ee_context.inc ****  * call the scheduler.  Return the next task to launch, which is "marked as
 124:Generated_Source\PSoC5/ErikaOS_cortex_mx_ee_context.inc ****  * stacked" if there is no new task to launch. */
 125:Generated_Source\PSoC5/ErikaOS_cortex_mx_ee_context.inc **** EE_TID EE_std_run_task_code(EE_TID tid);
 126:Generated_Source\PSoC5/ErikaOS_cortex_mx_ee_context.inc **** 
 127:Generated_Source\PSoC5/ErikaOS_cortex_mx_ee_context.inc **** 
 128:Generated_Source\PSoC5/ErikaOS_cortex_mx_ee_context.inc **** /*
 129:Generated_Source\PSoC5/ErikaOS_cortex_mx_ee_context.inc ****  * Inline implementations
 130:Generated_Source\PSoC5/ErikaOS_cortex_mx_ee_context.inc ****  */
 131:Generated_Source\PSoC5/ErikaOS_cortex_mx_ee_context.inc **** 
 132:Generated_Source\PSoC5/ErikaOS_cortex_mx_ee_context.inc **** 
 133:Generated_Source\PSoC5/ErikaOS_cortex_mx_ee_context.inc **** #ifdef __MONO__
 134:Generated_Source\PSoC5/ErikaOS_cortex_mx_ee_context.inc **** 
 135:Generated_Source\PSoC5/ErikaOS_cortex_mx_ee_context.inc **** /* With monostack, we need only the information that the task is stacked.  We
 136:Generated_Source\PSoC5/ErikaOS_cortex_mx_ee_context.inc ****  * don't need to know which task it is, as there is no new stack to switch
 137:Generated_Source\PSoC5/ErikaOS_cortex_mx_ee_context.inc ****  * to. */
 138:Generated_Source\PSoC5/ErikaOS_cortex_mx_ee_context.inc **** #define EE_std_mark_tid_stacked(tid) ((EE_TID)-1)
 139:Generated_Source\PSoC5/ErikaOS_cortex_mx_ee_context.inc **** 
 140:Generated_Source\PSoC5/ErikaOS_cortex_mx_ee_context.inc **** #define EE_std_need_context_change(tid) ((tid) >= 0)
 141:Generated_Source\PSoC5/ErikaOS_cortex_mx_ee_context.inc **** 
 142:Generated_Source\PSoC5/ErikaOS_cortex_mx_ee_context.inc **** #endif /* __MONO__ */
 143:Generated_Source\PSoC5/ErikaOS_cortex_mx_ee_context.inc **** 
 144:Generated_Source\PSoC5/ErikaOS_cortex_mx_ee_context.inc **** 
 145:Generated_Source\PSoC5/ErikaOS_cortex_mx_ee_context.inc **** #ifdef __MULTI__
 146:Generated_Source\PSoC5/ErikaOS_cortex_mx_ee_context.inc **** 
 147:Generated_Source\PSoC5/ErikaOS_cortex_mx_ee_context.inc **** /* TID_IS_STACKED_MARK must set the most significative bit */
 148:Generated_Source\PSoC5/ErikaOS_cortex_mx_ee_context.inc **** #define EE_std_mark_tid_stacked(tid) ((tid) | (EE_TID)TID_IS_STACKED_MARK)
 149:Generated_Source\PSoC5/ErikaOS_cortex_mx_ee_context.inc **** 
 150:Generated_Source\PSoC5/ErikaOS_cortex_mx_ee_context.inc **** extern int EE_std_need_context_change(EE_TID tid);
 151:Generated_Source\PSoC5/ErikaOS_cortex_mx_ee_context.inc **** 
 152:Generated_Source\PSoC5/ErikaOS_cortex_mx_ee_context.inc **** __INLINE__ void  EE_hal_stkchange(EE_TID tid)
 153:Generated_Source\PSoC5/ErikaOS_cortex_mx_ee_context.inc **** {
 154:Generated_Source\PSoC5/ErikaOS_cortex_mx_ee_context.inc ****     EE_cortex_mx_change_context(EE_std_mark_tid_stacked(tid));
 155:Generated_Source\PSoC5/ErikaOS_cortex_mx_ee_context.inc **** }
 156:Generated_Source\PSoC5/ErikaOS_cortex_mx_ee_context.inc **** 
 157:Generated_Source\PSoC5/ErikaOS_cortex_mx_ee_context.inc **** #endif /* __MULTI__ */
 158:Generated_Source\PSoC5/ErikaOS_cortex_mx_ee_context.inc **** 
 159:Generated_Source\PSoC5/ErikaOS_cortex_mx_ee_context.inc **** 
 160:Generated_Source\PSoC5/ErikaOS_cortex_mx_ee_context.inc **** /* The functions below should work for both the monostack and multistack
 161:Generated_Source\PSoC5/ErikaOS_cortex_mx_ee_context.inc ****  * versions of the kernel, thanks to the macros defined above.  In the mono
 162:Generated_Source\PSoC5/ErikaOS_cortex_mx_ee_context.inc ****  * version, all the stack-related stuff is ignored. */
 163:Generated_Source\PSoC5/ErikaOS_cortex_mx_ee_context.inc **** 
 164:Generated_Source\PSoC5/ErikaOS_cortex_mx_ee_context.inc **** 
ARM GAS  C:\Users\rbhar\AppData\Local\Temp\ccyVjClG.s 			page 7


 165:Generated_Source\PSoC5/ErikaOS_cortex_mx_ee_context.inc **** __INLINE__ void  EE_hal_ready2stacked(EE_TID tid)
 166:Generated_Source\PSoC5/ErikaOS_cortex_mx_ee_context.inc **** {
 167:Generated_Source\PSoC5/ErikaOS_cortex_mx_ee_context.inc ****     EE_cortex_mx_change_context(tid);
 168:Generated_Source\PSoC5/ErikaOS_cortex_mx_ee_context.inc **** }
 169:Generated_Source\PSoC5/ErikaOS_cortex_mx_ee_context.inc **** 
 170:Generated_Source\PSoC5/ErikaOS_cortex_mx_ee_context.inc **** 
 171:Generated_Source\PSoC5/ErikaOS_cortex_mx_ee_context.inc **** __INLINE__ void  EE_hal_endcycle_ready(EE_TID tid)
 172:Generated_Source\PSoC5/ErikaOS_cortex_mx_ee_context.inc **** {
 173:Generated_Source\PSoC5/ErikaOS_cortex_mx_ee_context.inc ****     EE_std_endcycle_next_tid = tid;
 174:Generated_Source\PSoC5/ErikaOS_cortex_mx_ee_context.inc **** }
 175:Generated_Source\PSoC5/ErikaOS_cortex_mx_ee_context.inc **** 
 176:Generated_Source\PSoC5/ErikaOS_cortex_mx_ee_context.inc **** 
 177:Generated_Source\PSoC5/ErikaOS_cortex_mx_ee_context.inc **** __INLINE__ void  EE_hal_endcycle_stacked(EE_TID tid)
 178:Generated_Source\PSoC5/ErikaOS_cortex_mx_ee_context.inc **** {
 179:Generated_Source\PSoC5/ErikaOS_cortex_mx_ee_context.inc ****     EE_std_endcycle_next_tid = EE_std_mark_tid_stacked(tid);
  50              		.loc 2 179 0
  51 0016 40F00040 		orr	r0, r0, #-2147483648
  52              	.LVL2:
  53 001a 044B     		ldr	r3, .L5+4
  54 001c 1860     		str	r0, [r3]
  55 001e 08BD     		pop	{r3, pc}
  56              	.LVL3:
  57              	.L2:
  58              	.LBE27:
  59              	.LBE26:
  60              	.LBB28:
  61              	.LBB29:
 173:Generated_Source\PSoC5/ErikaOS_cortex_mx_ee_context.inc **** }
  62              		.loc 2 173 0
  63 0020 024B     		ldr	r3, .L5+4
  64 0022 1860     		str	r0, [r3]
  65 0024 08BD     		pop	{r3, pc}
  66              	.L6:
  67 0026 00BF     		.align	2
  68              	.L5:
  69 0028 00000000 		.word	EE_th_waswaiting
  70 002c 00000000 		.word	EE_std_endcycle_next_tid
  71              	.LBE29:
  72              	.LBE28:
  73              		.cfi_endproc
  74              	.LFE60:
  75              		.size	EE_IRQ_run_next_task, .-EE_IRQ_run_next_task
  76              		.section	.text.EE_IRQ_end_instance,"ax",%progbits
  77              		.align	2
  78              		.global	EE_IRQ_end_instance
  79              		.thumb
  80              		.thumb_func
  81              		.type	EE_IRQ_end_instance, %function
  82              	EE_IRQ_end_instance:
  83              	.LFB61:
 130:Generated_Source\PSoC5/ErikaOS_ee_irqendin.c ****     EE_oo_call_PreTaskHook();
 131:Generated_Source\PSoC5/ErikaOS_ee_irqendin.c ****     EE_hal_IRQ_stacked(tnext);
 132:Generated_Source\PSoC5/ErikaOS_ee_irqendin.c ****   } else {
 133:Generated_Source\PSoC5/ErikaOS_ee_irqendin.c ****     EE_hal_IRQ_ready(tnext);
 134:Generated_Source\PSoC5/ErikaOS_ee_irqendin.c ****   }
 135:Generated_Source\PSoC5/ErikaOS_ee_irqendin.c **** }
 136:Generated_Source\PSoC5/ErikaOS_ee_irqendin.c **** #else /* __OO_ECC1__ || __OO_ECC2__ */
ARM GAS  C:\Users\rbhar\AppData\Local\Temp\ccyVjClG.s 			page 8


 137:Generated_Source\PSoC5/ErikaOS_ee_irqendin.c **** static void EE_IRQ_run_next_task( void )
 138:Generated_Source\PSoC5/ErikaOS_ee_irqendin.c **** {
 139:Generated_Source\PSoC5/ErikaOS_ee_irqendin.c ****   EE_hal_IRQ_ready(EE_rq2stk_exchange());
 140:Generated_Source\PSoC5/ErikaOS_ee_irqendin.c **** }
 141:Generated_Source\PSoC5/ErikaOS_ee_irqendin.c **** #endif /* __OO_ECC1__ || __OO_ECC2__ */
 142:Generated_Source\PSoC5/ErikaOS_ee_irqendin.c **** 
 143:Generated_Source\PSoC5/ErikaOS_ee_irqendin.c **** /* This primitive shall be atomic.
 144:Generated_Source\PSoC5/ErikaOS_ee_irqendin.c ****    This primitive shall be inserted as the last function in an IRQ handler.
 145:Generated_Source\PSoC5/ErikaOS_ee_irqendin.c ****    If the HAL allow IRQ nesting the C_end_instance should work as follows:
 146:Generated_Source\PSoC5/ErikaOS_ee_irqendin.c ****    - it must implement the preemption test only if it is the last IRQ on the
 147:Generated_Source\PSoC5/ErikaOS_ee_irqendin.c ****      stack
 148:Generated_Source\PSoC5/ErikaOS_ee_irqendin.c ****    - if there are other interrupts on the stack the IRQ end_instance should do
 149:Generated_Source\PSoC5/ErikaOS_ee_irqendin.c ****      nothing
 150:Generated_Source\PSoC5/ErikaOS_ee_irqendin.c **** */
 151:Generated_Source\PSoC5/ErikaOS_ee_irqendin.c **** void EE_IRQ_end_instance( void )
 152:Generated_Source\PSoC5/ErikaOS_ee_irqendin.c **** {
  84              		.loc 1 152 0
  85              		.cfi_startproc
  86              		@ args = 0, pretend = 0, frame = 0
  87              		@ frame_needed = 0, uses_anonymous_args = 0
  88 0000 10B5     		push	{r4, lr}
  89              		.cfi_def_cfa_offset 8
  90              		.cfi_offset 4, -8
  91              		.cfi_offset 14, -4
 153:Generated_Source\PSoC5/ErikaOS_ee_irqendin.c ****   register EE_TID rqfirst, current;
 154:Generated_Source\PSoC5/ErikaOS_ee_irqendin.c **** 
 155:Generated_Source\PSoC5/ErikaOS_ee_irqendin.c ****   rqfirst = EE_rq_queryfirst();
  92              		.loc 1 155 0
  93 0002 FFF7FEFF 		bl	EE_rq_queryfirst
  94              	.LVL4:
  95              	.LBB30:
  96              	.LBB31:
  97              		.file 3 "Generated_Source\\PSoC5\\ErikaOS_ee_oo_internal.inc"
   1:Generated_Source\PSoC5/ErikaOS_ee_oo_internal.inc **** /* ###*B*###
   2:Generated_Source\PSoC5/ErikaOS_ee_oo_internal.inc ****  * ERIKA Enterprise - a tiny RTOS for small microcontrollers
   3:Generated_Source\PSoC5/ErikaOS_ee_oo_internal.inc ****  *
   4:Generated_Source\PSoC5/ErikaOS_ee_oo_internal.inc ****  * Copyright (C) 2002-2008  Evidence Srl
   5:Generated_Source\PSoC5/ErikaOS_ee_oo_internal.inc ****  *
   6:Generated_Source\PSoC5/ErikaOS_ee_oo_internal.inc ****  * This file is part of ERIKA Enterprise.
   7:Generated_Source\PSoC5/ErikaOS_ee_oo_internal.inc ****  *
   8:Generated_Source\PSoC5/ErikaOS_ee_oo_internal.inc ****  * ERIKA Enterprise is free software; you can redistribute it
   9:Generated_Source\PSoC5/ErikaOS_ee_oo_internal.inc ****  * and/or modify it under the terms of the GNU General Public License
  10:Generated_Source\PSoC5/ErikaOS_ee_oo_internal.inc ****  * version 2 as published by the Free Software Foundation, 
  11:Generated_Source\PSoC5/ErikaOS_ee_oo_internal.inc ****  * (with a special exception described below).
  12:Generated_Source\PSoC5/ErikaOS_ee_oo_internal.inc ****  *
  13:Generated_Source\PSoC5/ErikaOS_ee_oo_internal.inc ****  * Linking this code statically or dynamically with other modules is
  14:Generated_Source\PSoC5/ErikaOS_ee_oo_internal.inc ****  * making a combined work based on this code.  Thus, the terms and
  15:Generated_Source\PSoC5/ErikaOS_ee_oo_internal.inc ****  * conditions of the GNU General Public License cover the whole
  16:Generated_Source\PSoC5/ErikaOS_ee_oo_internal.inc ****  * combination.
  17:Generated_Source\PSoC5/ErikaOS_ee_oo_internal.inc ****  *
  18:Generated_Source\PSoC5/ErikaOS_ee_oo_internal.inc ****  * As a special exception, the copyright holders of this library give you
  19:Generated_Source\PSoC5/ErikaOS_ee_oo_internal.inc ****  * permission to link this code with independent modules to produce an
  20:Generated_Source\PSoC5/ErikaOS_ee_oo_internal.inc ****  * executable, regardless of the license terms of these independent
  21:Generated_Source\PSoC5/ErikaOS_ee_oo_internal.inc ****  * modules, and to copy and distribute the resulting executable under
  22:Generated_Source\PSoC5/ErikaOS_ee_oo_internal.inc ****  * terms of your choice, provided that you also meet, for each linked
  23:Generated_Source\PSoC5/ErikaOS_ee_oo_internal.inc ****  * independent module, the terms and conditions of the license of that
  24:Generated_Source\PSoC5/ErikaOS_ee_oo_internal.inc ****  * module.  An independent module is a module which is not derived from
ARM GAS  C:\Users\rbhar\AppData\Local\Temp\ccyVjClG.s 			page 9


  25:Generated_Source\PSoC5/ErikaOS_ee_oo_internal.inc ****  * or based on this library.  If you modify this code, you may extend
  26:Generated_Source\PSoC5/ErikaOS_ee_oo_internal.inc ****  * this exception to your version of the code, but you are not
  27:Generated_Source\PSoC5/ErikaOS_ee_oo_internal.inc ****  * obligated to do so.  If you do not wish to do so, delete this
  28:Generated_Source\PSoC5/ErikaOS_ee_oo_internal.inc ****  * exception statement from your version.
  29:Generated_Source\PSoC5/ErikaOS_ee_oo_internal.inc ****  *
  30:Generated_Source\PSoC5/ErikaOS_ee_oo_internal.inc ****  * ERIKA Enterprise is distributed in the hope that it will be
  31:Generated_Source\PSoC5/ErikaOS_ee_oo_internal.inc ****  * useful, but WITHOUT ANY WARRANTY; without even the implied warranty
  32:Generated_Source\PSoC5/ErikaOS_ee_oo_internal.inc ****  * of MERCHANTABILITY or FITNESS FOR A PARTICULAR PURPOSE.  See the
  33:Generated_Source\PSoC5/ErikaOS_ee_oo_internal.inc ****  * GNU General Public License version 2 for more details.
  34:Generated_Source\PSoC5/ErikaOS_ee_oo_internal.inc ****  *
  35:Generated_Source\PSoC5/ErikaOS_ee_oo_internal.inc ****  * You should have received a copy of the GNU General Public License
  36:Generated_Source\PSoC5/ErikaOS_ee_oo_internal.inc ****  * version 2 along with ERIKA Enterprise; if not, write to the
  37:Generated_Source\PSoC5/ErikaOS_ee_oo_internal.inc ****  * Free Software Foundation, Inc., 51 Franklin Street, Fifth Floor,
  38:Generated_Source\PSoC5/ErikaOS_ee_oo_internal.inc ****  * Boston, MA 02110-1301 USA.
  39:Generated_Source\PSoC5/ErikaOS_ee_oo_internal.inc ****  * ###*E*### */
  40:Generated_Source\PSoC5/ErikaOS_ee_oo_internal.inc **** 
  41:Generated_Source\PSoC5/ErikaOS_ee_oo_internal.inc **** /*
  42:Generated_Source\PSoC5/ErikaOS_ee_oo_internal.inc ****  * Author: 2002 Paolo Gai
  43:Generated_Source\PSoC5/ErikaOS_ee_oo_internal.inc ****  * CVS: $Id: ee_internal.h,v 1.6 2006/12/03 22:07:50 pj Exp $
  44:Generated_Source\PSoC5/ErikaOS_ee_oo_internal.inc ****  */
  45:Generated_Source\PSoC5/ErikaOS_ee_oo_internal.inc **** 
  46:Generated_Source\PSoC5/ErikaOS_ee_oo_internal.inc **** /*
  47:Generated_Source\PSoC5/ErikaOS_ee_oo_internal.inc ****  * PSoC Port and API Generation
  48:Generated_Source\PSoC5/ErikaOS_ee_oo_internal.inc ****  * Carlos Fernando Meier Martinez
  49:Generated_Source\PSoC5/ErikaOS_ee_oo_internal.inc ****  * Hochschule Darmstadt, Germany. 2017.
  50:Generated_Source\PSoC5/ErikaOS_ee_oo_internal.inc ****  */
  51:Generated_Source\PSoC5/ErikaOS_ee_oo_internal.inc **** 
  52:Generated_Source\PSoC5/ErikaOS_ee_oo_internal.inc **** #ifndef PKG_KERNEL_OO_INC_EE_OO_INTERNAL_H
  53:Generated_Source\PSoC5/ErikaOS_ee_oo_internal.inc **** #define PKG_KERNEL_OO_INC_EE_OO_INTERNAL_H
  54:Generated_Source\PSoC5/ErikaOS_ee_oo_internal.inc **** 
  55:Generated_Source\PSoC5/ErikaOS_ee_oo_internal.inc **** #include "ErikaOS_ee_oo_common.inc"
  56:Generated_Source\PSoC5/ErikaOS_ee_oo_internal.inc **** #include "ErikaOS_ee_oo_intfunc.inc"
  57:Generated_Source\PSoC5/ErikaOS_ee_oo_internal.inc **** #include "ErikaOS_ee_oo_irq.inc"
  58:Generated_Source\PSoC5/ErikaOS_ee_oo_internal.inc **** 
  59:Generated_Source\PSoC5/ErikaOS_ee_oo_internal.inc **** /*******************************************************************************
  60:Generated_Source\PSoC5/ErikaOS_ee_oo_internal.inc ****  *                    New Error Handling Internal Utilities
  61:Generated_Source\PSoC5/ErikaOS_ee_oo_internal.inc ****  ******************************************************************************/
  62:Generated_Source\PSoC5/ErikaOS_ee_oo_internal.inc **** 
  63:Generated_Source\PSoC5/ErikaOS_ee_oo_internal.inc **** /* Error Parameters Utilities Macros */
  64:Generated_Source\PSoC5/ErikaOS_ee_oo_internal.inc **** #define EE_OS_PARAM(param_name)   EE_os_param param_name
  65:Generated_Source\PSoC5/ErikaOS_ee_oo_internal.inc **** #define EE_OS_PARAM_VALUE(param_name, param_value)  \
  66:Generated_Source\PSoC5/ErikaOS_ee_oo_internal.inc ****   ((param_name).value_param = (param_value))
  67:Generated_Source\PSoC5/ErikaOS_ee_oo_internal.inc **** 
  68:Generated_Source\PSoC5/ErikaOS_ee_oo_internal.inc **** #define EE_OS_PARAM_REF(param_name, param_field, param_ref) \
  69:Generated_Source\PSoC5/ErikaOS_ee_oo_internal.inc ****   ((param_name).param_field = (param_ref))
  70:Generated_Source\PSoC5/ErikaOS_ee_oo_internal.inc **** 
  71:Generated_Source\PSoC5/ErikaOS_ee_oo_internal.inc **** #ifdef __OO_HAS_ERRORHOOK__
  72:Generated_Source\PSoC5/ErikaOS_ee_oo_internal.inc **** /* Error Parameters Data Structure Utilities Macros from user space */
  73:Generated_Source\PSoC5/ErikaOS_ee_oo_internal.inc **** #define EE_OS_ERROR_PARAMETERS()  EE_oo_ErrorHook_parameters error_parameters
  74:Generated_Source\PSoC5/ErikaOS_ee_oo_internal.inc **** 
  75:Generated_Source\PSoC5/ErikaOS_ee_oo_internal.inc **** #define EE_OS_ERROR_PARAMETERS_INIT(param1_in,param2_in,param3_in)  \
  76:Generated_Source\PSoC5/ErikaOS_ee_oo_internal.inc ****   EE_oo_ErrorHook_parameters error_parameters = { param1_in, param2_in, \
  77:Generated_Source\PSoC5/ErikaOS_ee_oo_internal.inc ****     param3_in }
  78:Generated_Source\PSoC5/ErikaOS_ee_oo_internal.inc **** 
  79:Generated_Source\PSoC5/ErikaOS_ee_oo_internal.inc **** #define EE_OS_ERROR_PARAMETERS_PARAM1_VALUE(param1_value) \
  80:Generated_Source\PSoC5/ErikaOS_ee_oo_internal.inc ****   (error_parameters.param1.value_param = param1_value)
  81:Generated_Source\PSoC5/ErikaOS_ee_oo_internal.inc **** #define EE_OS_ERROR_PARAMETERS_PARAM2_VALUE(param2_value) \
ARM GAS  C:\Users\rbhar\AppData\Local\Temp\ccyVjClG.s 			page 10


  82:Generated_Source\PSoC5/ErikaOS_ee_oo_internal.inc ****   (error_parameters.param2.value_param = param2_value)
  83:Generated_Source\PSoC5/ErikaOS_ee_oo_internal.inc **** #define EE_OS_ERROR_PARAMETERS_PARAM3_VALUE(param3_value) \
  84:Generated_Source\PSoC5/ErikaOS_ee_oo_internal.inc ****   (error_parameters.param3.value_param = param3_value)
  85:Generated_Source\PSoC5/ErikaOS_ee_oo_internal.inc **** 
  86:Generated_Source\PSoC5/ErikaOS_ee_oo_internal.inc **** #define EE_OS_ERROR_PARAMETERS_PARAM1_REF(param_field,param_ref)  \
  87:Generated_Source\PSoC5/ErikaOS_ee_oo_internal.inc ****   (error_parameters.param1.param_field = (param_ref))
  88:Generated_Source\PSoC5/ErikaOS_ee_oo_internal.inc **** #define EE_OS_ERROR_PARAMETERS_PARAM2_REF(param_field,param_ref)  \
  89:Generated_Source\PSoC5/ErikaOS_ee_oo_internal.inc ****   (error_parameters.param2.param_field = (param_ref))
  90:Generated_Source\PSoC5/ErikaOS_ee_oo_internal.inc **** #define EE_OS_ERROR_PARAMETERS_PARAM3_REF(param_field,param_ref)  \
  91:Generated_Source\PSoC5/ErikaOS_ee_oo_internal.inc ****   (error_parameters.param3.param_field = (param_ref))
  92:Generated_Source\PSoC5/ErikaOS_ee_oo_internal.inc **** #else /* __OO_HAS_ERRORHOOK__ */
  93:Generated_Source\PSoC5/ErikaOS_ee_oo_internal.inc **** #define EE_OS_ERROR_PARAMETERS()                                    ((void)0)
  94:Generated_Source\PSoC5/ErikaOS_ee_oo_internal.inc **** 
  95:Generated_Source\PSoC5/ErikaOS_ee_oo_internal.inc **** #define EE_OS_ERROR_PARAMETERS_INIT(param1_in,param2_in,param3_in)  ((void)0)
  96:Generated_Source\PSoC5/ErikaOS_ee_oo_internal.inc **** 
  97:Generated_Source\PSoC5/ErikaOS_ee_oo_internal.inc **** #define EE_OS_ERROR_PARAMETERS_PARAM1_VALUE(param1_value)           ((void)0)
  98:Generated_Source\PSoC5/ErikaOS_ee_oo_internal.inc **** #define EE_OS_ERROR_PARAMETERS_PARAM2_VALUE(param2_value)           ((void)0)
  99:Generated_Source\PSoC5/ErikaOS_ee_oo_internal.inc **** #define EE_OS_ERROR_PARAMETERS_PARAM3_VALUE(param3_value)           ((void)0)
 100:Generated_Source\PSoC5/ErikaOS_ee_oo_internal.inc **** 
 101:Generated_Source\PSoC5/ErikaOS_ee_oo_internal.inc **** #define EE_OS_ERROR_PARAMETERS_PARAM1_REF(param_field,param_ref)    ((void)0)
 102:Generated_Source\PSoC5/ErikaOS_ee_oo_internal.inc **** #define EE_OS_ERROR_PARAMETERS_PARAM2_REF(param_field,param_ref)    ((void)0)
 103:Generated_Source\PSoC5/ErikaOS_ee_oo_internal.inc **** #define EE_OS_ERROR_PARAMETERS_PARAM3_REF(param_field,param_ref)    ((void)0)
 104:Generated_Source\PSoC5/ErikaOS_ee_oo_internal.inc **** #endif /* __OO_HAS_ERRORHOOK__ */
 105:Generated_Source\PSoC5/ErikaOS_ee_oo_internal.inc **** 
 106:Generated_Source\PSoC5/ErikaOS_ee_oo_internal.inc **** /* Error Handling */
 107:Generated_Source\PSoC5/ErikaOS_ee_oo_internal.inc **** #ifdef __OO_HAS_ERRORHOOK__
 108:Generated_Source\PSoC5/ErikaOS_ee_oo_internal.inc **** #ifndef  __OO_ERRORHOOK_NOMACROS__
 109:Generated_Source\PSoC5/ErikaOS_ee_oo_internal.inc **** 
 110:Generated_Source\PSoC5/ErikaOS_ee_oo_internal.inc **** __INLINE__ void  EE_os_fill_error_data( OSServiceIdType
 111:Generated_Source\PSoC5/ErikaOS_ee_oo_internal.inc ****   ServiceID, EE_os_param param1, EE_os_param param2, EE_os_param param3 )
 112:Generated_Source\PSoC5/ErikaOS_ee_oo_internal.inc **** {
 113:Generated_Source\PSoC5/ErikaOS_ee_oo_internal.inc ****   register EE_oo_ErrorHook_parameters * const
 114:Generated_Source\PSoC5/ErikaOS_ee_oo_internal.inc ****     p_errorhook_parameter = EE_oo_get_errorhook_data();
 115:Generated_Source\PSoC5/ErikaOS_ee_oo_internal.inc ****   (*EE_oo_get_errorhook_service_id()) = ServiceID;
 116:Generated_Source\PSoC5/ErikaOS_ee_oo_internal.inc ****   p_errorhook_parameter->param1 = param1;
 117:Generated_Source\PSoC5/ErikaOS_ee_oo_internal.inc ****   p_errorhook_parameter->param2 = param2;
 118:Generated_Source\PSoC5/ErikaOS_ee_oo_internal.inc ****   p_errorhook_parameter->param3 = param3;
 119:Generated_Source\PSoC5/ErikaOS_ee_oo_internal.inc **** }
 120:Generated_Source\PSoC5/ErikaOS_ee_oo_internal.inc **** #else /* !__OO_ERRORHOOK_NOMACROS__ */
 121:Generated_Source\PSoC5/ErikaOS_ee_oo_internal.inc **** 
 122:Generated_Source\PSoC5/ErikaOS_ee_oo_internal.inc **** #define EE_os_fill_error_data(ServiceID,param1,param2,param3) ((void)0)
 123:Generated_Source\PSoC5/ErikaOS_ee_oo_internal.inc **** #endif /* !__OO_ERRORHOOK_NOMACROS__ */
 124:Generated_Source\PSoC5/ErikaOS_ee_oo_internal.inc **** 
 125:Generated_Source\PSoC5/ErikaOS_ee_oo_internal.inc **** __INLINE__ void  EE_os_notify_error( OSServiceIdType ServiceID,
 126:Generated_Source\PSoC5/ErikaOS_ee_oo_internal.inc ****   EE_os_param param1, EE_os_param param2, EE_os_param param3,
 127:Generated_Source\PSoC5/ErikaOS_ee_oo_internal.inc ****   StatusType Error )
 128:Generated_Source\PSoC5/ErikaOS_ee_oo_internal.inc **** {
 129:Generated_Source\PSoC5/ErikaOS_ee_oo_internal.inc ****   EE_ORTI_set_lasterror(Error);
 130:Generated_Source\PSoC5/ErikaOS_ee_oo_internal.inc ****   if ( EE_ErrorHook_nested_flag == 0U )
 131:Generated_Source\PSoC5/ErikaOS_ee_oo_internal.inc ****   {
 132:Generated_Source\PSoC5/ErikaOS_ee_oo_internal.inc ****     EE_os_fill_error_data(ServiceID, param1, param2, param3);
 133:Generated_Source\PSoC5/ErikaOS_ee_oo_internal.inc ****     EE_ErrorHook_nested_flag = 1U;
 134:Generated_Source\PSoC5/ErikaOS_ee_oo_internal.inc ****     EE_oo_call_ErrorHook(Error);
 135:Generated_Source\PSoC5/ErikaOS_ee_oo_internal.inc ****     EE_ErrorHook_nested_flag = 0U;
 136:Generated_Source\PSoC5/ErikaOS_ee_oo_internal.inc ****   }
 137:Generated_Source\PSoC5/ErikaOS_ee_oo_internal.inc **** }
 138:Generated_Source\PSoC5/ErikaOS_ee_oo_internal.inc **** 
ARM GAS  C:\Users\rbhar\AppData\Local\Temp\ccyVjClG.s 			page 11


 139:Generated_Source\PSoC5/ErikaOS_ee_oo_internal.inc **** #ifndef __EE_MEMORY_PROTECTION__
 140:Generated_Source\PSoC5/ErikaOS_ee_oo_internal.inc **** __INLINE__ void  EE_os_notify_error_from_us(
 141:Generated_Source\PSoC5/ErikaOS_ee_oo_internal.inc ****   OSServiceIdType ServiceID, const EE_oo_ErrorHook_parameters * const
 142:Generated_Source\PSoC5/ErikaOS_ee_oo_internal.inc ****     error_parameters_ref, StatusType Error )
 143:Generated_Source\PSoC5/ErikaOS_ee_oo_internal.inc **** {
 144:Generated_Source\PSoC5/ErikaOS_ee_oo_internal.inc ****   if ( error_parameters_ref != NULL ) {
 145:Generated_Source\PSoC5/ErikaOS_ee_oo_internal.inc ****     register EE_FREG const flag = EE_hal_begin_nested_primitive();
 146:Generated_Source\PSoC5/ErikaOS_ee_oo_internal.inc ****     EE_os_notify_error(ServiceID, error_parameters_ref->param1,
 147:Generated_Source\PSoC5/ErikaOS_ee_oo_internal.inc ****       error_parameters_ref->param2, error_parameters_ref->param3, Error);
 148:Generated_Source\PSoC5/ErikaOS_ee_oo_internal.inc ****     EE_hal_end_nested_primitive(flag);
 149:Generated_Source\PSoC5/ErikaOS_ee_oo_internal.inc ****   }
 150:Generated_Source\PSoC5/ErikaOS_ee_oo_internal.inc **** }
 151:Generated_Source\PSoC5/ErikaOS_ee_oo_internal.inc **** #else /* !__EE_MEMORY_PROTECTION__ */
 152:Generated_Source\PSoC5/ErikaOS_ee_oo_internal.inc **** /* If MemMap.h support is enabled (i.e. because memory protection): use it */
 153:Generated_Source\PSoC5/ErikaOS_ee_oo_internal.inc **** #ifdef EE_SUPPORT_MEMMAP_H
 154:Generated_Source\PSoC5/ErikaOS_ee_oo_internal.inc **** /* The following code belong to ERIKA API section ee_api_text */
 155:Generated_Source\PSoC5/ErikaOS_ee_oo_internal.inc **** #define API_START_SEC_CODE
 156:Generated_Source\PSoC5/ErikaOS_ee_oo_internal.inc **** #include "MemMap.inc"
 157:Generated_Source\PSoC5/ErikaOS_ee_oo_internal.inc **** #endif /* EE_SUPPORT_MEMMAP_H */
 158:Generated_Source\PSoC5/ErikaOS_ee_oo_internal.inc **** 
 159:Generated_Source\PSoC5/ErikaOS_ee_oo_internal.inc **** void EE_os_notify_error_from_us( OSServiceIdType ServiceID,
 160:Generated_Source\PSoC5/ErikaOS_ee_oo_internal.inc ****   const EE_oo_ErrorHook_parameters * const error_parameters_ref,
 161:Generated_Source\PSoC5/ErikaOS_ee_oo_internal.inc ****   StatusType Error );
 162:Generated_Source\PSoC5/ErikaOS_ee_oo_internal.inc **** 
 163:Generated_Source\PSoC5/ErikaOS_ee_oo_internal.inc **** #ifdef EE_SUPPORT_MEMMAP_H
 164:Generated_Source\PSoC5/ErikaOS_ee_oo_internal.inc **** #define API_STOP_SEC_CODE
 165:Generated_Source\PSoC5/ErikaOS_ee_oo_internal.inc **** #include "MemMap.inc"
 166:Generated_Source\PSoC5/ErikaOS_ee_oo_internal.inc **** #endif /* EE_SUPPORT_MEMMAP_H */
 167:Generated_Source\PSoC5/ErikaOS_ee_oo_internal.inc **** #endif /* !__EE_MEMORY_PROTECTION__ */
 168:Generated_Source\PSoC5/ErikaOS_ee_oo_internal.inc **** #else /* __OO_HAS_ERRORHOOK__ */
 169:Generated_Source\PSoC5/ErikaOS_ee_oo_internal.inc **** 
 170:Generated_Source\PSoC5/ErikaOS_ee_oo_internal.inc **** /* Macro used for remapping to prevent compiler warnings on unused parameters */
 171:Generated_Source\PSoC5/ErikaOS_ee_oo_internal.inc **** #define EE_os_notify_error(k,j,x,y,z) EE_os_notify_error_impl(z)
 172:Generated_Source\PSoC5/ErikaOS_ee_oo_internal.inc **** 
 173:Generated_Source\PSoC5/ErikaOS_ee_oo_internal.inc **** __INLINE__ void  EE_os_notify_error_impl(StatusType Error)
 174:Generated_Source\PSoC5/ErikaOS_ee_oo_internal.inc **** {
 175:Generated_Source\PSoC5/ErikaOS_ee_oo_internal.inc ****   EE_ORTI_set_lasterror(Error);
 176:Generated_Source\PSoC5/ErikaOS_ee_oo_internal.inc **** }
 177:Generated_Source\PSoC5/ErikaOS_ee_oo_internal.inc **** 
 178:Generated_Source\PSoC5/ErikaOS_ee_oo_internal.inc **** /* Macro used for remapping to prevent compiler warnings on unused parameters */
 179:Generated_Source\PSoC5/ErikaOS_ee_oo_internal.inc **** #define EE_os_notify_error_from_us(x,y,z) EE_os_notify_error_from_us_impl(z)
 180:Generated_Source\PSoC5/ErikaOS_ee_oo_internal.inc **** 
 181:Generated_Source\PSoC5/ErikaOS_ee_oo_internal.inc **** __INLINE__ void  EE_os_notify_error_from_us_impl(
 182:Generated_Source\PSoC5/ErikaOS_ee_oo_internal.inc ****   StatusType Error )
 183:Generated_Source\PSoC5/ErikaOS_ee_oo_internal.inc **** {
 184:Generated_Source\PSoC5/ErikaOS_ee_oo_internal.inc ****   EE_ORTI_set_lasterror(Error);
 185:Generated_Source\PSoC5/ErikaOS_ee_oo_internal.inc **** }
 186:Generated_Source\PSoC5/ErikaOS_ee_oo_internal.inc **** #endif /* __OO_HAS_ERRORHOOK__ */
 187:Generated_Source\PSoC5/ErikaOS_ee_oo_internal.inc **** 
 188:Generated_Source\PSoC5/ErikaOS_ee_oo_internal.inc **** /*******************************************************************************
 189:Generated_Source\PSoC5/ErikaOS_ee_oo_internal.inc ****  *                  Kernel Critical Section Utility Macros
 190:Generated_Source\PSoC5/ErikaOS_ee_oo_internal.inc ****  ******************************************************************************/
 191:Generated_Source\PSoC5/ErikaOS_ee_oo_internal.inc **** #ifndef __EE_MEMORY_PROTECTION__
 192:Generated_Source\PSoC5/ErikaOS_ee_oo_internal.inc **** 
 193:Generated_Source\PSoC5/ErikaOS_ee_oo_internal.inc **** #define EE_OS_DECLARE_CRITICAL_SECTION()  register EE_FREG flag
 194:Generated_Source\PSoC5/ErikaOS_ee_oo_internal.inc **** 
 195:Generated_Source\PSoC5/ErikaOS_ee_oo_internal.inc **** #define EE_OS_ENTER_CRITICAL_SECTION()          \
ARM GAS  C:\Users\rbhar\AppData\Local\Temp\ccyVjClG.s 			page 12


 196:Generated_Source\PSoC5/ErikaOS_ee_oo_internal.inc ****   do {                                          \
 197:Generated_Source\PSoC5/ErikaOS_ee_oo_internal.inc ****     flag = EE_hal_begin_nested_primitive();     \
 198:Generated_Source\PSoC5/ErikaOS_ee_oo_internal.inc ****     EE_as_tp_active_pause_and_update_budgets(); \
 199:Generated_Source\PSoC5/ErikaOS_ee_oo_internal.inc ****   } while ( 0 )
 200:Generated_Source\PSoC5/ErikaOS_ee_oo_internal.inc **** 
 201:Generated_Source\PSoC5/ErikaOS_ee_oo_internal.inc **** #define EE_OS_DECLARE_AND_ENTER_CRITICAL_SECTION()  \
 202:Generated_Source\PSoC5/ErikaOS_ee_oo_internal.inc ****   EE_OS_DECLARE_CRITICAL_SECTION();                 \
 203:Generated_Source\PSoC5/ErikaOS_ee_oo_internal.inc ****   EE_OS_ENTER_CRITICAL_SECTION()
 204:Generated_Source\PSoC5/ErikaOS_ee_oo_internal.inc **** 
 205:Generated_Source\PSoC5/ErikaOS_ee_oo_internal.inc **** #define EE_OS_EXIT_CRITICAL_SECTION()             \
 206:Generated_Source\PSoC5/ErikaOS_ee_oo_internal.inc ****   do {                                            \
 207:Generated_Source\PSoC5/ErikaOS_ee_oo_internal.inc ****     EE_as_tp_active_update_budgets_and_restart(); \
 208:Generated_Source\PSoC5/ErikaOS_ee_oo_internal.inc ****     EE_hal_end_nested_primitive(flag);            \
 209:Generated_Source\PSoC5/ErikaOS_ee_oo_internal.inc ****   } while ( 0 )
 210:Generated_Source\PSoC5/ErikaOS_ee_oo_internal.inc **** 
 211:Generated_Source\PSoC5/ErikaOS_ee_oo_internal.inc **** #define EE_OS_FOREVER_CRITICAL_SECTION()          \
 212:Generated_Source\PSoC5/ErikaOS_ee_oo_internal.inc ****   do {                                            \
 213:Generated_Source\PSoC5/ErikaOS_ee_oo_internal.inc ****     EE_hal_disableIRQ();                          \
 214:Generated_Source\PSoC5/ErikaOS_ee_oo_internal.inc ****     EE_as_tp_active_pause_and_update_budgets();   \
 215:Generated_Source\PSoC5/ErikaOS_ee_oo_internal.inc ****   } while ( 0 )
 216:Generated_Source\PSoC5/ErikaOS_ee_oo_internal.inc **** 
 217:Generated_Source\PSoC5/ErikaOS_ee_oo_internal.inc **** #else /* !__EE_MEMORY_PROTECTION__ */
 218:Generated_Source\PSoC5/ErikaOS_ee_oo_internal.inc **** /* TP in any case have to be handled in Service Implementation. Syscall
 219:Generated_Source\PSoC5/ErikaOS_ee_oo_internal.inc ****    mechanism can be implement in C language and, in that case, a function call
 220:Generated_Source\PSoC5/ErikaOS_ee_oo_internal.inc ****    cannot be done in syscall handler. */
 221:Generated_Source\PSoC5/ErikaOS_ee_oo_internal.inc **** #define EE_OS_DECLARE_CRITICAL_SECTION()            ((void)0)
 222:Generated_Source\PSoC5/ErikaOS_ee_oo_internal.inc **** #define EE_OS_ENTER_CRITICAL_SECTION()              \
 223:Generated_Source\PSoC5/ErikaOS_ee_oo_internal.inc ****   EE_as_tp_active_pause_and_update_budgets()
 224:Generated_Source\PSoC5/ErikaOS_ee_oo_internal.inc **** #define EE_OS_DECLARE_AND_ENTER_CRITICAL_SECTION()  \
 225:Generated_Source\PSoC5/ErikaOS_ee_oo_internal.inc ****   EE_as_tp_active_pause_and_update_budgets()
 226:Generated_Source\PSoC5/ErikaOS_ee_oo_internal.inc **** #define EE_OS_EXIT_CRITICAL_SECTION()               \
 227:Generated_Source\PSoC5/ErikaOS_ee_oo_internal.inc ****   EE_as_tp_active_update_budgets_and_restart()
 228:Generated_Source\PSoC5/ErikaOS_ee_oo_internal.inc **** #define EE_OS_FOREVER_CRITICAL_SECTION()			\
 229:Generated_Source\PSoC5/ErikaOS_ee_oo_internal.inc ****   EE_as_tp_active_pause_and_update_budgets()
 230:Generated_Source\PSoC5/ErikaOS_ee_oo_internal.inc **** #endif /* !__EE_MEMORY_PROTECTION__ */
 231:Generated_Source\PSoC5/ErikaOS_ee_oo_internal.inc **** 
 232:Generated_Source\PSoC5/ErikaOS_ee_oo_internal.inc **** /* return the first stacked task (the running task) without extracting it 
 233:Generated_Source\PSoC5/ErikaOS_ee_oo_internal.inc ****    we suppose that this function can be called ALSO at interrupt ENABLED!!!
 234:Generated_Source\PSoC5/ErikaOS_ee_oo_internal.inc ****    (see WaitEvent.c) */
 235:Generated_Source\PSoC5/ErikaOS_ee_oo_internal.inc **** #ifndef __PRIVATE_STK_QUERYFIRST__
 236:Generated_Source\PSoC5/ErikaOS_ee_oo_internal.inc **** __INLINE__ EE_TID  EE_stk_queryfirst(void)
 237:Generated_Source\PSoC5/ErikaOS_ee_oo_internal.inc **** {
 238:Generated_Source\PSoC5/ErikaOS_ee_oo_internal.inc ****     return EE_stkfirst;  
  98              		.loc 3 238 0
  99 0006 124B     		ldr	r3, .L12
 100 0008 1B68     		ldr	r3, [r3]
 101              	.LBE31:
 102              	.LBE30:
 156:Generated_Source\PSoC5/ErikaOS_ee_irqendin.c ****   current = EE_stk_queryfirst();
 157:Generated_Source\PSoC5/ErikaOS_ee_irqendin.c **** 
 158:Generated_Source\PSoC5/ErikaOS_ee_irqendin.c ****   if ( (rqfirst != EE_NIL) && (EE_sys_ceiling < EE_th_ready_prio[rqfirst]) ) {
 103              		.loc 1 158 0
 104 000a B0F1FF3F 		cmp	r0, #-1
 105 000e 1AD0     		beq	.L8
 106              		.loc 1 158 0 is_stmt 0 discriminator 1
 107 0010 104A     		ldr	r2, .L12+4
 108 0012 52F82010 		ldr	r1, [r2, r0, lsl #2]
ARM GAS  C:\Users\rbhar\AppData\Local\Temp\ccyVjClG.s 			page 13


 109 0016 104A     		ldr	r2, .L12+8
 110 0018 1268     		ldr	r2, [r2]
 111 001a 9142     		cmp	r1, r2
 112 001c 13D9     		bls	.L8
 159:Generated_Source\PSoC5/ErikaOS_ee_irqendin.c ****     /* We have to schedule a READY thread */
 160:Generated_Source\PSoC5/ErikaOS_ee_irqendin.c **** 
 161:Generated_Source\PSoC5/ErikaOS_ee_irqendin.c ****     if ( current != EE_NIL ) {
 113              		.loc 1 161 0 is_stmt 1
 114 001e B3F1FF3F 		cmp	r3, #-1
 115 0022 03D0     		beq	.L9
 162:Generated_Source\PSoC5/ErikaOS_ee_irqendin.c ****       /* There is a post task hook only if a TASK that was RUNNING */
 163:Generated_Source\PSoC5/ErikaOS_ee_irqendin.c ****       EE_oo_call_PostTaskHook();
 164:Generated_Source\PSoC5/ErikaOS_ee_irqendin.c ****       /* The RUNNING TASK is now preempted-> READY status + still in stacked
 165:Generated_Source\PSoC5/ErikaOS_ee_irqendin.c ****          queue */
 166:Generated_Source\PSoC5/ErikaOS_ee_irqendin.c ****       EE_th_status[current] = READY;
 116              		.loc 1 166 0
 117 0024 0224     		movs	r4, #2
 118 0026 0D49     		ldr	r1, .L12+12
 119 0028 41F82340 		str	r4, [r1, r3, lsl #2]
 120              	.L9:
 167:Generated_Source\PSoC5/ErikaOS_ee_irqendin.c ****     }
 168:Generated_Source\PSoC5/ErikaOS_ee_irqendin.c **** 
 169:Generated_Source\PSoC5/ErikaOS_ee_irqendin.c ****     /* Another TASK is put into the RUNNING state */
 170:Generated_Source\PSoC5/ErikaOS_ee_irqendin.c ****     EE_th_status[rqfirst] = RUNNING;
 121              		.loc 1 170 0
 122 002c 0021     		movs	r1, #0
 123 002e 0B4B     		ldr	r3, .L12+12
 124 0030 43F82010 		str	r1, [r3, r0, lsl #2]
 171:Generated_Source\PSoC5/ErikaOS_ee_irqendin.c **** 
 172:Generated_Source\PSoC5/ErikaOS_ee_irqendin.c ****     EE_sys_ceiling |= EE_th_dispatch_prio[rqfirst];
 125              		.loc 1 172 0
 126 0034 0A4B     		ldr	r3, .L12+16
 127 0036 53F82030 		ldr	r3, [r3, r0, lsl #2]
 128 003a 1A43     		orrs	r2, r2, r3
 129 003c 064B     		ldr	r3, .L12+8
 130 003e 1A60     		str	r2, [r3]
 173:Generated_Source\PSoC5/ErikaOS_ee_irqendin.c **** 
 174:Generated_Source\PSoC5/ErikaOS_ee_irqendin.c ****     EE_ORTI_set_th_eq_dispatch_prio(rqfirst);
 175:Generated_Source\PSoC5/ErikaOS_ee_irqendin.c **** 
 176:Generated_Source\PSoC5/ErikaOS_ee_irqendin.c ****     /* "Press TP start for the first time" for this new activation or realese
 177:Generated_Source\PSoC5/ErikaOS_ee_irqendin.c ****         from wait of the TASK */
 178:Generated_Source\PSoC5/ErikaOS_ee_irqendin.c ****     EE_as_tp_active_start_on_TASK_stacking(rqfirst);
 179:Generated_Source\PSoC5/ErikaOS_ee_irqendin.c ****     /* Set the next running TASK, it doesn't directly RUN it */
 180:Generated_Source\PSoC5/ErikaOS_ee_irqendin.c ****     EE_IRQ_run_next_task();
 131              		.loc 1 180 0
 132 0040 FFF7FEFF 		bl	EE_IRQ_run_next_task
 133              	.LVL5:
 134 0044 10BD     		pop	{r4, pc}
 135              	.LVL6:
 136              	.L8:
 137              	.LBB32:
 138              	.LBB33:
 139              		.loc 2 179 0
 140 0046 43F00043 		orr	r3, r3, #-2147483648
 141              	.LVL7:
 142 004a 064A     		ldr	r2, .L12+20
 143 004c 1360     		str	r3, [r2]
ARM GAS  C:\Users\rbhar\AppData\Local\Temp\ccyVjClG.s 			page 14


 144 004e 10BD     		pop	{r4, pc}
 145              	.L13:
 146              		.align	2
 147              	.L12:
 148 0050 00000000 		.word	EE_stkfirst
 149 0054 00000000 		.word	EE_th_ready_prio
 150 0058 00000000 		.word	EE_sys_ceiling
 151 005c 00000000 		.word	EE_th_status
 152 0060 00000000 		.word	EE_th_dispatch_prio
 153 0064 00000000 		.word	EE_std_endcycle_next_tid
 154              	.LBE33:
 155              	.LBE32:
 156              		.cfi_endproc
 157              	.LFE61:
 158              		.size	EE_IRQ_end_instance, .-EE_IRQ_end_instance
 159              		.section	.text.EE_IRQ_end_post_stub,"ax",%progbits
 160              		.align	2
 161              		.global	EE_IRQ_end_post_stub
 162              		.thumb
 163              		.thumb_func
 164              		.type	EE_IRQ_end_post_stub, %function
 165              	EE_IRQ_end_post_stub:
 166              	.LFB62:
 181:Generated_Source\PSoC5/ErikaOS_ee_irqendin.c ****   } else {
 182:Generated_Source\PSoC5/ErikaOS_ee_irqendin.c ****     if ( current == EE_NIL ) {
 183:Generated_Source\PSoC5/ErikaOS_ee_irqendin.c ****       /* We are switching back to the Idle loop */
 184:Generated_Source\PSoC5/ErikaOS_ee_irqendin.c ****       EE_as_set_execution_context( Idle_Context );
 185:Generated_Source\PSoC5/ErikaOS_ee_irqendin.c ****       EE_as_tp_active_start_idle();
 186:Generated_Source\PSoC5/ErikaOS_ee_irqendin.c ****     } else {
 187:Generated_Source\PSoC5/ErikaOS_ee_irqendin.c ****       /* We are switching back to a preempted TASK */
 188:Generated_Source\PSoC5/ErikaOS_ee_irqendin.c ****       EE_as_set_execution_context( TASK_Context );
 189:Generated_Source\PSoC5/ErikaOS_ee_irqendin.c ****       /* Enable the Task Timing Protection Set */
 190:Generated_Source\PSoC5/ErikaOS_ee_irqendin.c ****       EE_as_tp_active_set_from_TASK(current);
 191:Generated_Source\PSoC5/ErikaOS_ee_irqendin.c ****     }
 192:Generated_Source\PSoC5/ErikaOS_ee_irqendin.c ****     /* Set the Context Switch up, it doesn't directly switch */
 193:Generated_Source\PSoC5/ErikaOS_ee_irqendin.c ****     EE_hal_IRQ_stacked(current);
 194:Generated_Source\PSoC5/ErikaOS_ee_irqendin.c ****   }
 195:Generated_Source\PSoC5/ErikaOS_ee_irqendin.c **** }
 196:Generated_Source\PSoC5/ErikaOS_ee_irqendin.c **** 
 197:Generated_Source\PSoC5/ErikaOS_ee_irqendin.c **** /* This primitive shall be atomic.
 198:Generated_Source\PSoC5/ErikaOS_ee_irqendin.c ****    This primitive shall be inserted as the last function in an IRQ post-stub.
 199:Generated_Source\PSoC5/ErikaOS_ee_irqendin.c ****    This primitive do needed clean-up as resetting kernel interrupt nested
 200:Generated_Source\PSoC5/ErikaOS_ee_irqendin.c ****    counter and release gotten resources if application forget to do that as
 201:Generated_Source\PSoC5/ErikaOS_ee_irqendin.c ****    specified by Autosar standard.
 202:Generated_Source\PSoC5/ErikaOS_ee_irqendin.c **** */
 203:Generated_Source\PSoC5/ErikaOS_ee_irqendin.c **** void EE_IRQ_end_post_stub( void ) {
 167              		.loc 1 203 0
 168              		.cfi_startproc
 169              		@ args = 0, pretend = 0, frame = 0
 170              		@ frame_needed = 0, uses_anonymous_args = 0
 171              		@ link register save eliminated.
 172              	.LBB34:
 173              	.LBB35:
 239:Generated_Source\PSoC5/ErikaOS_ee_oo_internal.inc **** }
 240:Generated_Source\PSoC5/ErikaOS_ee_oo_internal.inc **** #endif /* __PRIVATE_STK_QUERYFIRST__ */
 241:Generated_Source\PSoC5/ErikaOS_ee_oo_internal.inc **** 
 242:Generated_Source\PSoC5/ErikaOS_ee_oo_internal.inc **** /* This function notifies a tick to a hardware counter.
ARM GAS  C:\Users\rbhar\AppData\Local\Temp\ccyVjClG.s 			page 15


 243:Generated_Source\PSoC5/ErikaOS_ee_oo_internal.inc ****    That is, the counter is
 244:Generated_Source\PSoC5/ErikaOS_ee_oo_internal.inc ****    incremented by 1.  It must be called into an ISR2 or into a
 245:Generated_Source\PSoC5/ErikaOS_ee_oo_internal.inc ****    task notify that the event linked to the counter occurred.
 246:Generated_Source\PSoC5/ErikaOS_ee_oo_internal.inc **** 
 247:Generated_Source\PSoC5/ErikaOS_ee_oo_internal.inc ****    The function will also implement the notification of expired alarms
 248:Generated_Source\PSoC5/ErikaOS_ee_oo_internal.inc ****    (calling an alarm callback, setting an event, or activating a
 249:Generated_Source\PSoC5/ErikaOS_ee_oo_internal.inc ****    task).
 250:Generated_Source\PSoC5/ErikaOS_ee_oo_internal.inc **** 
 251:Generated_Source\PSoC5/ErikaOS_ee_oo_internal.inc ****    The function can be considered atomic, and NO RESCHEDULING will
 252:Generated_Source\PSoC5/ErikaOS_ee_oo_internal.inc ****    take place after the execution of this function. To implement the
 253:Generated_Source\PSoC5/ErikaOS_ee_oo_internal.inc ****    rescheduling at task level, you can use the Schedule() or the
 254:Generated_Source\PSoC5/ErikaOS_ee_oo_internal.inc ****    ForceSchedule() functions just after this notification.
 255:Generated_Source\PSoC5/ErikaOS_ee_oo_internal.inc **** 
 256:Generated_Source\PSoC5/ErikaOS_ee_oo_internal.inc ****    see also internal.h
 257:Generated_Source\PSoC5/ErikaOS_ee_oo_internal.inc **** */
 258:Generated_Source\PSoC5/ErikaOS_ee_oo_internal.inc **** #if (!defined(__OO_NO_ALARMS__)) || (defined(EE_AS_SCHEDULETABLES__))
 259:Generated_Source\PSoC5/ErikaOS_ee_oo_internal.inc **** 
 260:Generated_Source\PSoC5/ErikaOS_ee_oo_internal.inc **** StatusType EE_oo_IncrementCounterHardware(CounterType CounterID);
 261:Generated_Source\PSoC5/ErikaOS_ee_oo_internal.inc **** void       EE_oo_IncrementCounterImplementation(CounterType CounterID);
 262:Generated_Source\PSoC5/ErikaOS_ee_oo_internal.inc **** 
 263:Generated_Source\PSoC5/ErikaOS_ee_oo_internal.inc **** /* kernel internal API */
 264:Generated_Source\PSoC5/ErikaOS_ee_oo_internal.inc **** #define IncrementCounterHardware EE_oo_IncrementCounterHardware
 265:Generated_Source\PSoC5/ErikaOS_ee_oo_internal.inc **** 
 266:Generated_Source\PSoC5/ErikaOS_ee_oo_internal.inc **** /* Helper function (0 as increment means next tick)*/
 267:Generated_Source\PSoC5/ErikaOS_ee_oo_internal.inc **** void EE_oo_counter_object_insert( CounterObjectType ObjectID, TickType
 268:Generated_Source\PSoC5/ErikaOS_ee_oo_internal.inc ****   increment );
 269:Generated_Source\PSoC5/ErikaOS_ee_oo_internal.inc **** 
 270:Generated_Source\PSoC5/ErikaOS_ee_oo_internal.inc **** #if defined (EE_COUNTER_OBJECTS_ROM_SIZE)
 271:Generated_Source\PSoC5/ErikaOS_ee_oo_internal.inc **** #if (EE_COUNTER_OBJECTS_ROM_SIZE > 0)
 272:Generated_Source\PSoC5/ErikaOS_ee_oo_internal.inc **** __INLINE__ void 
 273:Generated_Source\PSoC5/ErikaOS_ee_oo_internal.inc ****   EE_oo_handle_abs_counter_object_insertion( CounterObjectType ObjectID,
 274:Generated_Source\PSoC5/ErikaOS_ee_oo_internal.inc ****     TickType absstart, TickType abscycle ) 
 275:Generated_Source\PSoC5/ErikaOS_ee_oo_internal.inc **** {
 276:Generated_Source\PSoC5/ErikaOS_ee_oo_internal.inc ****   /* These are used to evaluate alarm time handling wrap around */
 277:Generated_Source\PSoC5/ErikaOS_ee_oo_internal.inc ****   register TickType           alarm_time;
 278:Generated_Source\PSoC5/ErikaOS_ee_oo_internal.inc ****   register TickType           start_rel;
 279:Generated_Source\PSoC5/ErikaOS_ee_oo_internal.inc ****   register CounterType const  cnt = EE_oo_counter_object_ROM[ObjectID].c;
 280:Generated_Source\PSoC5/ErikaOS_ee_oo_internal.inc **** 
 281:Generated_Source\PSoC5/ErikaOS_ee_oo_internal.inc ****   /* first, use the alarm and set the cycle */
 282:Generated_Source\PSoC5/ErikaOS_ee_oo_internal.inc ****   EE_oo_counter_object_RAM[ObjectID].used = EE_TRUE;
 283:Generated_Source\PSoC5/ErikaOS_ee_oo_internal.inc ****   EE_oo_counter_object_RAM[ObjectID].cntcycle = abscycle;
 284:Generated_Source\PSoC5/ErikaOS_ee_oo_internal.inc **** 
 285:Generated_Source\PSoC5/ErikaOS_ee_oo_internal.inc ****   /* Handling wrap around for alarm time */
 286:Generated_Source\PSoC5/ErikaOS_ee_oo_internal.inc ****   start_rel = absstart - EE_counter_RAM[cnt].value;
 287:Generated_Source\PSoC5/ErikaOS_ee_oo_internal.inc **** 
 288:Generated_Source\PSoC5/ErikaOS_ee_oo_internal.inc ****   /*  When will be here start value will be already checked against counter
 289:Generated_Source\PSoC5/ErikaOS_ee_oo_internal.inc ****       max allowed value */
 290:Generated_Source\PSoC5/ErikaOS_ee_oo_internal.inc ****   if ( start_rel == 0U ) {
 291:Generated_Source\PSoC5/ErikaOS_ee_oo_internal.inc ****     /* start_rel == 0U -> the alarm should start now or next time that counter
 292:Generated_Source\PSoC5/ErikaOS_ee_oo_internal.inc ****        has this value. Has been chosen the second option */
 293:Generated_Source\PSoC5/ErikaOS_ee_oo_internal.inc ****     alarm_time = EE_counter_ROM[cnt].maxallowedvalue;
 294:Generated_Source\PSoC5/ErikaOS_ee_oo_internal.inc ****   } else if ( start_rel < EE_TYPETICK_HALF_VALUE ) {
 295:Generated_Source\PSoC5/ErikaOS_ee_oo_internal.inc ****     /* Normal behavior */
 296:Generated_Source\PSoC5/ErikaOS_ee_oo_internal.inc ****     alarm_time = start_rel - 1U;
 297:Generated_Source\PSoC5/ErikaOS_ee_oo_internal.inc ****   } else {
 298:Generated_Source\PSoC5/ErikaOS_ee_oo_internal.inc ****     /* start_rel is "negative" in this case (unsigned wrap around do the
 299:Generated_Source\PSoC5/ErikaOS_ee_oo_internal.inc ****        work) */
ARM GAS  C:\Users\rbhar\AppData\Local\Temp\ccyVjClG.s 			page 16


 300:Generated_Source\PSoC5/ErikaOS_ee_oo_internal.inc ****     alarm_time = EE_counter_ROM[cnt].maxallowedvalue + start_rel;
 301:Generated_Source\PSoC5/ErikaOS_ee_oo_internal.inc ****   }
 302:Generated_Source\PSoC5/ErikaOS_ee_oo_internal.inc **** 
 303:Generated_Source\PSoC5/ErikaOS_ee_oo_internal.inc ****   /* Set alarm with a relative amount of time (alarm_time already is a "0 as
 304:Generated_Source\PSoC5/ErikaOS_ee_oo_internal.inc ****      next tick" value)*/
 305:Generated_Source\PSoC5/ErikaOS_ee_oo_internal.inc ****   EE_oo_counter_object_insert(ObjectID, alarm_time);
 306:Generated_Source\PSoC5/ErikaOS_ee_oo_internal.inc **** }
 307:Generated_Source\PSoC5/ErikaOS_ee_oo_internal.inc **** 
 308:Generated_Source\PSoC5/ErikaOS_ee_oo_internal.inc **** __INLINE__ void 
 309:Generated_Source\PSoC5/ErikaOS_ee_oo_internal.inc ****   EE_oo_handle_rel_counter_object_insertion( CounterObjectType ObjectID,
 310:Generated_Source\PSoC5/ErikaOS_ee_oo_internal.inc ****     TickType increment, TickType relcycle )
 311:Generated_Source\PSoC5/ErikaOS_ee_oo_internal.inc **** {
 312:Generated_Source\PSoC5/ErikaOS_ee_oo_internal.inc **** 
 313:Generated_Source\PSoC5/ErikaOS_ee_oo_internal.inc ****   /* first, use the alarm and set the cycle */
 314:Generated_Source\PSoC5/ErikaOS_ee_oo_internal.inc ****   EE_oo_counter_object_RAM[ObjectID].used = EE_TRUE;
 315:Generated_Source\PSoC5/ErikaOS_ee_oo_internal.inc ****   EE_oo_counter_object_RAM[ObjectID].cntcycle = relcycle;
 316:Generated_Source\PSoC5/ErikaOS_ee_oo_internal.inc **** 
 317:Generated_Source\PSoC5/ErikaOS_ee_oo_internal.inc ****   /* then, insert the task into the delta queue with an increment equal
 318:Generated_Source\PSoC5/ErikaOS_ee_oo_internal.inc ****      (increment - 1U) increment equal to 0 means next tick */
 319:Generated_Source\PSoC5/ErikaOS_ee_oo_internal.inc ****   EE_oo_counter_object_insert(ObjectID, (increment - 1U));
 320:Generated_Source\PSoC5/ErikaOS_ee_oo_internal.inc **** }
 321:Generated_Source\PSoC5/ErikaOS_ee_oo_internal.inc **** 
 322:Generated_Source\PSoC5/ErikaOS_ee_oo_internal.inc **** /* cancellation */
 323:Generated_Source\PSoC5/ErikaOS_ee_oo_internal.inc **** __INLINE__ void  EE_oo_handle_counter_object_cancellation(
 324:Generated_Source\PSoC5/ErikaOS_ee_oo_internal.inc ****   CounterObjectType ObjectID )
 325:Generated_Source\PSoC5/ErikaOS_ee_oo_internal.inc **** {
 326:Generated_Source\PSoC5/ErikaOS_ee_oo_internal.inc ****   register CounterObjectType current, previous;
 327:Generated_Source\PSoC5/ErikaOS_ee_oo_internal.inc ****   register CounterType       ct      = EE_oo_counter_object_ROM[ObjectID].c;
 328:Generated_Source\PSoC5/ErikaOS_ee_oo_internal.inc **** 
 329:Generated_Source\PSoC5/ErikaOS_ee_oo_internal.inc ****   /* to compute the relative value in ticks, we have to follow the counter
 330:Generated_Source\PSoC5/ErikaOS_ee_oo_internal.inc ****      delay chain */
 331:Generated_Source\PSoC5/ErikaOS_ee_oo_internal.inc ****   current = EE_counter_RAM[ct].first;
 332:Generated_Source\PSoC5/ErikaOS_ee_oo_internal.inc **** 
 333:Generated_Source\PSoC5/ErikaOS_ee_oo_internal.inc ****   if ( current == ObjectID ) {
 334:Generated_Source\PSoC5/ErikaOS_ee_oo_internal.inc ****     /* the alarm is the first one in the delta queue */
 335:Generated_Source\PSoC5/ErikaOS_ee_oo_internal.inc ****     EE_counter_RAM[ct].first = EE_oo_counter_object_RAM[ObjectID].next;
 336:Generated_Source\PSoC5/ErikaOS_ee_oo_internal.inc ****   } else {
 337:Generated_Source\PSoC5/ErikaOS_ee_oo_internal.inc ****     /* the alarm is not the first one in the delta queue */
 338:Generated_Source\PSoC5/ErikaOS_ee_oo_internal.inc ****     /* Find it */
 339:Generated_Source\PSoC5/ErikaOS_ee_oo_internal.inc ****     do {
 340:Generated_Source\PSoC5/ErikaOS_ee_oo_internal.inc ****       previous = current;
 341:Generated_Source\PSoC5/ErikaOS_ee_oo_internal.inc ****       current = EE_oo_counter_object_RAM[current].next;
 342:Generated_Source\PSoC5/ErikaOS_ee_oo_internal.inc ****     } while ( current != ObjectID );
 343:Generated_Source\PSoC5/ErikaOS_ee_oo_internal.inc ****     /* remove it from the queue */
 344:Generated_Source\PSoC5/ErikaOS_ee_oo_internal.inc ****     EE_oo_counter_object_RAM[previous].next =
 345:Generated_Source\PSoC5/ErikaOS_ee_oo_internal.inc ****       EE_oo_counter_object_RAM[ObjectID].next;
 346:Generated_Source\PSoC5/ErikaOS_ee_oo_internal.inc ****   }
 347:Generated_Source\PSoC5/ErikaOS_ee_oo_internal.inc ****   /* Adjust delta value */
 348:Generated_Source\PSoC5/ErikaOS_ee_oo_internal.inc ****   if ( EE_oo_counter_object_RAM[ObjectID].next != INVALID_COUNTER_OBJECT ) {
 349:Generated_Source\PSoC5/ErikaOS_ee_oo_internal.inc ****     EE_oo_counter_object_RAM[EE_oo_counter_object_RAM[ObjectID].next].delta +=
 350:Generated_Source\PSoC5/ErikaOS_ee_oo_internal.inc ****       EE_oo_counter_object_RAM[ObjectID].delta;
 351:Generated_Source\PSoC5/ErikaOS_ee_oo_internal.inc ****   }
 352:Generated_Source\PSoC5/ErikaOS_ee_oo_internal.inc **** 
 353:Generated_Source\PSoC5/ErikaOS_ee_oo_internal.inc ****   EE_oo_counter_object_RAM[ObjectID].used = EE_FALSE;
 354:Generated_Source\PSoC5/ErikaOS_ee_oo_internal.inc **** }
 355:Generated_Source\PSoC5/ErikaOS_ee_oo_internal.inc **** #endif /* EE_COUNTER_OBJECTS_ROM_SIZE */
 356:Generated_Source\PSoC5/ErikaOS_ee_oo_internal.inc **** #endif /* EE_COUNTER_OBJECTS_ROM_SIZE > 0 */
ARM GAS  C:\Users\rbhar\AppData\Local\Temp\ccyVjClG.s 			page 17


 357:Generated_Source\PSoC5/ErikaOS_ee_oo_internal.inc **** #endif /* !__OO_NO_ALARMS__ || EE_AS_SCHEDULETABLES__ */
 358:Generated_Source\PSoC5/ErikaOS_ee_oo_internal.inc **** 
 359:Generated_Source\PSoC5/ErikaOS_ee_oo_internal.inc **** /*************************************************************************
 360:Generated_Source\PSoC5/ErikaOS_ee_oo_internal.inc ****  HAL extensions
 361:Generated_Source\PSoC5/ErikaOS_ee_oo_internal.inc ****  *************************************************************************/
 362:Generated_Source\PSoC5/ErikaOS_ee_oo_internal.inc **** 
 363:Generated_Source\PSoC5/ErikaOS_ee_oo_internal.inc ****  /* these are the functions that have been inserted to support tha OO layer
 364:Generated_Source\PSoC5/ErikaOS_ee_oo_internal.inc ****     under the EE HAL.
 365:Generated_Source\PSoC5/ErikaOS_ee_oo_internal.inc ****     
 366:Generated_Source\PSoC5/ErikaOS_ee_oo_internal.inc ****     - all the functions for interrupt handling (13.3)
 367:Generated_Source\PSoC5/ErikaOS_ee_oo_internal.inc ****     - EE_hal_begin_nested_primitive
 368:Generated_Source\PSoC5/ErikaOS_ee_oo_internal.inc ****       EE_hal_end_nested_primitive 
 369:Generated_Source\PSoC5/ErikaOS_ee_oo_internal.inc ****       (for primitives that can be called both into a task and into an ISR2
 370:Generated_Source\PSoC5/ErikaOS_ee_oo_internal.inc ****     - EE_hal_terminate_task(EE_TID t)
 371:Generated_Source\PSoC5/ErikaOS_ee_oo_internal.inc ****     - EE_hal_terminate_savestk(EE_TID t)
 372:Generated_Source\PSoC5/ErikaOS_ee_oo_internal.inc ****       EE_oo_preemption_point() execute task preemption if is needed
 373:Generated_Source\PSoC5/ErikaOS_ee_oo_internal.inc ****     - EE_oo_shutdown() if not redefined it does for(;;);
 374:Generated_Source\PSoC5/ErikaOS_ee_oo_internal.inc ****     - All the alarm constants listed in 13.6.4
 375:Generated_Source\PSoC5/ErikaOS_ee_oo_internal.inc ****  */
 376:Generated_Source\PSoC5/ErikaOS_ee_oo_internal.inc **** 
 377:Generated_Source\PSoC5/ErikaOS_ee_oo_internal.inc **** 
 378:Generated_Source\PSoC5/ErikaOS_ee_oo_internal.inc **** /***************************************************************************
 379:Generated_Source\PSoC5/ErikaOS_ee_oo_internal.inc ****  * Internal data structures and functions
 380:Generated_Source\PSoC5/ErikaOS_ee_oo_internal.inc ****  ***************************************************************************/
 381:Generated_Source\PSoC5/ErikaOS_ee_oo_internal.inc **** 
 382:Generated_Source\PSoC5/ErikaOS_ee_oo_internal.inc **** /*
 383:Generated_Source\PSoC5/ErikaOS_ee_oo_internal.inc ****     Call Hooks utilities
 384:Generated_Source\PSoC5/ErikaOS_ee_oo_internal.inc ****  */
 385:Generated_Source\PSoC5/ErikaOS_ee_oo_internal.inc **** 
 386:Generated_Source\PSoC5/ErikaOS_ee_oo_internal.inc **** #ifdef __OO_HAS_PRETASKHOOK__
 387:Generated_Source\PSoC5/ErikaOS_ee_oo_internal.inc **** __INLINE__ void  EE_oo_call_PreTaskHook(void)
 388:Generated_Source\PSoC5/ErikaOS_ee_oo_internal.inc **** {
 389:Generated_Source\PSoC5/ErikaOS_ee_oo_internal.inc ****   EE_as_set_execution_context( PreTaskHook_Context );
 390:Generated_Source\PSoC5/ErikaOS_ee_oo_internal.inc ****   PreTaskHook();
 391:Generated_Source\PSoC5/ErikaOS_ee_oo_internal.inc ****   /* Set the execution context on TASK */
 392:Generated_Source\PSoC5/ErikaOS_ee_oo_internal.inc ****   EE_as_set_execution_context( TASK_Context );
 393:Generated_Source\PSoC5/ErikaOS_ee_oo_internal.inc **** }
 394:Generated_Source\PSoC5/ErikaOS_ee_oo_internal.inc **** 
 395:Generated_Source\PSoC5/ErikaOS_ee_oo_internal.inc **** #else /* __OO_HAS_PRETASKHOOK__ */
 396:Generated_Source\PSoC5/ErikaOS_ee_oo_internal.inc **** __INLINE__ void  EE_oo_call_PreTaskHook(void)
 397:Generated_Source\PSoC5/ErikaOS_ee_oo_internal.inc **** {
 398:Generated_Source\PSoC5/ErikaOS_ee_oo_internal.inc ****   /* Set the execution context on TASK */
 399:Generated_Source\PSoC5/ErikaOS_ee_oo_internal.inc ****   EE_as_set_execution_context( TASK_Context );
 400:Generated_Source\PSoC5/ErikaOS_ee_oo_internal.inc **** }
 401:Generated_Source\PSoC5/ErikaOS_ee_oo_internal.inc **** #endif /* __OO_HAS_PRETASKHOOK__ */
 402:Generated_Source\PSoC5/ErikaOS_ee_oo_internal.inc **** 
 403:Generated_Source\PSoC5/ErikaOS_ee_oo_internal.inc **** #if defined(__OO_HAS_POSTTASKHOOK__)
 404:Generated_Source\PSoC5/ErikaOS_ee_oo_internal.inc **** __INLINE__ void  EE_oo_call_PostTaskHook(void)
 405:Generated_Source\PSoC5/ErikaOS_ee_oo_internal.inc **** {
 406:Generated_Source\PSoC5/ErikaOS_ee_oo_internal.inc ****   EE_as_set_execution_context( PostTaskHook_Context );
 407:Generated_Source\PSoC5/ErikaOS_ee_oo_internal.inc ****   PostTaskHook();
 408:Generated_Source\PSoC5/ErikaOS_ee_oo_internal.inc **** }
 409:Generated_Source\PSoC5/ErikaOS_ee_oo_internal.inc **** #else /* __OO_HAS_POSTTASKHOOK__ */
 410:Generated_Source\PSoC5/ErikaOS_ee_oo_internal.inc **** __INLINE__ void  EE_oo_call_PostTaskHook(void) {}
 411:Generated_Source\PSoC5/ErikaOS_ee_oo_internal.inc **** #endif /* __OO_HAS_POSTTASKHOOK__ */
 412:Generated_Source\PSoC5/ErikaOS_ee_oo_internal.inc **** 
 413:Generated_Source\PSoC5/ErikaOS_ee_oo_internal.inc **** 
ARM GAS  C:\Users\rbhar\AppData\Local\Temp\ccyVjClG.s 			page 18


 414:Generated_Source\PSoC5/ErikaOS_ee_oo_internal.inc **** /* StartOS Flag defined inside ee_startos.c to check that the system has correctly started */
 415:Generated_Source\PSoC5/ErikaOS_ee_oo_internal.inc **** extern EE_UREG volatile EE_oo_started;
 416:Generated_Source\PSoC5/ErikaOS_ee_oo_internal.inc **** 
 417:Generated_Source\PSoC5/ErikaOS_ee_oo_internal.inc **** 
 418:Generated_Source\PSoC5/ErikaOS_ee_oo_internal.inc **** /* Used to check if we are in disable interrupt error. It return
 419:Generated_Source\PSoC5/ErikaOS_ee_oo_internal.inc ****    'signed register type' because usually it is native integer type. */
 420:Generated_Source\PSoC5/ErikaOS_ee_oo_internal.inc **** __INLINE__ EE_TYPEBOOL  EE_oo_check_disableint_error(void)
 421:Generated_Source\PSoC5/ErikaOS_ee_oo_internal.inc **** {
 422:Generated_Source\PSoC5/ErikaOS_ee_oo_internal.inc ****   return ( EE_oo_IRQ_disable_count != 0U );
 174              		.loc 3 422 0
 175 0000 034B     		ldr	r3, .L16
 176 0002 1B68     		ldr	r3, [r3]
 177              	.LBE35:
 178              	.LBE34:
 204:Generated_Source\PSoC5/ErikaOS_ee_irqendin.c ****   /* [OS368]: If a Category 2 OsIsr calls DisableAllInterupts()/
 205:Generated_Source\PSoC5/ErikaOS_ee_irqendin.c ****       SuspendAllInterrupts()/SuspendOSInterrupts() and ends (returns)
 206:Generated_Source\PSoC5/ErikaOS_ee_irqendin.c ****       without calling the corresponding EnableAllInterrupts()/
 207:Generated_Source\PSoC5/ErikaOS_ee_irqendin.c ****       ResumeAllInterrupts() / ResumeOSInterrupts(),
 208:Generated_Source\PSoC5/ErikaOS_ee_irqendin.c ****       the Operating System shall perform the missing service and shall call
 209:Generated_Source\PSoC5/ErikaOS_ee_irqendin.c ****       the ErrorHook() (if configured) with the status E_OS_DISABLEDINT. */
 210:Generated_Source\PSoC5/ErikaOS_ee_irqendin.c **** 
 211:Generated_Source\PSoC5/ErikaOS_ee_irqendin.c ****   /* Only check and reset ISR flags an counters because ISR re-enabling is done
 212:Generated_Source\PSoC5/ErikaOS_ee_irqendin.c ****      in CPU layer */
 213:Generated_Source\PSoC5/ErikaOS_ee_irqendin.c ****   if ( EE_oo_check_disableint_error() )
 179              		.loc 1 213 0
 180 0004 13B1     		cbz	r3, .L14
 214:Generated_Source\PSoC5/ErikaOS_ee_irqendin.c ****   {
 215:Generated_Source\PSoC5/ErikaOS_ee_irqendin.c ****     EE_ORTI_set_lasterror(E_OS_DISABLEDINT);
 216:Generated_Source\PSoC5/ErikaOS_ee_irqendin.c ****     EE_oo_notify_error_service(OSId_ISR2Body, E_OS_DISABLEDINT);
 217:Generated_Source\PSoC5/ErikaOS_ee_irqendin.c ****     /* Reset ISRs counter */
 218:Generated_Source\PSoC5/ErikaOS_ee_irqendin.c ****     EE_oo_IRQ_disable_count = 0U;
 181              		.loc 1 218 0
 182 0006 0022     		movs	r2, #0
 183 0008 014B     		ldr	r3, .L16
 184 000a 1A60     		str	r2, [r3]
 185              	.L14:
 186 000c 7047     		bx	lr
 187              	.L17:
 188 000e 00BF     		.align	2
 189              	.L16:
 190 0010 00000000 		.word	EE_oo_IRQ_disable_count
 191              		.cfi_endproc
 192              	.LFE62:
 193              		.size	EE_IRQ_end_post_stub, .-EE_IRQ_end_post_stub
 194              		.text
 195              	.Letext0:
 196              		.file 4 "Generated_Source\\PSoC5\\ErikaOS_common_ee_types.inc"
 197              		.file 5 "Generated_Source\\PSoC5\\ErikaOS_cortex_mx_ee_cpu.inc"
 198              		.file 6 "Generated_Source\\PSoC5\\ErikaOS_ee_oo_common.inc"
 199              		.file 7 "Generated_Source\\PSoC5\\ErikaOS_common_ee_primitives.inc"
 200              		.file 8 "Generated_Source\\PSoC5\\ErikaOS_ee_oo_intfunc.inc"