ARM GAS  C:\Users\rbhar\AppData\Local\Temp\ccOWMrSf.s 			page 1


   1              		.syntax unified
   2              		.cpu cortex-m3
   3              		.fpu softvfp
   4              		.eabi_attribute 20, 1
   5              		.eabi_attribute 21, 1
   6              		.eabi_attribute 23, 3
   7              		.eabi_attribute 24, 1
   8              		.eabi_attribute 25, 1
   9              		.eabi_attribute 26, 1
  10              		.eabi_attribute 30, 1
  11              		.eabi_attribute 34, 1
  12              		.eabi_attribute 18, 4
  13              		.thumb
  14              		.syntax unified
  15              		.file	"ErikaOS_ee_alsetrel.c"
  16              		.text
  17              	.Ltext0:
  18              		.cfi_sections	.debug_frame
  19              		.section	.text.EE_oo_SetRelAlarm,"ax",%progbits
  20              		.align	2
  21              		.global	EE_oo_SetRelAlarm
  22              		.thumb
  23              		.thumb_func
  24              		.type	EE_oo_SetRelAlarm, %function
  25              	EE_oo_SetRelAlarm:
  26              	.LFB70:
  27              		.file 1 "Generated_Source\\PSoC5\\ErikaOS_ee_alsetrel.c"
   1:Generated_Source\PSoC5/ErikaOS_ee_alsetrel.c **** /* ###*B*###
   2:Generated_Source\PSoC5/ErikaOS_ee_alsetrel.c ****  * ERIKA Enterprise - a tiny RTOS for small microcontrollers
   3:Generated_Source\PSoC5/ErikaOS_ee_alsetrel.c ****  *
   4:Generated_Source\PSoC5/ErikaOS_ee_alsetrel.c ****  * Copyright (C) 2002-2008  Evidence Srl
   5:Generated_Source\PSoC5/ErikaOS_ee_alsetrel.c ****  *
   6:Generated_Source\PSoC5/ErikaOS_ee_alsetrel.c ****  * This file is part of ERIKA Enterprise.
   7:Generated_Source\PSoC5/ErikaOS_ee_alsetrel.c ****  *
   8:Generated_Source\PSoC5/ErikaOS_ee_alsetrel.c ****  * ERIKA Enterprise is free software; you can redistribute it
   9:Generated_Source\PSoC5/ErikaOS_ee_alsetrel.c ****  * and/or modify it under the terms of the GNU General Public License
  10:Generated_Source\PSoC5/ErikaOS_ee_alsetrel.c ****  * version 2 as published by the Free Software Foundation, 
  11:Generated_Source\PSoC5/ErikaOS_ee_alsetrel.c ****  * (with a special exception described below).
  12:Generated_Source\PSoC5/ErikaOS_ee_alsetrel.c ****  *
  13:Generated_Source\PSoC5/ErikaOS_ee_alsetrel.c ****  * Linking this code statically or dynamically with other modules is
  14:Generated_Source\PSoC5/ErikaOS_ee_alsetrel.c ****  * making a combined work based on this code.  Thus, the terms and
  15:Generated_Source\PSoC5/ErikaOS_ee_alsetrel.c ****  * conditions of the GNU General Public License cover the whole
  16:Generated_Source\PSoC5/ErikaOS_ee_alsetrel.c ****  * combination.
  17:Generated_Source\PSoC5/ErikaOS_ee_alsetrel.c ****  *
  18:Generated_Source\PSoC5/ErikaOS_ee_alsetrel.c ****  * As a special exception, the copyright holders of this library give you
  19:Generated_Source\PSoC5/ErikaOS_ee_alsetrel.c ****  * permission to link this code with independent modules to produce an
  20:Generated_Source\PSoC5/ErikaOS_ee_alsetrel.c ****  * executable, regardless of the license terms of these independent
  21:Generated_Source\PSoC5/ErikaOS_ee_alsetrel.c ****  * modules, and to copy and distribute the resulting executable under
  22:Generated_Source\PSoC5/ErikaOS_ee_alsetrel.c ****  * terms of your choice, provided that you also meet, for each linked
  23:Generated_Source\PSoC5/ErikaOS_ee_alsetrel.c ****  * independent module, the terms and conditions of the license of that
  24:Generated_Source\PSoC5/ErikaOS_ee_alsetrel.c ****  * module.  An independent module is a module which is not derived from
  25:Generated_Source\PSoC5/ErikaOS_ee_alsetrel.c ****  * or based on this library.  If you modify this code, you may extend
  26:Generated_Source\PSoC5/ErikaOS_ee_alsetrel.c ****  * this exception to your version of the code, but you are not
  27:Generated_Source\PSoC5/ErikaOS_ee_alsetrel.c ****  * obligated to do so.  If you do not wish to do so, delete this
  28:Generated_Source\PSoC5/ErikaOS_ee_alsetrel.c ****  * exception statement from your version.
  29:Generated_Source\PSoC5/ErikaOS_ee_alsetrel.c ****  *
  30:Generated_Source\PSoC5/ErikaOS_ee_alsetrel.c ****  * ERIKA Enterprise is distributed in the hope that it will be
ARM GAS  C:\Users\rbhar\AppData\Local\Temp\ccOWMrSf.s 			page 2


  31:Generated_Source\PSoC5/ErikaOS_ee_alsetrel.c ****  * useful, but WITHOUT ANY WARRANTY; without even the implied warranty
  32:Generated_Source\PSoC5/ErikaOS_ee_alsetrel.c ****  * of MERCHANTABILITY or FITNESS FOR A PARTICULAR PURPOSE.  See the
  33:Generated_Source\PSoC5/ErikaOS_ee_alsetrel.c ****  * GNU General Public License version 2 for more details.
  34:Generated_Source\PSoC5/ErikaOS_ee_alsetrel.c ****  *
  35:Generated_Source\PSoC5/ErikaOS_ee_alsetrel.c ****  * You should have received a copy of the GNU General Public License
  36:Generated_Source\PSoC5/ErikaOS_ee_alsetrel.c ****  * version 2 along with ERIKA Enterprise; if not, write to the
  37:Generated_Source\PSoC5/ErikaOS_ee_alsetrel.c ****  * Free Software Foundation, Inc., 51 Franklin Street, Fifth Floor,
  38:Generated_Source\PSoC5/ErikaOS_ee_alsetrel.c ****  * Boston, MA 02110-1301 USA.
  39:Generated_Source\PSoC5/ErikaOS_ee_alsetrel.c ****  * ###*E*### */
  40:Generated_Source\PSoC5/ErikaOS_ee_alsetrel.c **** 
  41:Generated_Source\PSoC5/ErikaOS_ee_alsetrel.c **** /*
  42:Generated_Source\PSoC5/ErikaOS_ee_alsetrel.c ****  * Author: 2002 Paolo Gai
  43:Generated_Source\PSoC5/ErikaOS_ee_alsetrel.c ****  * CVS: $Id: ee_alsetrel.c,v 1.1 2005/07/16 12:23:42 pj Exp $
  44:Generated_Source\PSoC5/ErikaOS_ee_alsetrel.c ****  */
  45:Generated_Source\PSoC5/ErikaOS_ee_alsetrel.c **** 
  46:Generated_Source\PSoC5/ErikaOS_ee_alsetrel.c **** /*
  47:Generated_Source\PSoC5/ErikaOS_ee_alsetrel.c ****  * PSoC Port and API Generation
  48:Generated_Source\PSoC5/ErikaOS_ee_alsetrel.c ****  * Carlos Fernando Meier Martinez
  49:Generated_Source\PSoC5/ErikaOS_ee_alsetrel.c ****  * Hochschule Darmstadt, Germany. 2017.
  50:Generated_Source\PSoC5/ErikaOS_ee_alsetrel.c ****  */
  51:Generated_Source\PSoC5/ErikaOS_ee_alsetrel.c **** 
  52:Generated_Source\PSoC5/ErikaOS_ee_alsetrel.c **** #include "ErikaOS_ee_internal.inc"
  53:Generated_Source\PSoC5/ErikaOS_ee_alsetrel.c **** #if (defined(__OO_BCC1__) || defined(__OO_BCC2__) || defined(__OO_ECC1__) || defined(__OO_ECC2__)) 
  54:Generated_Source\PSoC5/ErikaOS_ee_alsetrel.c **** 
  55:Generated_Source\PSoC5/ErikaOS_ee_alsetrel.c **** /* SetRelAlarm
  56:Generated_Source\PSoC5/ErikaOS_ee_alsetrel.c ****    - This function occupies the AlarmID setting an alarm after increment ticks.
  57:Generated_Source\PSoC5/ErikaOS_ee_alsetrel.c ****    - if increment=0, E_OS_VALUE is returned.
  58:Generated_Source\PSoC5/ErikaOS_ee_alsetrel.c ****    - the Alarm must not be already in use
  59:Generated_Source\PSoC5/ErikaOS_ee_alsetrel.c **** 
  60:Generated_Source\PSoC5/ErikaOS_ee_alsetrel.c ****    returns the relative value in ticks before the alarm expires
  61:Generated_Source\PSoC5/ErikaOS_ee_alsetrel.c ****    - it returns E_OK if all OK
  62:Generated_Source\PSoC5/ErikaOS_ee_alsetrel.c ****      E_OS_STATE if the Alarm is already used
  63:Generated_Source\PSoC5/ErikaOS_ee_alsetrel.c ****      E_OS_ID if the alarm is invalid (only Extended status)
  64:Generated_Source\PSoC5/ErikaOS_ee_alsetrel.c ****      E_OS_VALUE if the parameters are incorrect
  65:Generated_Source\PSoC5/ErikaOS_ee_alsetrel.c **** */
  66:Generated_Source\PSoC5/ErikaOS_ee_alsetrel.c **** 
  67:Generated_Source\PSoC5/ErikaOS_ee_alsetrel.c **** #ifndef __PRIVATE_SETRELALARM__
  68:Generated_Source\PSoC5/ErikaOS_ee_alsetrel.c **** StatusType EE_oo_SetRelAlarm(AlarmType AlarmID, 
  69:Generated_Source\PSoC5/ErikaOS_ee_alsetrel.c ****     TickType increment, TickType cycle)
  70:Generated_Source\PSoC5/ErikaOS_ee_alsetrel.c **** {
  28              		.loc 1 70 0
  29              		.cfi_startproc
  30              		@ args = 0, pretend = 0, frame = 0
  31              		@ frame_needed = 0, uses_anonymous_args = 0
  32              	.LVL0:
  33 0000 F8B5     		push	{r3, r4, r5, r6, r7, lr}
  34              		.cfi_def_cfa_offset 24
  35              		.cfi_offset 3, -24
  36              		.cfi_offset 4, -20
  37              		.cfi_offset 5, -16
  38              		.cfi_offset 6, -12
  39              		.cfi_offset 7, -8
  40              		.cfi_offset 14, -4
  41              	.LBB26:
  42              	.LBB27:
  43              	.LBB28:
  44              		.file 2 "Generated_Source\\PSoC5\\ErikaOS_cortex_mx_ee_cpu.inc"
ARM GAS  C:\Users\rbhar\AppData\Local\Temp\ccOWMrSf.s 			page 3


   1:Generated_Source\PSoC5/ErikaOS_cortex_mx_ee_cpu.inc **** /* ###*B*###
   2:Generated_Source\PSoC5/ErikaOS_cortex_mx_ee_cpu.inc ****  * ERIKA Enterprise - a tiny RTOS for small microcontrollers
   3:Generated_Source\PSoC5/ErikaOS_cortex_mx_ee_cpu.inc ****  *
   4:Generated_Source\PSoC5/ErikaOS_cortex_mx_ee_cpu.inc ****  * Copyright (C) 2002-2011  Evidence Srl
   5:Generated_Source\PSoC5/ErikaOS_cortex_mx_ee_cpu.inc ****  *
   6:Generated_Source\PSoC5/ErikaOS_cortex_mx_ee_cpu.inc ****  * This file is part of ERIKA Enterprise.
   7:Generated_Source\PSoC5/ErikaOS_cortex_mx_ee_cpu.inc ****  *
   8:Generated_Source\PSoC5/ErikaOS_cortex_mx_ee_cpu.inc ****  * ERIKA Enterprise is free software; you can redistribute it
   9:Generated_Source\PSoC5/ErikaOS_cortex_mx_ee_cpu.inc ****  * and/or modify it under the terms of the GNU General Public License
  10:Generated_Source\PSoC5/ErikaOS_cortex_mx_ee_cpu.inc ****  * version 2 as published by the Free Software Foundation, 
  11:Generated_Source\PSoC5/ErikaOS_cortex_mx_ee_cpu.inc ****  * (with a special exception described below).
  12:Generated_Source\PSoC5/ErikaOS_cortex_mx_ee_cpu.inc ****  *
  13:Generated_Source\PSoC5/ErikaOS_cortex_mx_ee_cpu.inc ****  * Linking this code statically or dynamically with other modules is
  14:Generated_Source\PSoC5/ErikaOS_cortex_mx_ee_cpu.inc ****  * making a combined work based on this code.  Thus, the terms and
  15:Generated_Source\PSoC5/ErikaOS_cortex_mx_ee_cpu.inc ****  * conditions of the GNU General Public License cover the whole
  16:Generated_Source\PSoC5/ErikaOS_cortex_mx_ee_cpu.inc ****  * combination.
  17:Generated_Source\PSoC5/ErikaOS_cortex_mx_ee_cpu.inc ****  *
  18:Generated_Source\PSoC5/ErikaOS_cortex_mx_ee_cpu.inc ****  * As a special exception, the copyright holders of this library give you
  19:Generated_Source\PSoC5/ErikaOS_cortex_mx_ee_cpu.inc ****  * permission to link this code with independent modules to produce an
  20:Generated_Source\PSoC5/ErikaOS_cortex_mx_ee_cpu.inc ****  * executable, regardless of the license terms of these independent
  21:Generated_Source\PSoC5/ErikaOS_cortex_mx_ee_cpu.inc ****  * modules, and to copy and distribute the resulting executable under
  22:Generated_Source\PSoC5/ErikaOS_cortex_mx_ee_cpu.inc ****  * terms of your choice, provided that you also meet, for each linked
  23:Generated_Source\PSoC5/ErikaOS_cortex_mx_ee_cpu.inc ****  * independent module, the terms and conditions of the license of that
  24:Generated_Source\PSoC5/ErikaOS_cortex_mx_ee_cpu.inc ****  * module.  An independent module is a module which is not derived from
  25:Generated_Source\PSoC5/ErikaOS_cortex_mx_ee_cpu.inc ****  * or based on this library.  If you modify this code, you may extend
  26:Generated_Source\PSoC5/ErikaOS_cortex_mx_ee_cpu.inc ****  * this exception to your version of the code, but you are not
  27:Generated_Source\PSoC5/ErikaOS_cortex_mx_ee_cpu.inc ****  * obligated to do so.  If you do not wish to do so, delete this
  28:Generated_Source\PSoC5/ErikaOS_cortex_mx_ee_cpu.inc ****  * exception statement from your version.
  29:Generated_Source\PSoC5/ErikaOS_cortex_mx_ee_cpu.inc ****  *
  30:Generated_Source\PSoC5/ErikaOS_cortex_mx_ee_cpu.inc ****  * ERIKA Enterprise is distributed in the hope that it will be
  31:Generated_Source\PSoC5/ErikaOS_cortex_mx_ee_cpu.inc ****  * useful, but WITHOUT ANY WARRANTY; without even the implied warranty
  32:Generated_Source\PSoC5/ErikaOS_cortex_mx_ee_cpu.inc ****  * of MERCHANTABILITY or FITNESS FOR A PARTICULAR PURPOSE.  See the
  33:Generated_Source\PSoC5/ErikaOS_cortex_mx_ee_cpu.inc ****  * GNU General Public License version 2 for more details.
  34:Generated_Source\PSoC5/ErikaOS_cortex_mx_ee_cpu.inc ****  *
  35:Generated_Source\PSoC5/ErikaOS_cortex_mx_ee_cpu.inc ****  * You should have received a copy of the GNU General Public License
  36:Generated_Source\PSoC5/ErikaOS_cortex_mx_ee_cpu.inc ****  * version 2 along with ERIKA Enterprise; if not, write to the
  37:Generated_Source\PSoC5/ErikaOS_cortex_mx_ee_cpu.inc ****  * Free Software Foundation, Inc., 51 Franklin Street, Fifth Floor,
  38:Generated_Source\PSoC5/ErikaOS_cortex_mx_ee_cpu.inc ****  * Boston, MA 02110-1301 USA.
  39:Generated_Source\PSoC5/ErikaOS_cortex_mx_ee_cpu.inc ****  * ###*E*### */
  40:Generated_Source\PSoC5/ErikaOS_cortex_mx_ee_cpu.inc **** 
  41:Generated_Source\PSoC5/ErikaOS_cortex_mx_ee_cpu.inc **** /** 
  42:Generated_Source\PSoC5/ErikaOS_cortex_mx_ee_cpu.inc **** 	@file ee_cpu.h
  43:Generated_Source\PSoC5/ErikaOS_cortex_mx_ee_cpu.inc **** 	@brief CPU-dependent part of HAL. Derived from pkg/cpu/pic30/inc/ee_cpu.h
  44:Generated_Source\PSoC5/ErikaOS_cortex_mx_ee_cpu.inc **** 	@author Gianluca Franchino
  45:Generated_Source\PSoC5/ErikaOS_cortex_mx_ee_cpu.inc **** 	@author Giuseppe Serano
  46:Generated_Source\PSoC5/ErikaOS_cortex_mx_ee_cpu.inc **** 	@date 2011
  47:Generated_Source\PSoC5/ErikaOS_cortex_mx_ee_cpu.inc **** */ 
  48:Generated_Source\PSoC5/ErikaOS_cortex_mx_ee_cpu.inc ****     
  49:Generated_Source\PSoC5/ErikaOS_cortex_mx_ee_cpu.inc **** /*
  50:Generated_Source\PSoC5/ErikaOS_cortex_mx_ee_cpu.inc ****  * PSoC Port and API Generation
  51:Generated_Source\PSoC5/ErikaOS_cortex_mx_ee_cpu.inc ****  * Carlos Fernando Meier Martinez
  52:Generated_Source\PSoC5/ErikaOS_cortex_mx_ee_cpu.inc ****  * Hochschule Darmstadt, Germany. 2017.
  53:Generated_Source\PSoC5/ErikaOS_cortex_mx_ee_cpu.inc ****  */
  54:Generated_Source\PSoC5/ErikaOS_cortex_mx_ee_cpu.inc **** 
  55:Generated_Source\PSoC5/ErikaOS_cortex_mx_ee_cpu.inc **** #ifndef __INCLUDE_CORTEX_MX_EE_CPU_H__
  56:Generated_Source\PSoC5/ErikaOS_cortex_mx_ee_cpu.inc **** #define __INCLUDE_CORTEX_MX_EE_CPU_H__
  57:Generated_Source\PSoC5/ErikaOS_cortex_mx_ee_cpu.inc **** 
ARM GAS  C:\Users\rbhar\AppData\Local\Temp\ccOWMrSf.s 			page 4


  58:Generated_Source\PSoC5/ErikaOS_cortex_mx_ee_cpu.inc **** #include "ErikaOS_eecfg.inc"
  59:Generated_Source\PSoC5/ErikaOS_cortex_mx_ee_cpu.inc **** 
  60:Generated_Source\PSoC5/ErikaOS_cortex_mx_ee_cpu.inc **** 
  61:Generated_Source\PSoC5/ErikaOS_cortex_mx_ee_cpu.inc **** #ifdef __GNU__
  62:Generated_Source\PSoC5/ErikaOS_cortex_mx_ee_cpu.inc **** #include "ErikaOS_common_ee_compiler_gcc.inc"
  63:Generated_Source\PSoC5/ErikaOS_cortex_mx_ee_cpu.inc **** #endif
  64:Generated_Source\PSoC5/ErikaOS_cortex_mx_ee_cpu.inc **** 
  65:Generated_Source\PSoC5/ErikaOS_cortex_mx_ee_cpu.inc **** /* Initial stack offset (in words): Used in multistack. */
  66:Generated_Source\PSoC5/ErikaOS_cortex_mx_ee_cpu.inc **** #ifndef CORTEX_MX_INIT_TOS_OFFSET
  67:Generated_Source\PSoC5/ErikaOS_cortex_mx_ee_cpu.inc **** #define CORTEX_MX_INIT_TOS_OFFSET 10
  68:Generated_Source\PSoC5/ErikaOS_cortex_mx_ee_cpu.inc **** #endif
  69:Generated_Source\PSoC5/ErikaOS_cortex_mx_ee_cpu.inc **** 
  70:Generated_Source\PSoC5/ErikaOS_cortex_mx_ee_cpu.inc **** /*************************************************************************
  71:Generated_Source\PSoC5/ErikaOS_cortex_mx_ee_cpu.inc ****  HAL Types and structures
  72:Generated_Source\PSoC5/ErikaOS_cortex_mx_ee_cpu.inc ****  *************************************************************************/
  73:Generated_Source\PSoC5/ErikaOS_cortex_mx_ee_cpu.inc **** 
  74:Generated_Source\PSoC5/ErikaOS_cortex_mx_ee_cpu.inc **** /* Primitive data types */
  75:Generated_Source\PSoC5/ErikaOS_cortex_mx_ee_cpu.inc **** #include "ErikaOS_common_ee_types.inc"
  76:Generated_Source\PSoC5/ErikaOS_cortex_mx_ee_cpu.inc **** 
  77:Generated_Source\PSoC5/ErikaOS_cortex_mx_ee_cpu.inc **** typedef EE_UINT32 EE_UREG;
  78:Generated_Source\PSoC5/ErikaOS_cortex_mx_ee_cpu.inc **** typedef EE_INT32  EE_SREG;
  79:Generated_Source\PSoC5/ErikaOS_cortex_mx_ee_cpu.inc **** typedef EE_UINT32 EE_FREG;
  80:Generated_Source\PSoC5/ErikaOS_cortex_mx_ee_cpu.inc **** #define EE_UREG_SIZE 4
  81:Generated_Source\PSoC5/ErikaOS_cortex_mx_ee_cpu.inc **** 
  82:Generated_Source\PSoC5/ErikaOS_cortex_mx_ee_cpu.inc **** /* boolean type */
  83:Generated_Source\PSoC5/ErikaOS_cortex_mx_ee_cpu.inc **** #ifndef EE_TYPEBOOL
  84:Generated_Source\PSoC5/ErikaOS_cortex_mx_ee_cpu.inc **** typedef EE_UREG EE_TYPEBOOL;
  85:Generated_Source\PSoC5/ErikaOS_cortex_mx_ee_cpu.inc **** #endif
  86:Generated_Source\PSoC5/ErikaOS_cortex_mx_ee_cpu.inc **** 
  87:Generated_Source\PSoC5/ErikaOS_cortex_mx_ee_cpu.inc **** /* boolean true define */
  88:Generated_Source\PSoC5/ErikaOS_cortex_mx_ee_cpu.inc **** #ifndef EE_TRUE
  89:Generated_Source\PSoC5/ErikaOS_cortex_mx_ee_cpu.inc **** #define EE_TRUE ((EE_TYPEBOOL)1U)
  90:Generated_Source\PSoC5/ErikaOS_cortex_mx_ee_cpu.inc **** #endif
  91:Generated_Source\PSoC5/ErikaOS_cortex_mx_ee_cpu.inc **** 
  92:Generated_Source\PSoC5/ErikaOS_cortex_mx_ee_cpu.inc **** /* boolean false define */
  93:Generated_Source\PSoC5/ErikaOS_cortex_mx_ee_cpu.inc **** #ifndef EE_FALSE
  94:Generated_Source\PSoC5/ErikaOS_cortex_mx_ee_cpu.inc **** #define EE_FALSE ((EE_TYPEBOOL)0U)
  95:Generated_Source\PSoC5/ErikaOS_cortex_mx_ee_cpu.inc **** #endif
  96:Generated_Source\PSoC5/ErikaOS_cortex_mx_ee_cpu.inc **** 
  97:Generated_Source\PSoC5/ErikaOS_cortex_mx_ee_cpu.inc **** #define	EE_HWREG_PTR		volatile EE_UREG *
  98:Generated_Source\PSoC5/ErikaOS_cortex_mx_ee_cpu.inc **** #define	EE_HWREG_ADDR(x)	((EE_HWREG_PTR)(x))
  99:Generated_Source\PSoC5/ErikaOS_cortex_mx_ee_cpu.inc **** #define	EE_HWREG(x)		(*EE_HWREG_ADDR(x))
 100:Generated_Source\PSoC5/ErikaOS_cortex_mx_ee_cpu.inc **** 
 101:Generated_Source\PSoC5/ErikaOS_cortex_mx_ee_cpu.inc **** #ifdef __GNU__
 102:Generated_Source\PSoC5/ErikaOS_cortex_mx_ee_cpu.inc **** 
 103:Generated_Source\PSoC5/ErikaOS_cortex_mx_ee_cpu.inc **** /* Get current SP */
 104:Generated_Source\PSoC5/ErikaOS_cortex_mx_ee_cpu.inc **** __INLINE__ EE_UINT32  __current_sp(void)
 105:Generated_Source\PSoC5/ErikaOS_cortex_mx_ee_cpu.inc **** {
 106:Generated_Source\PSoC5/ErikaOS_cortex_mx_ee_cpu.inc **** EE_UINT32 temp;
 107:Generated_Source\PSoC5/ErikaOS_cortex_mx_ee_cpu.inc **** __ASM ("mov %0, sp" : "=r" (temp) : );
 108:Generated_Source\PSoC5/ErikaOS_cortex_mx_ee_cpu.inc **** return temp;
 109:Generated_Source\PSoC5/ErikaOS_cortex_mx_ee_cpu.inc **** }
 110:Generated_Source\PSoC5/ErikaOS_cortex_mx_ee_cpu.inc **** 
 111:Generated_Source\PSoC5/ErikaOS_cortex_mx_ee_cpu.inc **** /* Set a breakpoint */
 112:Generated_Source\PSoC5/ErikaOS_cortex_mx_ee_cpu.inc **** #define __breakpoint(value)	__ASM ("bkpt "#value)
 113:Generated_Source\PSoC5/ErikaOS_cortex_mx_ee_cpu.inc **** 
 114:Generated_Source\PSoC5/ErikaOS_cortex_mx_ee_cpu.inc **** #endif
ARM GAS  C:\Users\rbhar\AppData\Local\Temp\ccOWMrSf.s 			page 5


 115:Generated_Source\PSoC5/ErikaOS_cortex_mx_ee_cpu.inc **** 
 116:Generated_Source\PSoC5/ErikaOS_cortex_mx_ee_cpu.inc **** /* ISR Priority representation type */
 117:Generated_Source\PSoC5/ErikaOS_cortex_mx_ee_cpu.inc **** typedef EE_UREG EE_TYPEISR2PRIO;
 118:Generated_Source\PSoC5/ErikaOS_cortex_mx_ee_cpu.inc **** 
 119:Generated_Source\PSoC5/ErikaOS_cortex_mx_ee_cpu.inc **** /* Thread IDs */
 120:Generated_Source\PSoC5/ErikaOS_cortex_mx_ee_cpu.inc **** typedef EE_INT32 EE_TID;
 121:Generated_Source\PSoC5/ErikaOS_cortex_mx_ee_cpu.inc **** 
 122:Generated_Source\PSoC5/ErikaOS_cortex_mx_ee_cpu.inc **** /* Thread IDs - unsigned version*/
 123:Generated_Source\PSoC5/ErikaOS_cortex_mx_ee_cpu.inc **** typedef EE_UINT32 EE_UTID;
 124:Generated_Source\PSoC5/ErikaOS_cortex_mx_ee_cpu.inc **** 
 125:Generated_Source\PSoC5/ErikaOS_cortex_mx_ee_cpu.inc **** /* Used by the common layer to decide whether to start a new thread */
 126:Generated_Source\PSoC5/ErikaOS_cortex_mx_ee_cpu.inc **** #define TID_IS_STACKED_MARK 0x80000000
 127:Generated_Source\PSoC5/ErikaOS_cortex_mx_ee_cpu.inc **** 
 128:Generated_Source\PSoC5/ErikaOS_cortex_mx_ee_cpu.inc **** /* EE_TYPEIRQ is currently unused */
 129:Generated_Source\PSoC5/ErikaOS_cortex_mx_ee_cpu.inc **** 
 130:Generated_Source\PSoC5/ErikaOS_cortex_mx_ee_cpu.inc **** /* XXX: define EE_TIME? */
 131:Generated_Source\PSoC5/ErikaOS_cortex_mx_ee_cpu.inc **** 
 132:Generated_Source\PSoC5/ErikaOS_cortex_mx_ee_cpu.inc **** /* Use the "standard" implementation */
 133:Generated_Source\PSoC5/ErikaOS_cortex_mx_ee_cpu.inc **** #include "ErikaOS_common_ee_hal_structs.inc"
 134:Generated_Source\PSoC5/ErikaOS_cortex_mx_ee_cpu.inc **** 
 135:Generated_Source\PSoC5/ErikaOS_cortex_mx_ee_cpu.inc **** /******************************************************************************
 136:Generated_Source\PSoC5/ErikaOS_cortex_mx_ee_cpu.inc ****  Application dependent data types
 137:Generated_Source\PSoC5/ErikaOS_cortex_mx_ee_cpu.inc ****  ******************************************************************************/
 138:Generated_Source\PSoC5/ErikaOS_cortex_mx_ee_cpu.inc **** 
 139:Generated_Source\PSoC5/ErikaOS_cortex_mx_ee_cpu.inc **** #ifdef	__HAS_TYPES_H__
 140:Generated_Source\PSoC5/ErikaOS_cortex_mx_ee_cpu.inc **** #include	"types.h"
 141:Generated_Source\PSoC5/ErikaOS_cortex_mx_ee_cpu.inc **** #endif
 142:Generated_Source\PSoC5/ErikaOS_cortex_mx_ee_cpu.inc **** 
 143:Generated_Source\PSoC5/ErikaOS_cortex_mx_ee_cpu.inc **** /******************************************************************************
 144:Generated_Source\PSoC5/ErikaOS_cortex_mx_ee_cpu.inc ****  CPU Peripherals
 145:Generated_Source\PSoC5/ErikaOS_cortex_mx_ee_cpu.inc ****  ******************************************************************************/
 146:Generated_Source\PSoC5/ErikaOS_cortex_mx_ee_cpu.inc **** 
 147:Generated_Source\PSoC5/ErikaOS_cortex_mx_ee_cpu.inc **** #ifdef __CORTEX_MX__
 148:Generated_Source\PSoC5/ErikaOS_cortex_mx_ee_cpu.inc **** #include "ErikaOS_cortex_mx_ee_nvic.inc"
 149:Generated_Source\PSoC5/ErikaOS_cortex_mx_ee_cpu.inc **** #include "ErikaOS_cortex_mx_ee_systick.inc"
 150:Generated_Source\PSoC5/ErikaOS_cortex_mx_ee_cpu.inc **** #endif
 151:Generated_Source\PSoC5/ErikaOS_cortex_mx_ee_cpu.inc **** 
 152:Generated_Source\PSoC5/ErikaOS_cortex_mx_ee_cpu.inc **** /******************************************************************************
 153:Generated_Source\PSoC5/ErikaOS_cortex_mx_ee_cpu.inc ****  HAL Variables
 154:Generated_Source\PSoC5/ErikaOS_cortex_mx_ee_cpu.inc ****  ******************************************************************************/
 155:Generated_Source\PSoC5/ErikaOS_cortex_mx_ee_cpu.inc **** 
 156:Generated_Source\PSoC5/ErikaOS_cortex_mx_ee_cpu.inc **** #ifdef __MULTI__
 157:Generated_Source\PSoC5/ErikaOS_cortex_mx_ee_cpu.inc **** 
 158:Generated_Source\PSoC5/ErikaOS_cortex_mx_ee_cpu.inc **** /* Top-of-stack of each private stack */
 159:Generated_Source\PSoC5/ErikaOS_cortex_mx_ee_cpu.inc **** extern struct EE_TOS EE_cortex_mx_system_tos[];
 160:Generated_Source\PSoC5/ErikaOS_cortex_mx_ee_cpu.inc **** //#define	EE_std_system_tos EE_cortex_mx_system_tos
 161:Generated_Source\PSoC5/ErikaOS_cortex_mx_ee_cpu.inc **** 
 162:Generated_Source\PSoC5/ErikaOS_cortex_mx_ee_cpu.inc **** /* Index of the current stack */
 163:Generated_Source\PSoC5/ErikaOS_cortex_mx_ee_cpu.inc **** extern EE_UREG EE_cortex_mx_active_tos;
 164:Generated_Source\PSoC5/ErikaOS_cortex_mx_ee_cpu.inc **** #define	EE_hal_active_tos EE_cortex_mx_active_tos
 165:Generated_Source\PSoC5/ErikaOS_cortex_mx_ee_cpu.inc **** 
 166:Generated_Source\PSoC5/ErikaOS_cortex_mx_ee_cpu.inc **** /*extern	EE_UREG EE_pic30_thread_tos[];
 167:Generated_Source\PSoC5/ErikaOS_cortex_mx_ee_cpu.inc **** #define	EE_std_thread_tos EE_pic30_thread_tos */
 168:Generated_Source\PSoC5/ErikaOS_cortex_mx_ee_cpu.inc **** #endif /* __MULTI__ */
 169:Generated_Source\PSoC5/ErikaOS_cortex_mx_ee_cpu.inc **** 
 170:Generated_Source\PSoC5/ErikaOS_cortex_mx_ee_cpu.inc **** /*********************************************************************
 171:Generated_Source\PSoC5/ErikaOS_cortex_mx_ee_cpu.inc ****  Cortex M0 interrupt disabling/enabling
ARM GAS  C:\Users\rbhar\AppData\Local\Temp\ccOWMrSf.s 			page 6


 172:Generated_Source\PSoC5/ErikaOS_cortex_mx_ee_cpu.inc ****  *********************************************************************/
 173:Generated_Source\PSoC5/ErikaOS_cortex_mx_ee_cpu.inc **** 
 174:Generated_Source\PSoC5/ErikaOS_cortex_mx_ee_cpu.inc **** /* Used to check the value returned by EE_cortex_mx_disableIRQ */
 175:Generated_Source\PSoC5/ErikaOS_cortex_mx_ee_cpu.inc **** #define EE_cortex_mx_are_IRQs_enabled(ie) ((ie) ^ 1)
 176:Generated_Source\PSoC5/ErikaOS_cortex_mx_ee_cpu.inc **** 
 177:Generated_Source\PSoC5/ErikaOS_cortex_mx_ee_cpu.inc **** /**
 178:Generated_Source\PSoC5/ErikaOS_cortex_mx_ee_cpu.inc ****  * Enable interrupts
 179:Generated_Source\PSoC5/ErikaOS_cortex_mx_ee_cpu.inc ****  */
 180:Generated_Source\PSoC5/ErikaOS_cortex_mx_ee_cpu.inc **** __INLINE__ void  EE_cortex_mx_enableIRQ(void)
 181:Generated_Source\PSoC5/ErikaOS_cortex_mx_ee_cpu.inc **** {
 182:Generated_Source\PSoC5/ErikaOS_cortex_mx_ee_cpu.inc **** #ifdef __IAR__
 183:Generated_Source\PSoC5/ErikaOS_cortex_mx_ee_cpu.inc **** 	__ASM ("cpsie i");
 184:Generated_Source\PSoC5/ErikaOS_cortex_mx_ee_cpu.inc **** #else	/* __IAR__ */
 185:Generated_Source\PSoC5/ErikaOS_cortex_mx_ee_cpu.inc **** #ifdef __CCS__
 186:Generated_Source\PSoC5/ErikaOS_cortex_mx_ee_cpu.inc **** 	__ASM ("    cpsie    i\n");
 187:Generated_Source\PSoC5/ErikaOS_cortex_mx_ee_cpu.inc **** #else	/* __CCS__ */
 188:Generated_Source\PSoC5/ErikaOS_cortex_mx_ee_cpu.inc **** #ifdef __KEIL__
 189:Generated_Source\PSoC5/ErikaOS_cortex_mx_ee_cpu.inc **** 	__enable_irq();
 190:Generated_Source\PSoC5/ErikaOS_cortex_mx_ee_cpu.inc **** #else	/* __KEIL__ */
 191:Generated_Source\PSoC5/ErikaOS_cortex_mx_ee_cpu.inc **** 	__ASM volatile("cpsie i");
 192:Generated_Source\PSoC5/ErikaOS_cortex_mx_ee_cpu.inc **** #endif	/* !__KEIL__ */
 193:Generated_Source\PSoC5/ErikaOS_cortex_mx_ee_cpu.inc **** #endif	/* !__CCS__ */
 194:Generated_Source\PSoC5/ErikaOS_cortex_mx_ee_cpu.inc **** #endif	/* !__IAR__ */
 195:Generated_Source\PSoC5/ErikaOS_cortex_mx_ee_cpu.inc **** }
 196:Generated_Source\PSoC5/ErikaOS_cortex_mx_ee_cpu.inc **** 
 197:Generated_Source\PSoC5/ErikaOS_cortex_mx_ee_cpu.inc **** /**
 198:Generated_Source\PSoC5/ErikaOS_cortex_mx_ee_cpu.inc ****  * Disable interrupts
 199:Generated_Source\PSoC5/ErikaOS_cortex_mx_ee_cpu.inc ****  */
 200:Generated_Source\PSoC5/ErikaOS_cortex_mx_ee_cpu.inc **** __INLINE__ void  EE_cortex_mx_disableIRQ(void)
 201:Generated_Source\PSoC5/ErikaOS_cortex_mx_ee_cpu.inc **** {
 202:Generated_Source\PSoC5/ErikaOS_cortex_mx_ee_cpu.inc **** #ifdef __IAR__
 203:Generated_Source\PSoC5/ErikaOS_cortex_mx_ee_cpu.inc **** 	__ASM ("cpsid i");
 204:Generated_Source\PSoC5/ErikaOS_cortex_mx_ee_cpu.inc **** #else	/* __IAR__ */
 205:Generated_Source\PSoC5/ErikaOS_cortex_mx_ee_cpu.inc **** #ifdef __CCS__
 206:Generated_Source\PSoC5/ErikaOS_cortex_mx_ee_cpu.inc **** 	__ASM ("    cpsid    i\n");
 207:Generated_Source\PSoC5/ErikaOS_cortex_mx_ee_cpu.inc **** #else	/* __CCS__ */
 208:Generated_Source\PSoC5/ErikaOS_cortex_mx_ee_cpu.inc **** #ifdef __KEIL__
 209:Generated_Source\PSoC5/ErikaOS_cortex_mx_ee_cpu.inc **** 	__disable_irq();
 210:Generated_Source\PSoC5/ErikaOS_cortex_mx_ee_cpu.inc **** #else	/* __KEIL__ */
 211:Generated_Source\PSoC5/ErikaOS_cortex_mx_ee_cpu.inc **** 	__ASM volatile("cpsid i");
 212:Generated_Source\PSoC5/ErikaOS_cortex_mx_ee_cpu.inc **** #endif	/* !__KEIL__ */
 213:Generated_Source\PSoC5/ErikaOS_cortex_mx_ee_cpu.inc **** #endif	/* !__CCS__ */
 214:Generated_Source\PSoC5/ErikaOS_cortex_mx_ee_cpu.inc **** #endif	/* !__IAR__ */
 215:Generated_Source\PSoC5/ErikaOS_cortex_mx_ee_cpu.inc **** }
 216:Generated_Source\PSoC5/ErikaOS_cortex_mx_ee_cpu.inc **** 
 217:Generated_Source\PSoC5/ErikaOS_cortex_mx_ee_cpu.inc **** /**
 218:Generated_Source\PSoC5/ErikaOS_cortex_mx_ee_cpu.inc ****  * Resume interrupts
 219:Generated_Source\PSoC5/ErikaOS_cortex_mx_ee_cpu.inc ****  */
 220:Generated_Source\PSoC5/ErikaOS_cortex_mx_ee_cpu.inc **** __INLINE__ void  EE_cortex_mx_resumeIRQ(EE_FREG f)
 221:Generated_Source\PSoC5/ErikaOS_cortex_mx_ee_cpu.inc **** {
 222:Generated_Source\PSoC5/ErikaOS_cortex_mx_ee_cpu.inc **** #ifdef __IAR__
 223:Generated_Source\PSoC5/ErikaOS_cortex_mx_ee_cpu.inc **** 	__set_PRIMASK(f);
 224:Generated_Source\PSoC5/ErikaOS_cortex_mx_ee_cpu.inc **** #else	/* __IAR__ */
 225:Generated_Source\PSoC5/ErikaOS_cortex_mx_ee_cpu.inc **** #ifdef __CCS__
 226:Generated_Source\PSoC5/ErikaOS_cortex_mx_ee_cpu.inc **** 	__ASM ("    msr    primask, r0\n");
 227:Generated_Source\PSoC5/ErikaOS_cortex_mx_ee_cpu.inc **** #else	/* __CCS__ */
 228:Generated_Source\PSoC5/ErikaOS_cortex_mx_ee_cpu.inc **** #ifdef __KEIL__
ARM GAS  C:\Users\rbhar\AppData\Local\Temp\ccOWMrSf.s 			page 7


 229:Generated_Source\PSoC5/ErikaOS_cortex_mx_ee_cpu.inc **** 	register EE_FREG PRIMASK __ASM("primask");
 230:Generated_Source\PSoC5/ErikaOS_cortex_mx_ee_cpu.inc **** 	PRIMASK = f;
 231:Generated_Source\PSoC5/ErikaOS_cortex_mx_ee_cpu.inc **** #else	/* __KEIL__ */
 232:Generated_Source\PSoC5/ErikaOS_cortex_mx_ee_cpu.inc **** 	__ASM volatile("msr primask, %0" :: "r" (f));
 233:Generated_Source\PSoC5/ErikaOS_cortex_mx_ee_cpu.inc **** #endif	/* !__KEIL__ */
 234:Generated_Source\PSoC5/ErikaOS_cortex_mx_ee_cpu.inc **** #endif	/* !__CCS__ */
 235:Generated_Source\PSoC5/ErikaOS_cortex_mx_ee_cpu.inc **** #endif	/* !__IAR__ */
 236:Generated_Source\PSoC5/ErikaOS_cortex_mx_ee_cpu.inc **** }
 237:Generated_Source\PSoC5/ErikaOS_cortex_mx_ee_cpu.inc **** 
 238:Generated_Source\PSoC5/ErikaOS_cortex_mx_ee_cpu.inc **** /**
 239:Generated_Source\PSoC5/ErikaOS_cortex_mx_ee_cpu.inc ****  * Suspend interrupts
 240:Generated_Source\PSoC5/ErikaOS_cortex_mx_ee_cpu.inc ****  */
 241:Generated_Source\PSoC5/ErikaOS_cortex_mx_ee_cpu.inc **** __INLINE__ EE_FREG  EE_cortex_mx_suspendIRQ(void)
 242:Generated_Source\PSoC5/ErikaOS_cortex_mx_ee_cpu.inc **** {
 243:Generated_Source\PSoC5/ErikaOS_cortex_mx_ee_cpu.inc **** #ifndef __CCS__
 244:Generated_Source\PSoC5/ErikaOS_cortex_mx_ee_cpu.inc **** 	EE_FREG istat;
 245:Generated_Source\PSoC5/ErikaOS_cortex_mx_ee_cpu.inc **** #endif
 246:Generated_Source\PSoC5/ErikaOS_cortex_mx_ee_cpu.inc **** #ifdef __IAR__
 247:Generated_Source\PSoC5/ErikaOS_cortex_mx_ee_cpu.inc **** 	 istat = __get_PRIMASK();
 248:Generated_Source\PSoC5/ErikaOS_cortex_mx_ee_cpu.inc **** 	__ASM ("cpsid i");
 249:Generated_Source\PSoC5/ErikaOS_cortex_mx_ee_cpu.inc **** #else	/* __IAR__ */
 250:Generated_Source\PSoC5/ErikaOS_cortex_mx_ee_cpu.inc **** #ifdef __CCS__
 251:Generated_Source\PSoC5/ErikaOS_cortex_mx_ee_cpu.inc **** 	__ASM ("    mrs     r0, primask\n"
 252:Generated_Source\PSoC5/ErikaOS_cortex_mx_ee_cpu.inc **** 	       "    cpsid   i\n"
 253:Generated_Source\PSoC5/ErikaOS_cortex_mx_ee_cpu.inc **** 	       "    bx      lr\n");
 254:Generated_Source\PSoC5/ErikaOS_cortex_mx_ee_cpu.inc **** #else	/* __CCS__ */
 255:Generated_Source\PSoC5/ErikaOS_cortex_mx_ee_cpu.inc **** #ifdef __KEIL__
 256:Generated_Source\PSoC5/ErikaOS_cortex_mx_ee_cpu.inc **** 	register EE_FREG PRIMASK __ASM("primask");
 257:Generated_Source\PSoC5/ErikaOS_cortex_mx_ee_cpu.inc **** 	istat = PRIMASK;
 258:Generated_Source\PSoC5/ErikaOS_cortex_mx_ee_cpu.inc **** 	__disable_irq();
 259:Generated_Source\PSoC5/ErikaOS_cortex_mx_ee_cpu.inc **** #else	/* __KEIL__ */
 260:Generated_Source\PSoC5/ErikaOS_cortex_mx_ee_cpu.inc **** 	__ASM volatile ("mrs %0, primask" : "=r" (istat) );
  45              		.loc 2 260 0
  46              		.syntax unified
  47              	@ 260 "Generated_Source\PSoC5\ErikaOS_cortex_mx_ee_cpu.inc" 1
  48 0002 EFF31084 		mrs r4, primask
  49              	@ 0 "" 2
  50              	.LVL1:
 261:Generated_Source\PSoC5/ErikaOS_cortex_mx_ee_cpu.inc **** 	__ASM volatile ("cpsid i");
  51              		.loc 2 261 0
  52              	@ 261 "Generated_Source\PSoC5\ErikaOS_cortex_mx_ee_cpu.inc" 1
  53 0006 72B6     		cpsid i
  54              	@ 0 "" 2
  55              	.LVL2:
  56              		.thumb
  57              		.syntax unified
  58              	.LBE28:
  59              	.LBE27:
  60              	.LBE26:
  71:Generated_Source\PSoC5/ErikaOS_ee_alsetrel.c ****   /* Error Value */
  72:Generated_Source\PSoC5/ErikaOS_ee_alsetrel.c ****   register StatusType ev;
  73:Generated_Source\PSoC5/ErikaOS_ee_alsetrel.c ****   /* Primitive Lock Procedure */
  74:Generated_Source\PSoC5/ErikaOS_ee_alsetrel.c ****   EE_OS_DECLARE_AND_ENTER_CRITICAL_SECTION();
  75:Generated_Source\PSoC5/ErikaOS_ee_alsetrel.c **** 
  76:Generated_Source\PSoC5/ErikaOS_ee_alsetrel.c ****   EE_ORTI_set_service_in(EE_SERVICETRACE_SETRELALARM);
  77:Generated_Source\PSoC5/ErikaOS_ee_alsetrel.c **** 
  78:Generated_Source\PSoC5/ErikaOS_ee_alsetrel.c ****   EE_as_monitoring_the_stack();
ARM GAS  C:\Users\rbhar\AppData\Local\Temp\ccOWMrSf.s 			page 8


  79:Generated_Source\PSoC5/ErikaOS_ee_alsetrel.c **** 
  80:Generated_Source\PSoC5/ErikaOS_ee_alsetrel.c **** #ifdef EE_SERVICE_PROTECTION__
  81:Generated_Source\PSoC5/ErikaOS_ee_alsetrel.c ****   /* [OS093]: If interrupts are disabled/suspended by a Task/OsIsr and the
  82:Generated_Source\PSoC5/ErikaOS_ee_alsetrel.c ****       Task/OsIsr calls any OS service (excluding the interrupt services)
  83:Generated_Source\PSoC5/ErikaOS_ee_alsetrel.c ****       then the Operating System shall ignore the service AND shall return
  84:Generated_Source\PSoC5/ErikaOS_ee_alsetrel.c ****       E_OS_DISABLEDINT if the service returns a StatusType value. */
  85:Generated_Source\PSoC5/ErikaOS_ee_alsetrel.c ****   /* [OS088]: If an OS-Application makes a service call from the wrong context
  86:Generated_Source\PSoC5/ErikaOS_ee_alsetrel.c ****       AND is currently not inside a Category 1 ISR the Operating System module
  87:Generated_Source\PSoC5/ErikaOS_ee_alsetrel.c ****       shall not perform the requested action (the service call shall have no
  88:Generated_Source\PSoC5/ErikaOS_ee_alsetrel.c ****       effect), and return E_OS_CALLEVEL (see [12], section 13.1) or the
  89:Generated_Source\PSoC5/ErikaOS_ee_alsetrel.c ****       “invalid value” of  the service. (BSW11009, BSW11013) */
  90:Generated_Source\PSoC5/ErikaOS_ee_alsetrel.c ****   if ( EE_as_execution_context > ISR2_Context ) {
  91:Generated_Source\PSoC5/ErikaOS_ee_alsetrel.c ****     ev = E_OS_CALLEVEL;
  92:Generated_Source\PSoC5/ErikaOS_ee_alsetrel.c ****   } else if ( EE_oo_check_disableint_error() ) {
  93:Generated_Source\PSoC5/ErikaOS_ee_alsetrel.c ****     ev = E_OS_DISABLEDINT;
  94:Generated_Source\PSoC5/ErikaOS_ee_alsetrel.c ****   } else
  95:Generated_Source\PSoC5/ErikaOS_ee_alsetrel.c **** #endif /* EE_SERVICE_PROTECTION__ */
  96:Generated_Source\PSoC5/ErikaOS_ee_alsetrel.c **** 
  97:Generated_Source\PSoC5/ErikaOS_ee_alsetrel.c **** #ifdef EE_AS_RPC__
  98:Generated_Source\PSoC5/ErikaOS_ee_alsetrel.c ****   if ( EE_AS_ID_REMOTE(AlarmID) ) {
  99:Generated_Source\PSoC5/ErikaOS_ee_alsetrel.c ****     EE_os_param unmarked_alarm_id, as_increment, as_cycle;
 100:Generated_Source\PSoC5/ErikaOS_ee_alsetrel.c ****     unmarked_alarm_id.value_param = EE_AS_UNMARK_REMOTE_ID(AlarmID);
 101:Generated_Source\PSoC5/ErikaOS_ee_alsetrel.c ****     as_increment.value_param = increment;
 102:Generated_Source\PSoC5/ErikaOS_ee_alsetrel.c ****     as_cycle.value_param = cycle;
 103:Generated_Source\PSoC5/ErikaOS_ee_alsetrel.c ****     /* forward the request to another CPU in synchronous way */
 104:Generated_Source\PSoC5/ErikaOS_ee_alsetrel.c ****     ev = EE_as_rpc(OSServiceId_SetRelAlarm, unmarked_alarm_id, as_increment,
 105:Generated_Source\PSoC5/ErikaOS_ee_alsetrel.c ****       as_cycle);
 106:Generated_Source\PSoC5/ErikaOS_ee_alsetrel.c ****   } else {
 107:Generated_Source\PSoC5/ErikaOS_ee_alsetrel.c **** #endif /* EE_AS_RPC__ */
 108:Generated_Source\PSoC5/ErikaOS_ee_alsetrel.c **** 
 109:Generated_Source\PSoC5/ErikaOS_ee_alsetrel.c **** /* If local alarm are not defined cut everything else */
 110:Generated_Source\PSoC5/ErikaOS_ee_alsetrel.c **** #if (defined(EE_MAX_ALARM)) && (EE_MAX_ALARM > 0U)
 111:Generated_Source\PSoC5/ErikaOS_ee_alsetrel.c **** 
 112:Generated_Source\PSoC5/ErikaOS_ee_alsetrel.c **** #if (defined(EE_AS_OSAPPLICATIONS__)) && (defined(EE_SERVICE_PROTECTION__))
 113:Generated_Source\PSoC5/ErikaOS_ee_alsetrel.c ****     if ( AlarmID >= EE_MAX_ALARM ) {
 114:Generated_Source\PSoC5/ErikaOS_ee_alsetrel.c ****       ev = E_OS_ID;
 115:Generated_Source\PSoC5/ErikaOS_ee_alsetrel.c ****     } else if ( EE_ALARM_ACCESS_ERR(AlarmID, EE_as_active_app) ) {
 116:Generated_Source\PSoC5/ErikaOS_ee_alsetrel.c ****       ev = E_OS_ACCESS;
 117:Generated_Source\PSoC5/ErikaOS_ee_alsetrel.c ****     } else
 118:Generated_Source\PSoC5/ErikaOS_ee_alsetrel.c **** #elif defined(__OO_EXTENDED_STATUS__)
 119:Generated_Source\PSoC5/ErikaOS_ee_alsetrel.c ****     if ( AlarmID >= EE_MAX_ALARM ) {
  61              		.loc 1 119 0
  62 0008 28BB     		cbnz	r0, .L4
 120:Generated_Source\PSoC5/ErikaOS_ee_alsetrel.c ****       ev = E_OS_ID;
 121:Generated_Source\PSoC5/ErikaOS_ee_alsetrel.c ****     } else
 122:Generated_Source\PSoC5/ErikaOS_ee_alsetrel.c **** #endif /* EE_AS_OSAPPLICATIONS__ || E_SERVICE_PROTECTION__ ||
 123:Generated_Source\PSoC5/ErikaOS_ee_alsetrel.c **** __OO_EXTENDED_STATUS__ */
 124:Generated_Source\PSoC5/ErikaOS_ee_alsetrel.c **** #ifdef __OO_EXTENDED_STATUS__
 125:Generated_Source\PSoC5/ErikaOS_ee_alsetrel.c ****     if ( (increment > EE_counter_ROM[EE_oo_counter_object_ROM[AlarmID].c].
  63              		.loc 1 125 0
  64 000a 00EB4005 		add	r5, r0, r0, lsl #1
  65 000e AB00     		lsls	r3, r5, #2
  66 0010 184D     		ldr	r5, .L11
  67 0012 EB58     		ldr	r3, [r5, r3]
  68 0014 03EB4306 		add	r6, r3, r3, lsl #1
  69 0018 B500     		lsls	r5, r6, #2
  70 001a 174E     		ldr	r6, .L11+4
ARM GAS  C:\Users\rbhar\AppData\Local\Temp\ccOWMrSf.s 			page 9


  71 001c 7559     		ldr	r5, [r6, r5]
  72 001e 8D42     		cmp	r5, r1
  73 0020 1BD3     		bcc	.L5
 126:Generated_Source\PSoC5/ErikaOS_ee_alsetrel.c ****         maxallowedvalue) || ((cycle != 0U) &&
  74              		.loc 1 126 0
  75 0022 4AB1     		cbz	r2, .L3
 127:Generated_Source\PSoC5/ErikaOS_ee_alsetrel.c ****       ((cycle < EE_counter_ROM[EE_oo_counter_object_ROM[AlarmID].c].mincycle) ||
  76              		.loc 1 127 0 discriminator 1
  77 0024 03EB4303 		add	r3, r3, r3, lsl #1
  78 0028 9E00     		lsls	r6, r3, #2
  79 002a 134B     		ldr	r3, .L11+4
  80 002c 1E44     		add	r6, r6, r3
  81 002e B368     		ldr	r3, [r6, #8]
 126:Generated_Source\PSoC5/ErikaOS_ee_alsetrel.c ****         maxallowedvalue) || ((cycle != 0U) &&
  82              		.loc 1 126 0 discriminator 1
  83 0030 9A42     		cmp	r2, r3
  84 0032 14D3     		bcc	.L6
  85              		.loc 1 127 0
  86 0034 9542     		cmp	r5, r2
  87 0036 14D3     		bcc	.L7
  88              	.L3:
 128:Generated_Source\PSoC5/ErikaOS_ee_alsetrel.c ****         (cycle > EE_counter_ROM[EE_oo_counter_object_ROM[AlarmID].c].
 129:Generated_Source\PSoC5/ErikaOS_ee_alsetrel.c ****           maxallowedvalue))) )
 130:Generated_Source\PSoC5/ErikaOS_ee_alsetrel.c ****     {
 131:Generated_Source\PSoC5/ErikaOS_ee_alsetrel.c ****       ev = E_OS_VALUE;
 132:Generated_Source\PSoC5/ErikaOS_ee_alsetrel.c ****     } else
 133:Generated_Source\PSoC5/ErikaOS_ee_alsetrel.c **** #endif /* __OO_EXTENDED_STATUS__ */
 134:Generated_Source\PSoC5/ErikaOS_ee_alsetrel.c **** 
 135:Generated_Source\PSoC5/ErikaOS_ee_alsetrel.c ****     /* OS304: */
 136:Generated_Source\PSoC5/ErikaOS_ee_alsetrel.c ****     if ( increment == 0U ) {
  89              		.loc 1 136 0
  90 0038 A9B1     		cbz	r1, .L8
 137:Generated_Source\PSoC5/ErikaOS_ee_alsetrel.c ****       ev = E_OS_VALUE;
 138:Generated_Source\PSoC5/ErikaOS_ee_alsetrel.c ****     } else if ( EE_oo_counter_object_RAM[AlarmID].used ) {
  91              		.loc 1 138 0
  92 003a 0301     		lsls	r3, r0, #4
  93 003c 0F4D     		ldr	r5, .L11+8
  94 003e EB58     		ldr	r3, [r5, r3]
  95 0040 9BB9     		cbnz	r3, .L9
  96              	.LVL3:
  97              	.LBB29:
  98              	.LBB30:
  99              		.file 3 "Generated_Source\\PSoC5\\ErikaOS_ee_oo_internal.inc"
   1:Generated_Source\PSoC5/ErikaOS_ee_oo_internal.inc **** /* ###*B*###
   2:Generated_Source\PSoC5/ErikaOS_ee_oo_internal.inc ****  * ERIKA Enterprise - a tiny RTOS for small microcontrollers
   3:Generated_Source\PSoC5/ErikaOS_ee_oo_internal.inc ****  *
   4:Generated_Source\PSoC5/ErikaOS_ee_oo_internal.inc ****  * Copyright (C) 2002-2008  Evidence Srl
   5:Generated_Source\PSoC5/ErikaOS_ee_oo_internal.inc ****  *
   6:Generated_Source\PSoC5/ErikaOS_ee_oo_internal.inc ****  * This file is part of ERIKA Enterprise.
   7:Generated_Source\PSoC5/ErikaOS_ee_oo_internal.inc ****  *
   8:Generated_Source\PSoC5/ErikaOS_ee_oo_internal.inc ****  * ERIKA Enterprise is free software; you can redistribute it
   9:Generated_Source\PSoC5/ErikaOS_ee_oo_internal.inc ****  * and/or modify it under the terms of the GNU General Public License
  10:Generated_Source\PSoC5/ErikaOS_ee_oo_internal.inc ****  * version 2 as published by the Free Software Foundation, 
  11:Generated_Source\PSoC5/ErikaOS_ee_oo_internal.inc ****  * (with a special exception described below).
  12:Generated_Source\PSoC5/ErikaOS_ee_oo_internal.inc ****  *
  13:Generated_Source\PSoC5/ErikaOS_ee_oo_internal.inc ****  * Linking this code statically or dynamically with other modules is
  14:Generated_Source\PSoC5/ErikaOS_ee_oo_internal.inc ****  * making a combined work based on this code.  Thus, the terms and
ARM GAS  C:\Users\rbhar\AppData\Local\Temp\ccOWMrSf.s 			page 10


  15:Generated_Source\PSoC5/ErikaOS_ee_oo_internal.inc ****  * conditions of the GNU General Public License cover the whole
  16:Generated_Source\PSoC5/ErikaOS_ee_oo_internal.inc ****  * combination.
  17:Generated_Source\PSoC5/ErikaOS_ee_oo_internal.inc ****  *
  18:Generated_Source\PSoC5/ErikaOS_ee_oo_internal.inc ****  * As a special exception, the copyright holders of this library give you
  19:Generated_Source\PSoC5/ErikaOS_ee_oo_internal.inc ****  * permission to link this code with independent modules to produce an
  20:Generated_Source\PSoC5/ErikaOS_ee_oo_internal.inc ****  * executable, regardless of the license terms of these independent
  21:Generated_Source\PSoC5/ErikaOS_ee_oo_internal.inc ****  * modules, and to copy and distribute the resulting executable under
  22:Generated_Source\PSoC5/ErikaOS_ee_oo_internal.inc ****  * terms of your choice, provided that you also meet, for each linked
  23:Generated_Source\PSoC5/ErikaOS_ee_oo_internal.inc ****  * independent module, the terms and conditions of the license of that
  24:Generated_Source\PSoC5/ErikaOS_ee_oo_internal.inc ****  * module.  An independent module is a module which is not derived from
  25:Generated_Source\PSoC5/ErikaOS_ee_oo_internal.inc ****  * or based on this library.  If you modify this code, you may extend
  26:Generated_Source\PSoC5/ErikaOS_ee_oo_internal.inc ****  * this exception to your version of the code, but you are not
  27:Generated_Source\PSoC5/ErikaOS_ee_oo_internal.inc ****  * obligated to do so.  If you do not wish to do so, delete this
  28:Generated_Source\PSoC5/ErikaOS_ee_oo_internal.inc ****  * exception statement from your version.
  29:Generated_Source\PSoC5/ErikaOS_ee_oo_internal.inc ****  *
  30:Generated_Source\PSoC5/ErikaOS_ee_oo_internal.inc ****  * ERIKA Enterprise is distributed in the hope that it will be
  31:Generated_Source\PSoC5/ErikaOS_ee_oo_internal.inc ****  * useful, but WITHOUT ANY WARRANTY; without even the implied warranty
  32:Generated_Source\PSoC5/ErikaOS_ee_oo_internal.inc ****  * of MERCHANTABILITY or FITNESS FOR A PARTICULAR PURPOSE.  See the
  33:Generated_Source\PSoC5/ErikaOS_ee_oo_internal.inc ****  * GNU General Public License version 2 for more details.
  34:Generated_Source\PSoC5/ErikaOS_ee_oo_internal.inc ****  *
  35:Generated_Source\PSoC5/ErikaOS_ee_oo_internal.inc ****  * You should have received a copy of the GNU General Public License
  36:Generated_Source\PSoC5/ErikaOS_ee_oo_internal.inc ****  * version 2 along with ERIKA Enterprise; if not, write to the
  37:Generated_Source\PSoC5/ErikaOS_ee_oo_internal.inc ****  * Free Software Foundation, Inc., 51 Franklin Street, Fifth Floor,
  38:Generated_Source\PSoC5/ErikaOS_ee_oo_internal.inc ****  * Boston, MA 02110-1301 USA.
  39:Generated_Source\PSoC5/ErikaOS_ee_oo_internal.inc ****  * ###*E*### */
  40:Generated_Source\PSoC5/ErikaOS_ee_oo_internal.inc **** 
  41:Generated_Source\PSoC5/ErikaOS_ee_oo_internal.inc **** /*
  42:Generated_Source\PSoC5/ErikaOS_ee_oo_internal.inc ****  * Author: 2002 Paolo Gai
  43:Generated_Source\PSoC5/ErikaOS_ee_oo_internal.inc ****  * CVS: $Id: ee_internal.h,v 1.6 2006/12/03 22:07:50 pj Exp $
  44:Generated_Source\PSoC5/ErikaOS_ee_oo_internal.inc ****  */
  45:Generated_Source\PSoC5/ErikaOS_ee_oo_internal.inc **** 
  46:Generated_Source\PSoC5/ErikaOS_ee_oo_internal.inc **** /*
  47:Generated_Source\PSoC5/ErikaOS_ee_oo_internal.inc ****  * PSoC Port and API Generation
  48:Generated_Source\PSoC5/ErikaOS_ee_oo_internal.inc ****  * Carlos Fernando Meier Martinez
  49:Generated_Source\PSoC5/ErikaOS_ee_oo_internal.inc ****  * Hochschule Darmstadt, Germany. 2017.
  50:Generated_Source\PSoC5/ErikaOS_ee_oo_internal.inc ****  */
  51:Generated_Source\PSoC5/ErikaOS_ee_oo_internal.inc **** 
  52:Generated_Source\PSoC5/ErikaOS_ee_oo_internal.inc **** #ifndef PKG_KERNEL_OO_INC_EE_OO_INTERNAL_H
  53:Generated_Source\PSoC5/ErikaOS_ee_oo_internal.inc **** #define PKG_KERNEL_OO_INC_EE_OO_INTERNAL_H
  54:Generated_Source\PSoC5/ErikaOS_ee_oo_internal.inc **** 
  55:Generated_Source\PSoC5/ErikaOS_ee_oo_internal.inc **** #include "ErikaOS_ee_oo_common.inc"
  56:Generated_Source\PSoC5/ErikaOS_ee_oo_internal.inc **** #include "ErikaOS_ee_oo_intfunc.inc"
  57:Generated_Source\PSoC5/ErikaOS_ee_oo_internal.inc **** #include "ErikaOS_ee_oo_irq.inc"
  58:Generated_Source\PSoC5/ErikaOS_ee_oo_internal.inc **** 
  59:Generated_Source\PSoC5/ErikaOS_ee_oo_internal.inc **** /*******************************************************************************
  60:Generated_Source\PSoC5/ErikaOS_ee_oo_internal.inc ****  *                    New Error Handling Internal Utilities
  61:Generated_Source\PSoC5/ErikaOS_ee_oo_internal.inc ****  ******************************************************************************/
  62:Generated_Source\PSoC5/ErikaOS_ee_oo_internal.inc **** 
  63:Generated_Source\PSoC5/ErikaOS_ee_oo_internal.inc **** /* Error Parameters Utilities Macros */
  64:Generated_Source\PSoC5/ErikaOS_ee_oo_internal.inc **** #define EE_OS_PARAM(param_name)   EE_os_param param_name
  65:Generated_Source\PSoC5/ErikaOS_ee_oo_internal.inc **** #define EE_OS_PARAM_VALUE(param_name, param_value)  \
  66:Generated_Source\PSoC5/ErikaOS_ee_oo_internal.inc ****   ((param_name).value_param = (param_value))
  67:Generated_Source\PSoC5/ErikaOS_ee_oo_internal.inc **** 
  68:Generated_Source\PSoC5/ErikaOS_ee_oo_internal.inc **** #define EE_OS_PARAM_REF(param_name, param_field, param_ref) \
  69:Generated_Source\PSoC5/ErikaOS_ee_oo_internal.inc ****   ((param_name).param_field = (param_ref))
  70:Generated_Source\PSoC5/ErikaOS_ee_oo_internal.inc **** 
  71:Generated_Source\PSoC5/ErikaOS_ee_oo_internal.inc **** #ifdef __OO_HAS_ERRORHOOK__
ARM GAS  C:\Users\rbhar\AppData\Local\Temp\ccOWMrSf.s 			page 11


  72:Generated_Source\PSoC5/ErikaOS_ee_oo_internal.inc **** /* Error Parameters Data Structure Utilities Macros from user space */
  73:Generated_Source\PSoC5/ErikaOS_ee_oo_internal.inc **** #define EE_OS_ERROR_PARAMETERS()  EE_oo_ErrorHook_parameters error_parameters
  74:Generated_Source\PSoC5/ErikaOS_ee_oo_internal.inc **** 
  75:Generated_Source\PSoC5/ErikaOS_ee_oo_internal.inc **** #define EE_OS_ERROR_PARAMETERS_INIT(param1_in,param2_in,param3_in)  \
  76:Generated_Source\PSoC5/ErikaOS_ee_oo_internal.inc ****   EE_oo_ErrorHook_parameters error_parameters = { param1_in, param2_in, \
  77:Generated_Source\PSoC5/ErikaOS_ee_oo_internal.inc ****     param3_in }
  78:Generated_Source\PSoC5/ErikaOS_ee_oo_internal.inc **** 
  79:Generated_Source\PSoC5/ErikaOS_ee_oo_internal.inc **** #define EE_OS_ERROR_PARAMETERS_PARAM1_VALUE(param1_value) \
  80:Generated_Source\PSoC5/ErikaOS_ee_oo_internal.inc ****   (error_parameters.param1.value_param = param1_value)
  81:Generated_Source\PSoC5/ErikaOS_ee_oo_internal.inc **** #define EE_OS_ERROR_PARAMETERS_PARAM2_VALUE(param2_value) \
  82:Generated_Source\PSoC5/ErikaOS_ee_oo_internal.inc ****   (error_parameters.param2.value_param = param2_value)
  83:Generated_Source\PSoC5/ErikaOS_ee_oo_internal.inc **** #define EE_OS_ERROR_PARAMETERS_PARAM3_VALUE(param3_value) \
  84:Generated_Source\PSoC5/ErikaOS_ee_oo_internal.inc ****   (error_parameters.param3.value_param = param3_value)
  85:Generated_Source\PSoC5/ErikaOS_ee_oo_internal.inc **** 
  86:Generated_Source\PSoC5/ErikaOS_ee_oo_internal.inc **** #define EE_OS_ERROR_PARAMETERS_PARAM1_REF(param_field,param_ref)  \
  87:Generated_Source\PSoC5/ErikaOS_ee_oo_internal.inc ****   (error_parameters.param1.param_field = (param_ref))
  88:Generated_Source\PSoC5/ErikaOS_ee_oo_internal.inc **** #define EE_OS_ERROR_PARAMETERS_PARAM2_REF(param_field,param_ref)  \
  89:Generated_Source\PSoC5/ErikaOS_ee_oo_internal.inc ****   (error_parameters.param2.param_field = (param_ref))
  90:Generated_Source\PSoC5/ErikaOS_ee_oo_internal.inc **** #define EE_OS_ERROR_PARAMETERS_PARAM3_REF(param_field,param_ref)  \
  91:Generated_Source\PSoC5/ErikaOS_ee_oo_internal.inc ****   (error_parameters.param3.param_field = (param_ref))
  92:Generated_Source\PSoC5/ErikaOS_ee_oo_internal.inc **** #else /* __OO_HAS_ERRORHOOK__ */
  93:Generated_Source\PSoC5/ErikaOS_ee_oo_internal.inc **** #define EE_OS_ERROR_PARAMETERS()                                    ((void)0)
  94:Generated_Source\PSoC5/ErikaOS_ee_oo_internal.inc **** 
  95:Generated_Source\PSoC5/ErikaOS_ee_oo_internal.inc **** #define EE_OS_ERROR_PARAMETERS_INIT(param1_in,param2_in,param3_in)  ((void)0)
  96:Generated_Source\PSoC5/ErikaOS_ee_oo_internal.inc **** 
  97:Generated_Source\PSoC5/ErikaOS_ee_oo_internal.inc **** #define EE_OS_ERROR_PARAMETERS_PARAM1_VALUE(param1_value)           ((void)0)
  98:Generated_Source\PSoC5/ErikaOS_ee_oo_internal.inc **** #define EE_OS_ERROR_PARAMETERS_PARAM2_VALUE(param2_value)           ((void)0)
  99:Generated_Source\PSoC5/ErikaOS_ee_oo_internal.inc **** #define EE_OS_ERROR_PARAMETERS_PARAM3_VALUE(param3_value)           ((void)0)
 100:Generated_Source\PSoC5/ErikaOS_ee_oo_internal.inc **** 
 101:Generated_Source\PSoC5/ErikaOS_ee_oo_internal.inc **** #define EE_OS_ERROR_PARAMETERS_PARAM1_REF(param_field,param_ref)    ((void)0)
 102:Generated_Source\PSoC5/ErikaOS_ee_oo_internal.inc **** #define EE_OS_ERROR_PARAMETERS_PARAM2_REF(param_field,param_ref)    ((void)0)
 103:Generated_Source\PSoC5/ErikaOS_ee_oo_internal.inc **** #define EE_OS_ERROR_PARAMETERS_PARAM3_REF(param_field,param_ref)    ((void)0)
 104:Generated_Source\PSoC5/ErikaOS_ee_oo_internal.inc **** #endif /* __OO_HAS_ERRORHOOK__ */
 105:Generated_Source\PSoC5/ErikaOS_ee_oo_internal.inc **** 
 106:Generated_Source\PSoC5/ErikaOS_ee_oo_internal.inc **** /* Error Handling */
 107:Generated_Source\PSoC5/ErikaOS_ee_oo_internal.inc **** #ifdef __OO_HAS_ERRORHOOK__
 108:Generated_Source\PSoC5/ErikaOS_ee_oo_internal.inc **** #ifndef  __OO_ERRORHOOK_NOMACROS__
 109:Generated_Source\PSoC5/ErikaOS_ee_oo_internal.inc **** 
 110:Generated_Source\PSoC5/ErikaOS_ee_oo_internal.inc **** __INLINE__ void  EE_os_fill_error_data( OSServiceIdType
 111:Generated_Source\PSoC5/ErikaOS_ee_oo_internal.inc ****   ServiceID, EE_os_param param1, EE_os_param param2, EE_os_param param3 )
 112:Generated_Source\PSoC5/ErikaOS_ee_oo_internal.inc **** {
 113:Generated_Source\PSoC5/ErikaOS_ee_oo_internal.inc ****   register EE_oo_ErrorHook_parameters * const
 114:Generated_Source\PSoC5/ErikaOS_ee_oo_internal.inc ****     p_errorhook_parameter = EE_oo_get_errorhook_data();
 115:Generated_Source\PSoC5/ErikaOS_ee_oo_internal.inc ****   (*EE_oo_get_errorhook_service_id()) = ServiceID;
 116:Generated_Source\PSoC5/ErikaOS_ee_oo_internal.inc ****   p_errorhook_parameter->param1 = param1;
 117:Generated_Source\PSoC5/ErikaOS_ee_oo_internal.inc ****   p_errorhook_parameter->param2 = param2;
 118:Generated_Source\PSoC5/ErikaOS_ee_oo_internal.inc ****   p_errorhook_parameter->param3 = param3;
 119:Generated_Source\PSoC5/ErikaOS_ee_oo_internal.inc **** }
 120:Generated_Source\PSoC5/ErikaOS_ee_oo_internal.inc **** #else /* !__OO_ERRORHOOK_NOMACROS__ */
 121:Generated_Source\PSoC5/ErikaOS_ee_oo_internal.inc **** 
 122:Generated_Source\PSoC5/ErikaOS_ee_oo_internal.inc **** #define EE_os_fill_error_data(ServiceID,param1,param2,param3) ((void)0)
 123:Generated_Source\PSoC5/ErikaOS_ee_oo_internal.inc **** #endif /* !__OO_ERRORHOOK_NOMACROS__ */
 124:Generated_Source\PSoC5/ErikaOS_ee_oo_internal.inc **** 
 125:Generated_Source\PSoC5/ErikaOS_ee_oo_internal.inc **** __INLINE__ void  EE_os_notify_error( OSServiceIdType ServiceID,
 126:Generated_Source\PSoC5/ErikaOS_ee_oo_internal.inc ****   EE_os_param param1, EE_os_param param2, EE_os_param param3,
 127:Generated_Source\PSoC5/ErikaOS_ee_oo_internal.inc ****   StatusType Error )
 128:Generated_Source\PSoC5/ErikaOS_ee_oo_internal.inc **** {
ARM GAS  C:\Users\rbhar\AppData\Local\Temp\ccOWMrSf.s 			page 12


 129:Generated_Source\PSoC5/ErikaOS_ee_oo_internal.inc ****   EE_ORTI_set_lasterror(Error);
 130:Generated_Source\PSoC5/ErikaOS_ee_oo_internal.inc ****   if ( EE_ErrorHook_nested_flag == 0U )
 131:Generated_Source\PSoC5/ErikaOS_ee_oo_internal.inc ****   {
 132:Generated_Source\PSoC5/ErikaOS_ee_oo_internal.inc ****     EE_os_fill_error_data(ServiceID, param1, param2, param3);
 133:Generated_Source\PSoC5/ErikaOS_ee_oo_internal.inc ****     EE_ErrorHook_nested_flag = 1U;
 134:Generated_Source\PSoC5/ErikaOS_ee_oo_internal.inc ****     EE_oo_call_ErrorHook(Error);
 135:Generated_Source\PSoC5/ErikaOS_ee_oo_internal.inc ****     EE_ErrorHook_nested_flag = 0U;
 136:Generated_Source\PSoC5/ErikaOS_ee_oo_internal.inc ****   }
 137:Generated_Source\PSoC5/ErikaOS_ee_oo_internal.inc **** }
 138:Generated_Source\PSoC5/ErikaOS_ee_oo_internal.inc **** 
 139:Generated_Source\PSoC5/ErikaOS_ee_oo_internal.inc **** #ifndef __EE_MEMORY_PROTECTION__
 140:Generated_Source\PSoC5/ErikaOS_ee_oo_internal.inc **** __INLINE__ void  EE_os_notify_error_from_us(
 141:Generated_Source\PSoC5/ErikaOS_ee_oo_internal.inc ****   OSServiceIdType ServiceID, const EE_oo_ErrorHook_parameters * const
 142:Generated_Source\PSoC5/ErikaOS_ee_oo_internal.inc ****     error_parameters_ref, StatusType Error )
 143:Generated_Source\PSoC5/ErikaOS_ee_oo_internal.inc **** {
 144:Generated_Source\PSoC5/ErikaOS_ee_oo_internal.inc ****   if ( error_parameters_ref != NULL ) {
 145:Generated_Source\PSoC5/ErikaOS_ee_oo_internal.inc ****     register EE_FREG const flag = EE_hal_begin_nested_primitive();
 146:Generated_Source\PSoC5/ErikaOS_ee_oo_internal.inc ****     EE_os_notify_error(ServiceID, error_parameters_ref->param1,
 147:Generated_Source\PSoC5/ErikaOS_ee_oo_internal.inc ****       error_parameters_ref->param2, error_parameters_ref->param3, Error);
 148:Generated_Source\PSoC5/ErikaOS_ee_oo_internal.inc ****     EE_hal_end_nested_primitive(flag);
 149:Generated_Source\PSoC5/ErikaOS_ee_oo_internal.inc ****   }
 150:Generated_Source\PSoC5/ErikaOS_ee_oo_internal.inc **** }
 151:Generated_Source\PSoC5/ErikaOS_ee_oo_internal.inc **** #else /* !__EE_MEMORY_PROTECTION__ */
 152:Generated_Source\PSoC5/ErikaOS_ee_oo_internal.inc **** /* If MemMap.h support is enabled (i.e. because memory protection): use it */
 153:Generated_Source\PSoC5/ErikaOS_ee_oo_internal.inc **** #ifdef EE_SUPPORT_MEMMAP_H
 154:Generated_Source\PSoC5/ErikaOS_ee_oo_internal.inc **** /* The following code belong to ERIKA API section ee_api_text */
 155:Generated_Source\PSoC5/ErikaOS_ee_oo_internal.inc **** #define API_START_SEC_CODE
 156:Generated_Source\PSoC5/ErikaOS_ee_oo_internal.inc **** #include "MemMap.inc"
 157:Generated_Source\PSoC5/ErikaOS_ee_oo_internal.inc **** #endif /* EE_SUPPORT_MEMMAP_H */
 158:Generated_Source\PSoC5/ErikaOS_ee_oo_internal.inc **** 
 159:Generated_Source\PSoC5/ErikaOS_ee_oo_internal.inc **** void EE_os_notify_error_from_us( OSServiceIdType ServiceID,
 160:Generated_Source\PSoC5/ErikaOS_ee_oo_internal.inc ****   const EE_oo_ErrorHook_parameters * const error_parameters_ref,
 161:Generated_Source\PSoC5/ErikaOS_ee_oo_internal.inc ****   StatusType Error );
 162:Generated_Source\PSoC5/ErikaOS_ee_oo_internal.inc **** 
 163:Generated_Source\PSoC5/ErikaOS_ee_oo_internal.inc **** #ifdef EE_SUPPORT_MEMMAP_H
 164:Generated_Source\PSoC5/ErikaOS_ee_oo_internal.inc **** #define API_STOP_SEC_CODE
 165:Generated_Source\PSoC5/ErikaOS_ee_oo_internal.inc **** #include "MemMap.inc"
 166:Generated_Source\PSoC5/ErikaOS_ee_oo_internal.inc **** #endif /* EE_SUPPORT_MEMMAP_H */
 167:Generated_Source\PSoC5/ErikaOS_ee_oo_internal.inc **** #endif /* !__EE_MEMORY_PROTECTION__ */
 168:Generated_Source\PSoC5/ErikaOS_ee_oo_internal.inc **** #else /* __OO_HAS_ERRORHOOK__ */
 169:Generated_Source\PSoC5/ErikaOS_ee_oo_internal.inc **** 
 170:Generated_Source\PSoC5/ErikaOS_ee_oo_internal.inc **** /* Macro used for remapping to prevent compiler warnings on unused parameters */
 171:Generated_Source\PSoC5/ErikaOS_ee_oo_internal.inc **** #define EE_os_notify_error(k,j,x,y,z) EE_os_notify_error_impl(z)
 172:Generated_Source\PSoC5/ErikaOS_ee_oo_internal.inc **** 
 173:Generated_Source\PSoC5/ErikaOS_ee_oo_internal.inc **** __INLINE__ void  EE_os_notify_error_impl(StatusType Error)
 174:Generated_Source\PSoC5/ErikaOS_ee_oo_internal.inc **** {
 175:Generated_Source\PSoC5/ErikaOS_ee_oo_internal.inc ****   EE_ORTI_set_lasterror(Error);
 176:Generated_Source\PSoC5/ErikaOS_ee_oo_internal.inc **** }
 177:Generated_Source\PSoC5/ErikaOS_ee_oo_internal.inc **** 
 178:Generated_Source\PSoC5/ErikaOS_ee_oo_internal.inc **** /* Macro used for remapping to prevent compiler warnings on unused parameters */
 179:Generated_Source\PSoC5/ErikaOS_ee_oo_internal.inc **** #define EE_os_notify_error_from_us(x,y,z) EE_os_notify_error_from_us_impl(z)
 180:Generated_Source\PSoC5/ErikaOS_ee_oo_internal.inc **** 
 181:Generated_Source\PSoC5/ErikaOS_ee_oo_internal.inc **** __INLINE__ void  EE_os_notify_error_from_us_impl(
 182:Generated_Source\PSoC5/ErikaOS_ee_oo_internal.inc ****   StatusType Error )
 183:Generated_Source\PSoC5/ErikaOS_ee_oo_internal.inc **** {
 184:Generated_Source\PSoC5/ErikaOS_ee_oo_internal.inc ****   EE_ORTI_set_lasterror(Error);
 185:Generated_Source\PSoC5/ErikaOS_ee_oo_internal.inc **** }
ARM GAS  C:\Users\rbhar\AppData\Local\Temp\ccOWMrSf.s 			page 13


 186:Generated_Source\PSoC5/ErikaOS_ee_oo_internal.inc **** #endif /* __OO_HAS_ERRORHOOK__ */
 187:Generated_Source\PSoC5/ErikaOS_ee_oo_internal.inc **** 
 188:Generated_Source\PSoC5/ErikaOS_ee_oo_internal.inc **** /*******************************************************************************
 189:Generated_Source\PSoC5/ErikaOS_ee_oo_internal.inc ****  *                  Kernel Critical Section Utility Macros
 190:Generated_Source\PSoC5/ErikaOS_ee_oo_internal.inc ****  ******************************************************************************/
 191:Generated_Source\PSoC5/ErikaOS_ee_oo_internal.inc **** #ifndef __EE_MEMORY_PROTECTION__
 192:Generated_Source\PSoC5/ErikaOS_ee_oo_internal.inc **** 
 193:Generated_Source\PSoC5/ErikaOS_ee_oo_internal.inc **** #define EE_OS_DECLARE_CRITICAL_SECTION()  register EE_FREG flag
 194:Generated_Source\PSoC5/ErikaOS_ee_oo_internal.inc **** 
 195:Generated_Source\PSoC5/ErikaOS_ee_oo_internal.inc **** #define EE_OS_ENTER_CRITICAL_SECTION()          \
 196:Generated_Source\PSoC5/ErikaOS_ee_oo_internal.inc ****   do {                                          \
 197:Generated_Source\PSoC5/ErikaOS_ee_oo_internal.inc ****     flag = EE_hal_begin_nested_primitive();     \
 198:Generated_Source\PSoC5/ErikaOS_ee_oo_internal.inc ****     EE_as_tp_active_pause_and_update_budgets(); \
 199:Generated_Source\PSoC5/ErikaOS_ee_oo_internal.inc ****   } while ( 0 )
 200:Generated_Source\PSoC5/ErikaOS_ee_oo_internal.inc **** 
 201:Generated_Source\PSoC5/ErikaOS_ee_oo_internal.inc **** #define EE_OS_DECLARE_AND_ENTER_CRITICAL_SECTION()  \
 202:Generated_Source\PSoC5/ErikaOS_ee_oo_internal.inc ****   EE_OS_DECLARE_CRITICAL_SECTION();                 \
 203:Generated_Source\PSoC5/ErikaOS_ee_oo_internal.inc ****   EE_OS_ENTER_CRITICAL_SECTION()
 204:Generated_Source\PSoC5/ErikaOS_ee_oo_internal.inc **** 
 205:Generated_Source\PSoC5/ErikaOS_ee_oo_internal.inc **** #define EE_OS_EXIT_CRITICAL_SECTION()             \
 206:Generated_Source\PSoC5/ErikaOS_ee_oo_internal.inc ****   do {                                            \
 207:Generated_Source\PSoC5/ErikaOS_ee_oo_internal.inc ****     EE_as_tp_active_update_budgets_and_restart(); \
 208:Generated_Source\PSoC5/ErikaOS_ee_oo_internal.inc ****     EE_hal_end_nested_primitive(flag);            \
 209:Generated_Source\PSoC5/ErikaOS_ee_oo_internal.inc ****   } while ( 0 )
 210:Generated_Source\PSoC5/ErikaOS_ee_oo_internal.inc **** 
 211:Generated_Source\PSoC5/ErikaOS_ee_oo_internal.inc **** #define EE_OS_FOREVER_CRITICAL_SECTION()          \
 212:Generated_Source\PSoC5/ErikaOS_ee_oo_internal.inc ****   do {                                            \
 213:Generated_Source\PSoC5/ErikaOS_ee_oo_internal.inc ****     EE_hal_disableIRQ();                          \
 214:Generated_Source\PSoC5/ErikaOS_ee_oo_internal.inc ****     EE_as_tp_active_pause_and_update_budgets();   \
 215:Generated_Source\PSoC5/ErikaOS_ee_oo_internal.inc ****   } while ( 0 )
 216:Generated_Source\PSoC5/ErikaOS_ee_oo_internal.inc **** 
 217:Generated_Source\PSoC5/ErikaOS_ee_oo_internal.inc **** #else /* !__EE_MEMORY_PROTECTION__ */
 218:Generated_Source\PSoC5/ErikaOS_ee_oo_internal.inc **** /* TP in any case have to be handled in Service Implementation. Syscall
 219:Generated_Source\PSoC5/ErikaOS_ee_oo_internal.inc ****    mechanism can be implement in C language and, in that case, a function call
 220:Generated_Source\PSoC5/ErikaOS_ee_oo_internal.inc ****    cannot be done in syscall handler. */
 221:Generated_Source\PSoC5/ErikaOS_ee_oo_internal.inc **** #define EE_OS_DECLARE_CRITICAL_SECTION()            ((void)0)
 222:Generated_Source\PSoC5/ErikaOS_ee_oo_internal.inc **** #define EE_OS_ENTER_CRITICAL_SECTION()              \
 223:Generated_Source\PSoC5/ErikaOS_ee_oo_internal.inc ****   EE_as_tp_active_pause_and_update_budgets()
 224:Generated_Source\PSoC5/ErikaOS_ee_oo_internal.inc **** #define EE_OS_DECLARE_AND_ENTER_CRITICAL_SECTION()  \
 225:Generated_Source\PSoC5/ErikaOS_ee_oo_internal.inc ****   EE_as_tp_active_pause_and_update_budgets()
 226:Generated_Source\PSoC5/ErikaOS_ee_oo_internal.inc **** #define EE_OS_EXIT_CRITICAL_SECTION()               \
 227:Generated_Source\PSoC5/ErikaOS_ee_oo_internal.inc ****   EE_as_tp_active_update_budgets_and_restart()
 228:Generated_Source\PSoC5/ErikaOS_ee_oo_internal.inc **** #define EE_OS_FOREVER_CRITICAL_SECTION()			\
 229:Generated_Source\PSoC5/ErikaOS_ee_oo_internal.inc ****   EE_as_tp_active_pause_and_update_budgets()
 230:Generated_Source\PSoC5/ErikaOS_ee_oo_internal.inc **** #endif /* !__EE_MEMORY_PROTECTION__ */
 231:Generated_Source\PSoC5/ErikaOS_ee_oo_internal.inc **** 
 232:Generated_Source\PSoC5/ErikaOS_ee_oo_internal.inc **** /* return the first stacked task (the running task) without extracting it 
 233:Generated_Source\PSoC5/ErikaOS_ee_oo_internal.inc ****    we suppose that this function can be called ALSO at interrupt ENABLED!!!
 234:Generated_Source\PSoC5/ErikaOS_ee_oo_internal.inc ****    (see WaitEvent.c) */
 235:Generated_Source\PSoC5/ErikaOS_ee_oo_internal.inc **** #ifndef __PRIVATE_STK_QUERYFIRST__
 236:Generated_Source\PSoC5/ErikaOS_ee_oo_internal.inc **** __INLINE__ EE_TID  EE_stk_queryfirst(void)
 237:Generated_Source\PSoC5/ErikaOS_ee_oo_internal.inc **** {
 238:Generated_Source\PSoC5/ErikaOS_ee_oo_internal.inc ****     return EE_stkfirst;  
 239:Generated_Source\PSoC5/ErikaOS_ee_oo_internal.inc **** }
 240:Generated_Source\PSoC5/ErikaOS_ee_oo_internal.inc **** #endif /* __PRIVATE_STK_QUERYFIRST__ */
 241:Generated_Source\PSoC5/ErikaOS_ee_oo_internal.inc **** 
 242:Generated_Source\PSoC5/ErikaOS_ee_oo_internal.inc **** /* This function notifies a tick to a hardware counter.
ARM GAS  C:\Users\rbhar\AppData\Local\Temp\ccOWMrSf.s 			page 14


 243:Generated_Source\PSoC5/ErikaOS_ee_oo_internal.inc ****    That is, the counter is
 244:Generated_Source\PSoC5/ErikaOS_ee_oo_internal.inc ****    incremented by 1.  It must be called into an ISR2 or into a
 245:Generated_Source\PSoC5/ErikaOS_ee_oo_internal.inc ****    task notify that the event linked to the counter occurred.
 246:Generated_Source\PSoC5/ErikaOS_ee_oo_internal.inc **** 
 247:Generated_Source\PSoC5/ErikaOS_ee_oo_internal.inc ****    The function will also implement the notification of expired alarms
 248:Generated_Source\PSoC5/ErikaOS_ee_oo_internal.inc ****    (calling an alarm callback, setting an event, or activating a
 249:Generated_Source\PSoC5/ErikaOS_ee_oo_internal.inc ****    task).
 250:Generated_Source\PSoC5/ErikaOS_ee_oo_internal.inc **** 
 251:Generated_Source\PSoC5/ErikaOS_ee_oo_internal.inc ****    The function can be considered atomic, and NO RESCHEDULING will
 252:Generated_Source\PSoC5/ErikaOS_ee_oo_internal.inc ****    take place after the execution of this function. To implement the
 253:Generated_Source\PSoC5/ErikaOS_ee_oo_internal.inc ****    rescheduling at task level, you can use the Schedule() or the
 254:Generated_Source\PSoC5/ErikaOS_ee_oo_internal.inc ****    ForceSchedule() functions just after this notification.
 255:Generated_Source\PSoC5/ErikaOS_ee_oo_internal.inc **** 
 256:Generated_Source\PSoC5/ErikaOS_ee_oo_internal.inc ****    see also internal.h
 257:Generated_Source\PSoC5/ErikaOS_ee_oo_internal.inc **** */
 258:Generated_Source\PSoC5/ErikaOS_ee_oo_internal.inc **** #if (!defined(__OO_NO_ALARMS__)) || (defined(EE_AS_SCHEDULETABLES__))
 259:Generated_Source\PSoC5/ErikaOS_ee_oo_internal.inc **** 
 260:Generated_Source\PSoC5/ErikaOS_ee_oo_internal.inc **** StatusType EE_oo_IncrementCounterHardware(CounterType CounterID);
 261:Generated_Source\PSoC5/ErikaOS_ee_oo_internal.inc **** void       EE_oo_IncrementCounterImplementation(CounterType CounterID);
 262:Generated_Source\PSoC5/ErikaOS_ee_oo_internal.inc **** 
 263:Generated_Source\PSoC5/ErikaOS_ee_oo_internal.inc **** /* kernel internal API */
 264:Generated_Source\PSoC5/ErikaOS_ee_oo_internal.inc **** #define IncrementCounterHardware EE_oo_IncrementCounterHardware
 265:Generated_Source\PSoC5/ErikaOS_ee_oo_internal.inc **** 
 266:Generated_Source\PSoC5/ErikaOS_ee_oo_internal.inc **** /* Helper function (0 as increment means next tick)*/
 267:Generated_Source\PSoC5/ErikaOS_ee_oo_internal.inc **** void EE_oo_counter_object_insert( CounterObjectType ObjectID, TickType
 268:Generated_Source\PSoC5/ErikaOS_ee_oo_internal.inc ****   increment );
 269:Generated_Source\PSoC5/ErikaOS_ee_oo_internal.inc **** 
 270:Generated_Source\PSoC5/ErikaOS_ee_oo_internal.inc **** #if defined (EE_COUNTER_OBJECTS_ROM_SIZE)
 271:Generated_Source\PSoC5/ErikaOS_ee_oo_internal.inc **** #if (EE_COUNTER_OBJECTS_ROM_SIZE > 0)
 272:Generated_Source\PSoC5/ErikaOS_ee_oo_internal.inc **** __INLINE__ void 
 273:Generated_Source\PSoC5/ErikaOS_ee_oo_internal.inc ****   EE_oo_handle_abs_counter_object_insertion( CounterObjectType ObjectID,
 274:Generated_Source\PSoC5/ErikaOS_ee_oo_internal.inc ****     TickType absstart, TickType abscycle ) 
 275:Generated_Source\PSoC5/ErikaOS_ee_oo_internal.inc **** {
 276:Generated_Source\PSoC5/ErikaOS_ee_oo_internal.inc ****   /* These are used to evaluate alarm time handling wrap around */
 277:Generated_Source\PSoC5/ErikaOS_ee_oo_internal.inc ****   register TickType           alarm_time;
 278:Generated_Source\PSoC5/ErikaOS_ee_oo_internal.inc ****   register TickType           start_rel;
 279:Generated_Source\PSoC5/ErikaOS_ee_oo_internal.inc ****   register CounterType const  cnt = EE_oo_counter_object_ROM[ObjectID].c;
 280:Generated_Source\PSoC5/ErikaOS_ee_oo_internal.inc **** 
 281:Generated_Source\PSoC5/ErikaOS_ee_oo_internal.inc ****   /* first, use the alarm and set the cycle */
 282:Generated_Source\PSoC5/ErikaOS_ee_oo_internal.inc ****   EE_oo_counter_object_RAM[ObjectID].used = EE_TRUE;
 283:Generated_Source\PSoC5/ErikaOS_ee_oo_internal.inc ****   EE_oo_counter_object_RAM[ObjectID].cntcycle = abscycle;
 284:Generated_Source\PSoC5/ErikaOS_ee_oo_internal.inc **** 
 285:Generated_Source\PSoC5/ErikaOS_ee_oo_internal.inc ****   /* Handling wrap around for alarm time */
 286:Generated_Source\PSoC5/ErikaOS_ee_oo_internal.inc ****   start_rel = absstart - EE_counter_RAM[cnt].value;
 287:Generated_Source\PSoC5/ErikaOS_ee_oo_internal.inc **** 
 288:Generated_Source\PSoC5/ErikaOS_ee_oo_internal.inc ****   /*  When will be here start value will be already checked against counter
 289:Generated_Source\PSoC5/ErikaOS_ee_oo_internal.inc ****       max allowed value */
 290:Generated_Source\PSoC5/ErikaOS_ee_oo_internal.inc ****   if ( start_rel == 0U ) {
 291:Generated_Source\PSoC5/ErikaOS_ee_oo_internal.inc ****     /* start_rel == 0U -> the alarm should start now or next time that counter
 292:Generated_Source\PSoC5/ErikaOS_ee_oo_internal.inc ****        has this value. Has been chosen the second option */
 293:Generated_Source\PSoC5/ErikaOS_ee_oo_internal.inc ****     alarm_time = EE_counter_ROM[cnt].maxallowedvalue;
 294:Generated_Source\PSoC5/ErikaOS_ee_oo_internal.inc ****   } else if ( start_rel < EE_TYPETICK_HALF_VALUE ) {
 295:Generated_Source\PSoC5/ErikaOS_ee_oo_internal.inc ****     /* Normal behavior */
 296:Generated_Source\PSoC5/ErikaOS_ee_oo_internal.inc ****     alarm_time = start_rel - 1U;
 297:Generated_Source\PSoC5/ErikaOS_ee_oo_internal.inc ****   } else {
 298:Generated_Source\PSoC5/ErikaOS_ee_oo_internal.inc ****     /* start_rel is "negative" in this case (unsigned wrap around do the
 299:Generated_Source\PSoC5/ErikaOS_ee_oo_internal.inc ****        work) */
ARM GAS  C:\Users\rbhar\AppData\Local\Temp\ccOWMrSf.s 			page 15


 300:Generated_Source\PSoC5/ErikaOS_ee_oo_internal.inc ****     alarm_time = EE_counter_ROM[cnt].maxallowedvalue + start_rel;
 301:Generated_Source\PSoC5/ErikaOS_ee_oo_internal.inc ****   }
 302:Generated_Source\PSoC5/ErikaOS_ee_oo_internal.inc **** 
 303:Generated_Source\PSoC5/ErikaOS_ee_oo_internal.inc ****   /* Set alarm with a relative amount of time (alarm_time already is a "0 as
 304:Generated_Source\PSoC5/ErikaOS_ee_oo_internal.inc ****      next tick" value)*/
 305:Generated_Source\PSoC5/ErikaOS_ee_oo_internal.inc ****   EE_oo_counter_object_insert(ObjectID, alarm_time);
 306:Generated_Source\PSoC5/ErikaOS_ee_oo_internal.inc **** }
 307:Generated_Source\PSoC5/ErikaOS_ee_oo_internal.inc **** 
 308:Generated_Source\PSoC5/ErikaOS_ee_oo_internal.inc **** __INLINE__ void 
 309:Generated_Source\PSoC5/ErikaOS_ee_oo_internal.inc ****   EE_oo_handle_rel_counter_object_insertion( CounterObjectType ObjectID,
 310:Generated_Source\PSoC5/ErikaOS_ee_oo_internal.inc ****     TickType increment, TickType relcycle )
 311:Generated_Source\PSoC5/ErikaOS_ee_oo_internal.inc **** {
 312:Generated_Source\PSoC5/ErikaOS_ee_oo_internal.inc **** 
 313:Generated_Source\PSoC5/ErikaOS_ee_oo_internal.inc ****   /* first, use the alarm and set the cycle */
 314:Generated_Source\PSoC5/ErikaOS_ee_oo_internal.inc ****   EE_oo_counter_object_RAM[ObjectID].used = EE_TRUE;
 100              		.loc 3 314 0
 101 0042 0301     		lsls	r3, r0, #4
 102 0044 EE18     		adds	r6, r5, r3
 103 0046 0127     		movs	r7, #1
 104 0048 EF50     		str	r7, [r5, r3]
 315:Generated_Source\PSoC5/ErikaOS_ee_oo_internal.inc ****   EE_oo_counter_object_RAM[ObjectID].cntcycle = relcycle;
 105              		.loc 3 315 0
 106 004a 7260     		str	r2, [r6, #4]
 316:Generated_Source\PSoC5/ErikaOS_ee_oo_internal.inc **** 
 317:Generated_Source\PSoC5/ErikaOS_ee_oo_internal.inc ****   /* then, insert the task into the delta queue with an increment equal
 318:Generated_Source\PSoC5/ErikaOS_ee_oo_internal.inc ****      (increment - 1U) increment equal to 0 means next tick */
 319:Generated_Source\PSoC5/ErikaOS_ee_oo_internal.inc ****   EE_oo_counter_object_insert(ObjectID, (increment - 1U));
 107              		.loc 3 319 0
 108 004c 0139     		subs	r1, r1, #1
 109              	.LVL4:
 110 004e FFF7FEFF 		bl	EE_oo_counter_object_insert
 111              	.LVL5:
 112              	.LBE30:
 113              	.LBE29:
 139:Generated_Source\PSoC5/ErikaOS_ee_alsetrel.c ****       ev = E_OS_STATE;
 140:Generated_Source\PSoC5/ErikaOS_ee_alsetrel.c ****     } else {
 141:Generated_Source\PSoC5/ErikaOS_ee_alsetrel.c ****       EE_oo_handle_rel_counter_object_insertion(AlarmID, increment, cycle);
 142:Generated_Source\PSoC5/ErikaOS_ee_alsetrel.c ****       ev = E_OK;
 114              		.loc 1 142 0
 115 0052 0020     		movs	r0, #0
 116 0054 0AE0     		b	.L2
 117              	.LVL6:
 118              	.L4:
 120:Generated_Source\PSoC5/ErikaOS_ee_alsetrel.c ****     } else
 119              		.loc 1 120 0
 120 0056 0320     		movs	r0, #3
 121              	.LVL7:
 122 0058 08E0     		b	.L2
 123              	.LVL8:
 124              	.L5:
 131:Generated_Source\PSoC5/ErikaOS_ee_alsetrel.c ****     } else
 125              		.loc 1 131 0
 126 005a 0820     		movs	r0, #8
 127              	.LVL9:
 128 005c 06E0     		b	.L2
 129              	.LVL10:
 130              	.L6:
ARM GAS  C:\Users\rbhar\AppData\Local\Temp\ccOWMrSf.s 			page 16


 131 005e 0820     		movs	r0, #8
 132              	.LVL11:
 133 0060 04E0     		b	.L2
 134              	.LVL12:
 135              	.L7:
 136 0062 0820     		movs	r0, #8
 137              	.LVL13:
 138 0064 02E0     		b	.L2
 139              	.LVL14:
 140              	.L8:
 137:Generated_Source\PSoC5/ErikaOS_ee_alsetrel.c ****     } else if ( EE_oo_counter_object_RAM[AlarmID].used ) {
 141              		.loc 1 137 0
 142 0066 0820     		movs	r0, #8
 143              	.LVL15:
 144 0068 00E0     		b	.L2
 145              	.LVL16:
 146              	.L9:
 139:Generated_Source\PSoC5/ErikaOS_ee_alsetrel.c ****     } else {
 147              		.loc 1 139 0
 148 006a 0720     		movs	r0, #7
 149              	.LVL17:
 150              	.L2:
 151              	.LBB31:
 152              	.LBB32:
 153              	.LBB33:
 232:Generated_Source\PSoC5/ErikaOS_cortex_mx_ee_cpu.inc **** #endif	/* !__KEIL__ */
 154              		.loc 2 232 0
 155              		.syntax unified
 156              	@ 232 "Generated_Source\PSoC5\ErikaOS_cortex_mx_ee_cpu.inc" 1
 157 006c 84F31088 		msr primask, r4
 158              	@ 0 "" 2
 159              	.LVL18:
 160              		.thumb
 161              		.syntax unified
 162              	.LBE33:
 163              	.LBE32:
 164              	.LBE31:
 143:Generated_Source\PSoC5/ErikaOS_ee_alsetrel.c ****     }
 144:Generated_Source\PSoC5/ErikaOS_ee_alsetrel.c **** #else /* EE_MAX_ALARM > 0U */
 145:Generated_Source\PSoC5/ErikaOS_ee_alsetrel.c ****     {
 146:Generated_Source\PSoC5/ErikaOS_ee_alsetrel.c ****       ev = E_OS_ID;
 147:Generated_Source\PSoC5/ErikaOS_ee_alsetrel.c ****     }
 148:Generated_Source\PSoC5/ErikaOS_ee_alsetrel.c **** #endif /* EE_MAX_ALARM > 0U */
 149:Generated_Source\PSoC5/ErikaOS_ee_alsetrel.c **** 
 150:Generated_Source\PSoC5/ErikaOS_ee_alsetrel.c **** #ifdef EE_AS_RPC__
 151:Generated_Source\PSoC5/ErikaOS_ee_alsetrel.c ****   }
 152:Generated_Source\PSoC5/ErikaOS_ee_alsetrel.c **** #endif /* EE_AS_RPC__ */
 153:Generated_Source\PSoC5/ErikaOS_ee_alsetrel.c **** 
 154:Generated_Source\PSoC5/ErikaOS_ee_alsetrel.c ****   if ( ev != E_OK ) {
 155:Generated_Source\PSoC5/ErikaOS_ee_alsetrel.c ****     EE_ORTI_set_lasterror(ev);
 156:Generated_Source\PSoC5/ErikaOS_ee_alsetrel.c ****     EE_oo_notify_error_SetRelAlarm(AlarmID, increment, cycle, ev);
 157:Generated_Source\PSoC5/ErikaOS_ee_alsetrel.c ****   }
 158:Generated_Source\PSoC5/ErikaOS_ee_alsetrel.c **** 
 159:Generated_Source\PSoC5/ErikaOS_ee_alsetrel.c ****   EE_ORTI_set_service_out(EE_SERVICETRACE_SETRELALARM);
 160:Generated_Source\PSoC5/ErikaOS_ee_alsetrel.c ****   EE_OS_EXIT_CRITICAL_SECTION();
 161:Generated_Source\PSoC5/ErikaOS_ee_alsetrel.c **** 
 162:Generated_Source\PSoC5/ErikaOS_ee_alsetrel.c ****   return ev;
ARM GAS  C:\Users\rbhar\AppData\Local\Temp\ccOWMrSf.s 			page 17


 163:Generated_Source\PSoC5/ErikaOS_ee_alsetrel.c **** }
 165              		.loc 1 163 0
 166 0070 F8BD     		pop	{r3, r4, r5, r6, r7, pc}
 167              	.L12:
 168 0072 00BF     		.align	2
 169              	.L11:
 170 0074 00000000 		.word	EE_oo_counter_object_ROM
 171 0078 00000000 		.word	EE_counter_ROM
 172 007c 00000000 		.word	EE_oo_counter_object_RAM
 173              		.cfi_endproc
 174              	.LFE70:
 175              		.size	EE_oo_SetRelAlarm, .-EE_oo_SetRelAlarm
 176              		.text
 177              	.Letext0:
 178              		.file 4 "Generated_Source\\PSoC5\\ErikaOS_common_ee_types.inc"
 179              		.file 5 "Generated_Source\\PSoC5\\ErikaOS_ee_oo_common.inc"
 180              		.file 6 "Generated_Source\\PSoC5\\ErikaOS_cortex_mx_ee_internal.inc"
 181              		.file 7 "Generated_Source\\PSoC5\\ErikaOS_common_ee_primitives.inc"
 182              		.file 8 "Generated_Source\\PSoC5\\ErikaOS_cortex_mx_ee_context.inc"
 183              		.file 9 "Generated_Source\\PSoC5\\ErikaOS_ee_oo_intfunc.inc"
 184              		.file 10 "Generated_Source\\PSoC5\\ErikaOS_ee_as_internal.inc"