ARM GAS  C:\Users\rbhar\AppData\Local\Temp\ccK3IQqW.s 			page 1


   1              		.syntax unified
   2              		.cpu cortex-m3
   3              		.fpu softvfp
   4              		.eabi_attribute 20, 1
   5              		.eabi_attribute 21, 1
   6              		.eabi_attribute 23, 3
   7              		.eabi_attribute 24, 1
   8              		.eabi_attribute 25, 1
   9              		.eabi_attribute 26, 1
  10              		.eabi_attribute 30, 1
  11              		.eabi_attribute 34, 1
  12              		.eabi_attribute 18, 4
  13              		.thumb
  14              		.syntax unified
  15              		.file	"ErikaOS_ee_activate.c"
  16              		.text
  17              	.Ltext0:
  18              		.cfi_sections	.debug_frame
  19              		.section	.text.EE_oo_ActivateTask,"ax",%progbits
  20              		.align	2
  21              		.global	EE_oo_ActivateTask
  22              		.thumb
  23              		.thumb_func
  24              		.type	EE_oo_ActivateTask, %function
  25              	EE_oo_ActivateTask:
  26              	.LFB59:
  27              		.file 1 "Generated_Source\\PSoC5\\ErikaOS_ee_activate.c"
   1:Generated_Source\PSoC5/ErikaOS_ee_activate.c **** /* ###*B*###
   2:Generated_Source\PSoC5/ErikaOS_ee_activate.c ****  * ERIKA Enterprise - a tiny RTOS for small microcontrollers
   3:Generated_Source\PSoC5/ErikaOS_ee_activate.c ****  *
   4:Generated_Source\PSoC5/ErikaOS_ee_activate.c ****  * Copyright (C) 2002-2008  Evidence Srl
   5:Generated_Source\PSoC5/ErikaOS_ee_activate.c ****  *
   6:Generated_Source\PSoC5/ErikaOS_ee_activate.c ****  * This file is part of ERIKA Enterprise.
   7:Generated_Source\PSoC5/ErikaOS_ee_activate.c ****  *
   8:Generated_Source\PSoC5/ErikaOS_ee_activate.c ****  * ERIKA Enterprise is free software; you can redistribute it
   9:Generated_Source\PSoC5/ErikaOS_ee_activate.c ****  * and/or modify it under the terms of the GNU General Public License
  10:Generated_Source\PSoC5/ErikaOS_ee_activate.c ****  * version 2 as published by the Free Software Foundation, 
  11:Generated_Source\PSoC5/ErikaOS_ee_activate.c ****  * (with a special exception described below).
  12:Generated_Source\PSoC5/ErikaOS_ee_activate.c ****  *
  13:Generated_Source\PSoC5/ErikaOS_ee_activate.c ****  * Linking this code statically or dynamically with other modules is
  14:Generated_Source\PSoC5/ErikaOS_ee_activate.c ****  * making a combined work based on this code.  Thus, the terms and
  15:Generated_Source\PSoC5/ErikaOS_ee_activate.c ****  * conditions of the GNU General Public License cover the whole
  16:Generated_Source\PSoC5/ErikaOS_ee_activate.c ****  * combination.
  17:Generated_Source\PSoC5/ErikaOS_ee_activate.c ****  *
  18:Generated_Source\PSoC5/ErikaOS_ee_activate.c ****  * As a special exception, the copyright holders of this library give you
  19:Generated_Source\PSoC5/ErikaOS_ee_activate.c ****  * permission to link this code with independent modules to produce an
  20:Generated_Source\PSoC5/ErikaOS_ee_activate.c ****  * executable, regardless of the license terms of these independent
  21:Generated_Source\PSoC5/ErikaOS_ee_activate.c ****  * modules, and to copy and distribute the resulting executable under
  22:Generated_Source\PSoC5/ErikaOS_ee_activate.c ****  * terms of your choice, provided that you also meet, for each linked
  23:Generated_Source\PSoC5/ErikaOS_ee_activate.c ****  * independent module, the terms and conditions of the license of that
  24:Generated_Source\PSoC5/ErikaOS_ee_activate.c ****  * module.  An independent module is a module which is not derived from
  25:Generated_Source\PSoC5/ErikaOS_ee_activate.c ****  * or based on this library.  If you modify this code, you may extend
  26:Generated_Source\PSoC5/ErikaOS_ee_activate.c ****  * this exception to your version of the code, but you are not
  27:Generated_Source\PSoC5/ErikaOS_ee_activate.c ****  * obligated to do so.  If you do not wish to do so, delete this
  28:Generated_Source\PSoC5/ErikaOS_ee_activate.c ****  * exception statement from your version.
  29:Generated_Source\PSoC5/ErikaOS_ee_activate.c ****  *
  30:Generated_Source\PSoC5/ErikaOS_ee_activate.c ****  * ERIKA Enterprise is distributed in the hope that it will be
ARM GAS  C:\Users\rbhar\AppData\Local\Temp\ccK3IQqW.s 			page 2


  31:Generated_Source\PSoC5/ErikaOS_ee_activate.c ****  * useful, but WITHOUT ANY WARRANTY; without even the implied warranty
  32:Generated_Source\PSoC5/ErikaOS_ee_activate.c ****  * of MERCHANTABILITY or FITNESS FOR A PARTICULAR PURPOSE.  See the
  33:Generated_Source\PSoC5/ErikaOS_ee_activate.c ****  * GNU General Public License version 2 for more details.
  34:Generated_Source\PSoC5/ErikaOS_ee_activate.c ****  *
  35:Generated_Source\PSoC5/ErikaOS_ee_activate.c ****  * You should have received a copy of the GNU General Public License
  36:Generated_Source\PSoC5/ErikaOS_ee_activate.c ****  * version 2 along with ERIKA Enterprise; if not, write to the
  37:Generated_Source\PSoC5/ErikaOS_ee_activate.c ****  * Free Software Foundation, Inc., 51 Franklin Street, Fifth Floor,
  38:Generated_Source\PSoC5/ErikaOS_ee_activate.c ****  * Boston, MA 02110-1301 USA.
  39:Generated_Source\PSoC5/ErikaOS_ee_activate.c ****  * ###*E*### */
  40:Generated_Source\PSoC5/ErikaOS_ee_activate.c **** 
  41:Generated_Source\PSoC5/ErikaOS_ee_activate.c **** /*
  42:Generated_Source\PSoC5/ErikaOS_ee_activate.c ****  * Author: 2002 Paolo Gai
  43:Generated_Source\PSoC5/ErikaOS_ee_activate.c ****  * CVS: $Id: ee_activate.c,v 1.5 2006/01/05 14:37:22 pj Exp $
  44:Generated_Source\PSoC5/ErikaOS_ee_activate.c ****  */
  45:Generated_Source\PSoC5/ErikaOS_ee_activate.c **** 
  46:Generated_Source\PSoC5/ErikaOS_ee_activate.c **** /*
  47:Generated_Source\PSoC5/ErikaOS_ee_activate.c ****  * PSoC Port and API Generation
  48:Generated_Source\PSoC5/ErikaOS_ee_activate.c ****  * Carlos Fernando Meier Martinez
  49:Generated_Source\PSoC5/ErikaOS_ee_activate.c ****  * Hochschule Darmstadt, Germany. 2017.
  50:Generated_Source\PSoC5/ErikaOS_ee_activate.c ****  */
  51:Generated_Source\PSoC5/ErikaOS_ee_activate.c **** 
  52:Generated_Source\PSoC5/ErikaOS_ee_activate.c **** #include "ErikaOS_ee_internal.inc"
  53:Generated_Source\PSoC5/ErikaOS_ee_activate.c **** 
  54:Generated_Source\PSoC5/ErikaOS_ee_activate.c **** /* ActivateTask:
  55:Generated_Source\PSoC5/ErikaOS_ee_activate.c ****    - The task is moved from the suspended state to the ready state
  56:Generated_Source\PSoC5/ErikaOS_ee_activate.c ****    - called from interrupts, from tasks, from StartupHook
  57:Generated_Source\PSoC5/ErikaOS_ee_activate.c ****    - returns E_OS_LIMIT if too many activations are issued
  58:Generated_Source\PSoC5/ErikaOS_ee_activate.c ****       E_OK otherwise
  59:Generated_Source\PSoC5/ErikaOS_ee_activate.c ****       E_OS_ID if the taskID is invalid (Extended status)
  60:Generated_Source\PSoC5/ErikaOS_ee_activate.c ****    - clears the events of a task (extended task)
  61:Generated_Source\PSoC5/ErikaOS_ee_activate.c **** 
  62:Generated_Source\PSoC5/ErikaOS_ee_activate.c ****    NOTE: part of this source code is copied into altick.c!
  63:Generated_Source\PSoC5/ErikaOS_ee_activate.c **** */
  64:Generated_Source\PSoC5/ErikaOS_ee_activate.c **** 
  65:Generated_Source\PSoC5/ErikaOS_ee_activate.c **** #ifndef __PRIVATE_ACTIVATETASK__
  66:Generated_Source\PSoC5/ErikaOS_ee_activate.c **** StatusType EE_oo_ActivateTask(TaskType TaskID)
  67:Generated_Source\PSoC5/ErikaOS_ee_activate.c **** {
  28              		.loc 1 67 0
  29              		.cfi_startproc
  30              		@ args = 0, pretend = 0, frame = 0
  31              		@ frame_needed = 0, uses_anonymous_args = 0
  32              	.LVL0:
  33 0000 38B5     		push	{r3, r4, r5, lr}
  34              		.cfi_def_cfa_offset 16
  35              		.cfi_offset 3, -16
  36              		.cfi_offset 4, -12
  37              		.cfi_offset 5, -8
  38              		.cfi_offset 14, -4
  39              	.LBB70:
  40              	.LBB71:
  41              	.LBB72:
  42              		.file 2 "Generated_Source\\PSoC5\\ErikaOS_cortex_mx_ee_cpu.inc"
   1:Generated_Source\PSoC5/ErikaOS_cortex_mx_ee_cpu.inc **** /* ###*B*###
   2:Generated_Source\PSoC5/ErikaOS_cortex_mx_ee_cpu.inc ****  * ERIKA Enterprise - a tiny RTOS for small microcontrollers
   3:Generated_Source\PSoC5/ErikaOS_cortex_mx_ee_cpu.inc ****  *
   4:Generated_Source\PSoC5/ErikaOS_cortex_mx_ee_cpu.inc ****  * Copyright (C) 2002-2011  Evidence Srl
   5:Generated_Source\PSoC5/ErikaOS_cortex_mx_ee_cpu.inc ****  *
ARM GAS  C:\Users\rbhar\AppData\Local\Temp\ccK3IQqW.s 			page 3


   6:Generated_Source\PSoC5/ErikaOS_cortex_mx_ee_cpu.inc ****  * This file is part of ERIKA Enterprise.
   7:Generated_Source\PSoC5/ErikaOS_cortex_mx_ee_cpu.inc ****  *
   8:Generated_Source\PSoC5/ErikaOS_cortex_mx_ee_cpu.inc ****  * ERIKA Enterprise is free software; you can redistribute it
   9:Generated_Source\PSoC5/ErikaOS_cortex_mx_ee_cpu.inc ****  * and/or modify it under the terms of the GNU General Public License
  10:Generated_Source\PSoC5/ErikaOS_cortex_mx_ee_cpu.inc ****  * version 2 as published by the Free Software Foundation, 
  11:Generated_Source\PSoC5/ErikaOS_cortex_mx_ee_cpu.inc ****  * (with a special exception described below).
  12:Generated_Source\PSoC5/ErikaOS_cortex_mx_ee_cpu.inc ****  *
  13:Generated_Source\PSoC5/ErikaOS_cortex_mx_ee_cpu.inc ****  * Linking this code statically or dynamically with other modules is
  14:Generated_Source\PSoC5/ErikaOS_cortex_mx_ee_cpu.inc ****  * making a combined work based on this code.  Thus, the terms and
  15:Generated_Source\PSoC5/ErikaOS_cortex_mx_ee_cpu.inc ****  * conditions of the GNU General Public License cover the whole
  16:Generated_Source\PSoC5/ErikaOS_cortex_mx_ee_cpu.inc ****  * combination.
  17:Generated_Source\PSoC5/ErikaOS_cortex_mx_ee_cpu.inc ****  *
  18:Generated_Source\PSoC5/ErikaOS_cortex_mx_ee_cpu.inc ****  * As a special exception, the copyright holders of this library give you
  19:Generated_Source\PSoC5/ErikaOS_cortex_mx_ee_cpu.inc ****  * permission to link this code with independent modules to produce an
  20:Generated_Source\PSoC5/ErikaOS_cortex_mx_ee_cpu.inc ****  * executable, regardless of the license terms of these independent
  21:Generated_Source\PSoC5/ErikaOS_cortex_mx_ee_cpu.inc ****  * modules, and to copy and distribute the resulting executable under
  22:Generated_Source\PSoC5/ErikaOS_cortex_mx_ee_cpu.inc ****  * terms of your choice, provided that you also meet, for each linked
  23:Generated_Source\PSoC5/ErikaOS_cortex_mx_ee_cpu.inc ****  * independent module, the terms and conditions of the license of that
  24:Generated_Source\PSoC5/ErikaOS_cortex_mx_ee_cpu.inc ****  * module.  An independent module is a module which is not derived from
  25:Generated_Source\PSoC5/ErikaOS_cortex_mx_ee_cpu.inc ****  * or based on this library.  If you modify this code, you may extend
  26:Generated_Source\PSoC5/ErikaOS_cortex_mx_ee_cpu.inc ****  * this exception to your version of the code, but you are not
  27:Generated_Source\PSoC5/ErikaOS_cortex_mx_ee_cpu.inc ****  * obligated to do so.  If you do not wish to do so, delete this
  28:Generated_Source\PSoC5/ErikaOS_cortex_mx_ee_cpu.inc ****  * exception statement from your version.
  29:Generated_Source\PSoC5/ErikaOS_cortex_mx_ee_cpu.inc ****  *
  30:Generated_Source\PSoC5/ErikaOS_cortex_mx_ee_cpu.inc ****  * ERIKA Enterprise is distributed in the hope that it will be
  31:Generated_Source\PSoC5/ErikaOS_cortex_mx_ee_cpu.inc ****  * useful, but WITHOUT ANY WARRANTY; without even the implied warranty
  32:Generated_Source\PSoC5/ErikaOS_cortex_mx_ee_cpu.inc ****  * of MERCHANTABILITY or FITNESS FOR A PARTICULAR PURPOSE.  See the
  33:Generated_Source\PSoC5/ErikaOS_cortex_mx_ee_cpu.inc ****  * GNU General Public License version 2 for more details.
  34:Generated_Source\PSoC5/ErikaOS_cortex_mx_ee_cpu.inc ****  *
  35:Generated_Source\PSoC5/ErikaOS_cortex_mx_ee_cpu.inc ****  * You should have received a copy of the GNU General Public License
  36:Generated_Source\PSoC5/ErikaOS_cortex_mx_ee_cpu.inc ****  * version 2 along with ERIKA Enterprise; if not, write to the
  37:Generated_Source\PSoC5/ErikaOS_cortex_mx_ee_cpu.inc ****  * Free Software Foundation, Inc., 51 Franklin Street, Fifth Floor,
  38:Generated_Source\PSoC5/ErikaOS_cortex_mx_ee_cpu.inc ****  * Boston, MA 02110-1301 USA.
  39:Generated_Source\PSoC5/ErikaOS_cortex_mx_ee_cpu.inc ****  * ###*E*### */
  40:Generated_Source\PSoC5/ErikaOS_cortex_mx_ee_cpu.inc **** 
  41:Generated_Source\PSoC5/ErikaOS_cortex_mx_ee_cpu.inc **** /** 
  42:Generated_Source\PSoC5/ErikaOS_cortex_mx_ee_cpu.inc **** 	@file ee_cpu.h
  43:Generated_Source\PSoC5/ErikaOS_cortex_mx_ee_cpu.inc **** 	@brief CPU-dependent part of HAL. Derived from pkg/cpu/pic30/inc/ee_cpu.h
  44:Generated_Source\PSoC5/ErikaOS_cortex_mx_ee_cpu.inc **** 	@author Gianluca Franchino
  45:Generated_Source\PSoC5/ErikaOS_cortex_mx_ee_cpu.inc **** 	@author Giuseppe Serano
  46:Generated_Source\PSoC5/ErikaOS_cortex_mx_ee_cpu.inc **** 	@date 2011
  47:Generated_Source\PSoC5/ErikaOS_cortex_mx_ee_cpu.inc **** */ 
  48:Generated_Source\PSoC5/ErikaOS_cortex_mx_ee_cpu.inc ****     
  49:Generated_Source\PSoC5/ErikaOS_cortex_mx_ee_cpu.inc **** /*
  50:Generated_Source\PSoC5/ErikaOS_cortex_mx_ee_cpu.inc ****  * PSoC Port and API Generation
  51:Generated_Source\PSoC5/ErikaOS_cortex_mx_ee_cpu.inc ****  * Carlos Fernando Meier Martinez
  52:Generated_Source\PSoC5/ErikaOS_cortex_mx_ee_cpu.inc ****  * Hochschule Darmstadt, Germany. 2017.
  53:Generated_Source\PSoC5/ErikaOS_cortex_mx_ee_cpu.inc ****  */
  54:Generated_Source\PSoC5/ErikaOS_cortex_mx_ee_cpu.inc **** 
  55:Generated_Source\PSoC5/ErikaOS_cortex_mx_ee_cpu.inc **** #ifndef __INCLUDE_CORTEX_MX_EE_CPU_H__
  56:Generated_Source\PSoC5/ErikaOS_cortex_mx_ee_cpu.inc **** #define __INCLUDE_CORTEX_MX_EE_CPU_H__
  57:Generated_Source\PSoC5/ErikaOS_cortex_mx_ee_cpu.inc **** 
  58:Generated_Source\PSoC5/ErikaOS_cortex_mx_ee_cpu.inc **** #include "ErikaOS_eecfg.inc"
  59:Generated_Source\PSoC5/ErikaOS_cortex_mx_ee_cpu.inc **** 
  60:Generated_Source\PSoC5/ErikaOS_cortex_mx_ee_cpu.inc **** 
  61:Generated_Source\PSoC5/ErikaOS_cortex_mx_ee_cpu.inc **** #ifdef __GNU__
  62:Generated_Source\PSoC5/ErikaOS_cortex_mx_ee_cpu.inc **** #include "ErikaOS_common_ee_compiler_gcc.inc"
ARM GAS  C:\Users\rbhar\AppData\Local\Temp\ccK3IQqW.s 			page 4


  63:Generated_Source\PSoC5/ErikaOS_cortex_mx_ee_cpu.inc **** #endif
  64:Generated_Source\PSoC5/ErikaOS_cortex_mx_ee_cpu.inc **** 
  65:Generated_Source\PSoC5/ErikaOS_cortex_mx_ee_cpu.inc **** /* Initial stack offset (in words): Used in multistack. */
  66:Generated_Source\PSoC5/ErikaOS_cortex_mx_ee_cpu.inc **** #ifndef CORTEX_MX_INIT_TOS_OFFSET
  67:Generated_Source\PSoC5/ErikaOS_cortex_mx_ee_cpu.inc **** #define CORTEX_MX_INIT_TOS_OFFSET 10
  68:Generated_Source\PSoC5/ErikaOS_cortex_mx_ee_cpu.inc **** #endif
  69:Generated_Source\PSoC5/ErikaOS_cortex_mx_ee_cpu.inc **** 
  70:Generated_Source\PSoC5/ErikaOS_cortex_mx_ee_cpu.inc **** /*************************************************************************
  71:Generated_Source\PSoC5/ErikaOS_cortex_mx_ee_cpu.inc ****  HAL Types and structures
  72:Generated_Source\PSoC5/ErikaOS_cortex_mx_ee_cpu.inc ****  *************************************************************************/
  73:Generated_Source\PSoC5/ErikaOS_cortex_mx_ee_cpu.inc **** 
  74:Generated_Source\PSoC5/ErikaOS_cortex_mx_ee_cpu.inc **** /* Primitive data types */
  75:Generated_Source\PSoC5/ErikaOS_cortex_mx_ee_cpu.inc **** #include "ErikaOS_common_ee_types.inc"
  76:Generated_Source\PSoC5/ErikaOS_cortex_mx_ee_cpu.inc **** 
  77:Generated_Source\PSoC5/ErikaOS_cortex_mx_ee_cpu.inc **** typedef EE_UINT32 EE_UREG;
  78:Generated_Source\PSoC5/ErikaOS_cortex_mx_ee_cpu.inc **** typedef EE_INT32  EE_SREG;
  79:Generated_Source\PSoC5/ErikaOS_cortex_mx_ee_cpu.inc **** typedef EE_UINT32 EE_FREG;
  80:Generated_Source\PSoC5/ErikaOS_cortex_mx_ee_cpu.inc **** #define EE_UREG_SIZE 4
  81:Generated_Source\PSoC5/ErikaOS_cortex_mx_ee_cpu.inc **** 
  82:Generated_Source\PSoC5/ErikaOS_cortex_mx_ee_cpu.inc **** /* boolean type */
  83:Generated_Source\PSoC5/ErikaOS_cortex_mx_ee_cpu.inc **** #ifndef EE_TYPEBOOL
  84:Generated_Source\PSoC5/ErikaOS_cortex_mx_ee_cpu.inc **** typedef EE_UREG EE_TYPEBOOL;
  85:Generated_Source\PSoC5/ErikaOS_cortex_mx_ee_cpu.inc **** #endif
  86:Generated_Source\PSoC5/ErikaOS_cortex_mx_ee_cpu.inc **** 
  87:Generated_Source\PSoC5/ErikaOS_cortex_mx_ee_cpu.inc **** /* boolean true define */
  88:Generated_Source\PSoC5/ErikaOS_cortex_mx_ee_cpu.inc **** #ifndef EE_TRUE
  89:Generated_Source\PSoC5/ErikaOS_cortex_mx_ee_cpu.inc **** #define EE_TRUE ((EE_TYPEBOOL)1U)
  90:Generated_Source\PSoC5/ErikaOS_cortex_mx_ee_cpu.inc **** #endif
  91:Generated_Source\PSoC5/ErikaOS_cortex_mx_ee_cpu.inc **** 
  92:Generated_Source\PSoC5/ErikaOS_cortex_mx_ee_cpu.inc **** /* boolean false define */
  93:Generated_Source\PSoC5/ErikaOS_cortex_mx_ee_cpu.inc **** #ifndef EE_FALSE
  94:Generated_Source\PSoC5/ErikaOS_cortex_mx_ee_cpu.inc **** #define EE_FALSE ((EE_TYPEBOOL)0U)
  95:Generated_Source\PSoC5/ErikaOS_cortex_mx_ee_cpu.inc **** #endif
  96:Generated_Source\PSoC5/ErikaOS_cortex_mx_ee_cpu.inc **** 
  97:Generated_Source\PSoC5/ErikaOS_cortex_mx_ee_cpu.inc **** #define	EE_HWREG_PTR		volatile EE_UREG *
  98:Generated_Source\PSoC5/ErikaOS_cortex_mx_ee_cpu.inc **** #define	EE_HWREG_ADDR(x)	((EE_HWREG_PTR)(x))
  99:Generated_Source\PSoC5/ErikaOS_cortex_mx_ee_cpu.inc **** #define	EE_HWREG(x)		(*EE_HWREG_ADDR(x))
 100:Generated_Source\PSoC5/ErikaOS_cortex_mx_ee_cpu.inc **** 
 101:Generated_Source\PSoC5/ErikaOS_cortex_mx_ee_cpu.inc **** #ifdef __GNU__
 102:Generated_Source\PSoC5/ErikaOS_cortex_mx_ee_cpu.inc **** 
 103:Generated_Source\PSoC5/ErikaOS_cortex_mx_ee_cpu.inc **** /* Get current SP */
 104:Generated_Source\PSoC5/ErikaOS_cortex_mx_ee_cpu.inc **** __INLINE__ EE_UINT32  __current_sp(void)
 105:Generated_Source\PSoC5/ErikaOS_cortex_mx_ee_cpu.inc **** {
 106:Generated_Source\PSoC5/ErikaOS_cortex_mx_ee_cpu.inc **** EE_UINT32 temp;
 107:Generated_Source\PSoC5/ErikaOS_cortex_mx_ee_cpu.inc **** __ASM ("mov %0, sp" : "=r" (temp) : );
 108:Generated_Source\PSoC5/ErikaOS_cortex_mx_ee_cpu.inc **** return temp;
 109:Generated_Source\PSoC5/ErikaOS_cortex_mx_ee_cpu.inc **** }
 110:Generated_Source\PSoC5/ErikaOS_cortex_mx_ee_cpu.inc **** 
 111:Generated_Source\PSoC5/ErikaOS_cortex_mx_ee_cpu.inc **** /* Set a breakpoint */
 112:Generated_Source\PSoC5/ErikaOS_cortex_mx_ee_cpu.inc **** #define __breakpoint(value)	__ASM ("bkpt "#value)
 113:Generated_Source\PSoC5/ErikaOS_cortex_mx_ee_cpu.inc **** 
 114:Generated_Source\PSoC5/ErikaOS_cortex_mx_ee_cpu.inc **** #endif
 115:Generated_Source\PSoC5/ErikaOS_cortex_mx_ee_cpu.inc **** 
 116:Generated_Source\PSoC5/ErikaOS_cortex_mx_ee_cpu.inc **** /* ISR Priority representation type */
 117:Generated_Source\PSoC5/ErikaOS_cortex_mx_ee_cpu.inc **** typedef EE_UREG EE_TYPEISR2PRIO;
 118:Generated_Source\PSoC5/ErikaOS_cortex_mx_ee_cpu.inc **** 
 119:Generated_Source\PSoC5/ErikaOS_cortex_mx_ee_cpu.inc **** /* Thread IDs */
ARM GAS  C:\Users\rbhar\AppData\Local\Temp\ccK3IQqW.s 			page 5


 120:Generated_Source\PSoC5/ErikaOS_cortex_mx_ee_cpu.inc **** typedef EE_INT32 EE_TID;
 121:Generated_Source\PSoC5/ErikaOS_cortex_mx_ee_cpu.inc **** 
 122:Generated_Source\PSoC5/ErikaOS_cortex_mx_ee_cpu.inc **** /* Thread IDs - unsigned version*/
 123:Generated_Source\PSoC5/ErikaOS_cortex_mx_ee_cpu.inc **** typedef EE_UINT32 EE_UTID;
 124:Generated_Source\PSoC5/ErikaOS_cortex_mx_ee_cpu.inc **** 
 125:Generated_Source\PSoC5/ErikaOS_cortex_mx_ee_cpu.inc **** /* Used by the common layer to decide whether to start a new thread */
 126:Generated_Source\PSoC5/ErikaOS_cortex_mx_ee_cpu.inc **** #define TID_IS_STACKED_MARK 0x80000000
 127:Generated_Source\PSoC5/ErikaOS_cortex_mx_ee_cpu.inc **** 
 128:Generated_Source\PSoC5/ErikaOS_cortex_mx_ee_cpu.inc **** /* EE_TYPEIRQ is currently unused */
 129:Generated_Source\PSoC5/ErikaOS_cortex_mx_ee_cpu.inc **** 
 130:Generated_Source\PSoC5/ErikaOS_cortex_mx_ee_cpu.inc **** /* XXX: define EE_TIME? */
 131:Generated_Source\PSoC5/ErikaOS_cortex_mx_ee_cpu.inc **** 
 132:Generated_Source\PSoC5/ErikaOS_cortex_mx_ee_cpu.inc **** /* Use the "standard" implementation */
 133:Generated_Source\PSoC5/ErikaOS_cortex_mx_ee_cpu.inc **** #include "ErikaOS_common_ee_hal_structs.inc"
 134:Generated_Source\PSoC5/ErikaOS_cortex_mx_ee_cpu.inc **** 
 135:Generated_Source\PSoC5/ErikaOS_cortex_mx_ee_cpu.inc **** /******************************************************************************
 136:Generated_Source\PSoC5/ErikaOS_cortex_mx_ee_cpu.inc ****  Application dependent data types
 137:Generated_Source\PSoC5/ErikaOS_cortex_mx_ee_cpu.inc ****  ******************************************************************************/
 138:Generated_Source\PSoC5/ErikaOS_cortex_mx_ee_cpu.inc **** 
 139:Generated_Source\PSoC5/ErikaOS_cortex_mx_ee_cpu.inc **** #ifdef	__HAS_TYPES_H__
 140:Generated_Source\PSoC5/ErikaOS_cortex_mx_ee_cpu.inc **** #include	"types.h"
 141:Generated_Source\PSoC5/ErikaOS_cortex_mx_ee_cpu.inc **** #endif
 142:Generated_Source\PSoC5/ErikaOS_cortex_mx_ee_cpu.inc **** 
 143:Generated_Source\PSoC5/ErikaOS_cortex_mx_ee_cpu.inc **** /******************************************************************************
 144:Generated_Source\PSoC5/ErikaOS_cortex_mx_ee_cpu.inc ****  CPU Peripherals
 145:Generated_Source\PSoC5/ErikaOS_cortex_mx_ee_cpu.inc ****  ******************************************************************************/
 146:Generated_Source\PSoC5/ErikaOS_cortex_mx_ee_cpu.inc **** 
 147:Generated_Source\PSoC5/ErikaOS_cortex_mx_ee_cpu.inc **** #ifdef __CORTEX_MX__
 148:Generated_Source\PSoC5/ErikaOS_cortex_mx_ee_cpu.inc **** #include "ErikaOS_cortex_mx_ee_nvic.inc"
 149:Generated_Source\PSoC5/ErikaOS_cortex_mx_ee_cpu.inc **** #include "ErikaOS_cortex_mx_ee_systick.inc"
 150:Generated_Source\PSoC5/ErikaOS_cortex_mx_ee_cpu.inc **** #endif
 151:Generated_Source\PSoC5/ErikaOS_cortex_mx_ee_cpu.inc **** 
 152:Generated_Source\PSoC5/ErikaOS_cortex_mx_ee_cpu.inc **** /******************************************************************************
 153:Generated_Source\PSoC5/ErikaOS_cortex_mx_ee_cpu.inc ****  HAL Variables
 154:Generated_Source\PSoC5/ErikaOS_cortex_mx_ee_cpu.inc ****  ******************************************************************************/
 155:Generated_Source\PSoC5/ErikaOS_cortex_mx_ee_cpu.inc **** 
 156:Generated_Source\PSoC5/ErikaOS_cortex_mx_ee_cpu.inc **** #ifdef __MULTI__
 157:Generated_Source\PSoC5/ErikaOS_cortex_mx_ee_cpu.inc **** 
 158:Generated_Source\PSoC5/ErikaOS_cortex_mx_ee_cpu.inc **** /* Top-of-stack of each private stack */
 159:Generated_Source\PSoC5/ErikaOS_cortex_mx_ee_cpu.inc **** extern struct EE_TOS EE_cortex_mx_system_tos[];
 160:Generated_Source\PSoC5/ErikaOS_cortex_mx_ee_cpu.inc **** //#define	EE_std_system_tos EE_cortex_mx_system_tos
 161:Generated_Source\PSoC5/ErikaOS_cortex_mx_ee_cpu.inc **** 
 162:Generated_Source\PSoC5/ErikaOS_cortex_mx_ee_cpu.inc **** /* Index of the current stack */
 163:Generated_Source\PSoC5/ErikaOS_cortex_mx_ee_cpu.inc **** extern EE_UREG EE_cortex_mx_active_tos;
 164:Generated_Source\PSoC5/ErikaOS_cortex_mx_ee_cpu.inc **** #define	EE_hal_active_tos EE_cortex_mx_active_tos
 165:Generated_Source\PSoC5/ErikaOS_cortex_mx_ee_cpu.inc **** 
 166:Generated_Source\PSoC5/ErikaOS_cortex_mx_ee_cpu.inc **** /*extern	EE_UREG EE_pic30_thread_tos[];
 167:Generated_Source\PSoC5/ErikaOS_cortex_mx_ee_cpu.inc **** #define	EE_std_thread_tos EE_pic30_thread_tos */
 168:Generated_Source\PSoC5/ErikaOS_cortex_mx_ee_cpu.inc **** #endif /* __MULTI__ */
 169:Generated_Source\PSoC5/ErikaOS_cortex_mx_ee_cpu.inc **** 
 170:Generated_Source\PSoC5/ErikaOS_cortex_mx_ee_cpu.inc **** /*********************************************************************
 171:Generated_Source\PSoC5/ErikaOS_cortex_mx_ee_cpu.inc ****  Cortex M0 interrupt disabling/enabling
 172:Generated_Source\PSoC5/ErikaOS_cortex_mx_ee_cpu.inc ****  *********************************************************************/
 173:Generated_Source\PSoC5/ErikaOS_cortex_mx_ee_cpu.inc **** 
 174:Generated_Source\PSoC5/ErikaOS_cortex_mx_ee_cpu.inc **** /* Used to check the value returned by EE_cortex_mx_disableIRQ */
 175:Generated_Source\PSoC5/ErikaOS_cortex_mx_ee_cpu.inc **** #define EE_cortex_mx_are_IRQs_enabled(ie) ((ie) ^ 1)
 176:Generated_Source\PSoC5/ErikaOS_cortex_mx_ee_cpu.inc **** 
ARM GAS  C:\Users\rbhar\AppData\Local\Temp\ccK3IQqW.s 			page 6


 177:Generated_Source\PSoC5/ErikaOS_cortex_mx_ee_cpu.inc **** /**
 178:Generated_Source\PSoC5/ErikaOS_cortex_mx_ee_cpu.inc ****  * Enable interrupts
 179:Generated_Source\PSoC5/ErikaOS_cortex_mx_ee_cpu.inc ****  */
 180:Generated_Source\PSoC5/ErikaOS_cortex_mx_ee_cpu.inc **** __INLINE__ void  EE_cortex_mx_enableIRQ(void)
 181:Generated_Source\PSoC5/ErikaOS_cortex_mx_ee_cpu.inc **** {
 182:Generated_Source\PSoC5/ErikaOS_cortex_mx_ee_cpu.inc **** #ifdef __IAR__
 183:Generated_Source\PSoC5/ErikaOS_cortex_mx_ee_cpu.inc **** 	__ASM ("cpsie i");
 184:Generated_Source\PSoC5/ErikaOS_cortex_mx_ee_cpu.inc **** #else	/* __IAR__ */
 185:Generated_Source\PSoC5/ErikaOS_cortex_mx_ee_cpu.inc **** #ifdef __CCS__
 186:Generated_Source\PSoC5/ErikaOS_cortex_mx_ee_cpu.inc **** 	__ASM ("    cpsie    i\n");
 187:Generated_Source\PSoC5/ErikaOS_cortex_mx_ee_cpu.inc **** #else	/* __CCS__ */
 188:Generated_Source\PSoC5/ErikaOS_cortex_mx_ee_cpu.inc **** #ifdef __KEIL__
 189:Generated_Source\PSoC5/ErikaOS_cortex_mx_ee_cpu.inc **** 	__enable_irq();
 190:Generated_Source\PSoC5/ErikaOS_cortex_mx_ee_cpu.inc **** #else	/* __KEIL__ */
 191:Generated_Source\PSoC5/ErikaOS_cortex_mx_ee_cpu.inc **** 	__ASM volatile("cpsie i");
 192:Generated_Source\PSoC5/ErikaOS_cortex_mx_ee_cpu.inc **** #endif	/* !__KEIL__ */
 193:Generated_Source\PSoC5/ErikaOS_cortex_mx_ee_cpu.inc **** #endif	/* !__CCS__ */
 194:Generated_Source\PSoC5/ErikaOS_cortex_mx_ee_cpu.inc **** #endif	/* !__IAR__ */
 195:Generated_Source\PSoC5/ErikaOS_cortex_mx_ee_cpu.inc **** }
 196:Generated_Source\PSoC5/ErikaOS_cortex_mx_ee_cpu.inc **** 
 197:Generated_Source\PSoC5/ErikaOS_cortex_mx_ee_cpu.inc **** /**
 198:Generated_Source\PSoC5/ErikaOS_cortex_mx_ee_cpu.inc ****  * Disable interrupts
 199:Generated_Source\PSoC5/ErikaOS_cortex_mx_ee_cpu.inc ****  */
 200:Generated_Source\PSoC5/ErikaOS_cortex_mx_ee_cpu.inc **** __INLINE__ void  EE_cortex_mx_disableIRQ(void)
 201:Generated_Source\PSoC5/ErikaOS_cortex_mx_ee_cpu.inc **** {
 202:Generated_Source\PSoC5/ErikaOS_cortex_mx_ee_cpu.inc **** #ifdef __IAR__
 203:Generated_Source\PSoC5/ErikaOS_cortex_mx_ee_cpu.inc **** 	__ASM ("cpsid i");
 204:Generated_Source\PSoC5/ErikaOS_cortex_mx_ee_cpu.inc **** #else	/* __IAR__ */
 205:Generated_Source\PSoC5/ErikaOS_cortex_mx_ee_cpu.inc **** #ifdef __CCS__
 206:Generated_Source\PSoC5/ErikaOS_cortex_mx_ee_cpu.inc **** 	__ASM ("    cpsid    i\n");
 207:Generated_Source\PSoC5/ErikaOS_cortex_mx_ee_cpu.inc **** #else	/* __CCS__ */
 208:Generated_Source\PSoC5/ErikaOS_cortex_mx_ee_cpu.inc **** #ifdef __KEIL__
 209:Generated_Source\PSoC5/ErikaOS_cortex_mx_ee_cpu.inc **** 	__disable_irq();
 210:Generated_Source\PSoC5/ErikaOS_cortex_mx_ee_cpu.inc **** #else	/* __KEIL__ */
 211:Generated_Source\PSoC5/ErikaOS_cortex_mx_ee_cpu.inc **** 	__ASM volatile("cpsid i");
 212:Generated_Source\PSoC5/ErikaOS_cortex_mx_ee_cpu.inc **** #endif	/* !__KEIL__ */
 213:Generated_Source\PSoC5/ErikaOS_cortex_mx_ee_cpu.inc **** #endif	/* !__CCS__ */
 214:Generated_Source\PSoC5/ErikaOS_cortex_mx_ee_cpu.inc **** #endif	/* !__IAR__ */
 215:Generated_Source\PSoC5/ErikaOS_cortex_mx_ee_cpu.inc **** }
 216:Generated_Source\PSoC5/ErikaOS_cortex_mx_ee_cpu.inc **** 
 217:Generated_Source\PSoC5/ErikaOS_cortex_mx_ee_cpu.inc **** /**
 218:Generated_Source\PSoC5/ErikaOS_cortex_mx_ee_cpu.inc ****  * Resume interrupts
 219:Generated_Source\PSoC5/ErikaOS_cortex_mx_ee_cpu.inc ****  */
 220:Generated_Source\PSoC5/ErikaOS_cortex_mx_ee_cpu.inc **** __INLINE__ void  EE_cortex_mx_resumeIRQ(EE_FREG f)
 221:Generated_Source\PSoC5/ErikaOS_cortex_mx_ee_cpu.inc **** {
 222:Generated_Source\PSoC5/ErikaOS_cortex_mx_ee_cpu.inc **** #ifdef __IAR__
 223:Generated_Source\PSoC5/ErikaOS_cortex_mx_ee_cpu.inc **** 	__set_PRIMASK(f);
 224:Generated_Source\PSoC5/ErikaOS_cortex_mx_ee_cpu.inc **** #else	/* __IAR__ */
 225:Generated_Source\PSoC5/ErikaOS_cortex_mx_ee_cpu.inc **** #ifdef __CCS__
 226:Generated_Source\PSoC5/ErikaOS_cortex_mx_ee_cpu.inc **** 	__ASM ("    msr    primask, r0\n");
 227:Generated_Source\PSoC5/ErikaOS_cortex_mx_ee_cpu.inc **** #else	/* __CCS__ */
 228:Generated_Source\PSoC5/ErikaOS_cortex_mx_ee_cpu.inc **** #ifdef __KEIL__
 229:Generated_Source\PSoC5/ErikaOS_cortex_mx_ee_cpu.inc **** 	register EE_FREG PRIMASK __ASM("primask");
 230:Generated_Source\PSoC5/ErikaOS_cortex_mx_ee_cpu.inc **** 	PRIMASK = f;
 231:Generated_Source\PSoC5/ErikaOS_cortex_mx_ee_cpu.inc **** #else	/* __KEIL__ */
 232:Generated_Source\PSoC5/ErikaOS_cortex_mx_ee_cpu.inc **** 	__ASM volatile("msr primask, %0" :: "r" (f));
 233:Generated_Source\PSoC5/ErikaOS_cortex_mx_ee_cpu.inc **** #endif	/* !__KEIL__ */
ARM GAS  C:\Users\rbhar\AppData\Local\Temp\ccK3IQqW.s 			page 7


 234:Generated_Source\PSoC5/ErikaOS_cortex_mx_ee_cpu.inc **** #endif	/* !__CCS__ */
 235:Generated_Source\PSoC5/ErikaOS_cortex_mx_ee_cpu.inc **** #endif	/* !__IAR__ */
 236:Generated_Source\PSoC5/ErikaOS_cortex_mx_ee_cpu.inc **** }
 237:Generated_Source\PSoC5/ErikaOS_cortex_mx_ee_cpu.inc **** 
 238:Generated_Source\PSoC5/ErikaOS_cortex_mx_ee_cpu.inc **** /**
 239:Generated_Source\PSoC5/ErikaOS_cortex_mx_ee_cpu.inc ****  * Suspend interrupts
 240:Generated_Source\PSoC5/ErikaOS_cortex_mx_ee_cpu.inc ****  */
 241:Generated_Source\PSoC5/ErikaOS_cortex_mx_ee_cpu.inc **** __INLINE__ EE_FREG  EE_cortex_mx_suspendIRQ(void)
 242:Generated_Source\PSoC5/ErikaOS_cortex_mx_ee_cpu.inc **** {
 243:Generated_Source\PSoC5/ErikaOS_cortex_mx_ee_cpu.inc **** #ifndef __CCS__
 244:Generated_Source\PSoC5/ErikaOS_cortex_mx_ee_cpu.inc **** 	EE_FREG istat;
 245:Generated_Source\PSoC5/ErikaOS_cortex_mx_ee_cpu.inc **** #endif
 246:Generated_Source\PSoC5/ErikaOS_cortex_mx_ee_cpu.inc **** #ifdef __IAR__
 247:Generated_Source\PSoC5/ErikaOS_cortex_mx_ee_cpu.inc **** 	 istat = __get_PRIMASK();
 248:Generated_Source\PSoC5/ErikaOS_cortex_mx_ee_cpu.inc **** 	__ASM ("cpsid i");
 249:Generated_Source\PSoC5/ErikaOS_cortex_mx_ee_cpu.inc **** #else	/* __IAR__ */
 250:Generated_Source\PSoC5/ErikaOS_cortex_mx_ee_cpu.inc **** #ifdef __CCS__
 251:Generated_Source\PSoC5/ErikaOS_cortex_mx_ee_cpu.inc **** 	__ASM ("    mrs     r0, primask\n"
 252:Generated_Source\PSoC5/ErikaOS_cortex_mx_ee_cpu.inc **** 	       "    cpsid   i\n"
 253:Generated_Source\PSoC5/ErikaOS_cortex_mx_ee_cpu.inc **** 	       "    bx      lr\n");
 254:Generated_Source\PSoC5/ErikaOS_cortex_mx_ee_cpu.inc **** #else	/* __CCS__ */
 255:Generated_Source\PSoC5/ErikaOS_cortex_mx_ee_cpu.inc **** #ifdef __KEIL__
 256:Generated_Source\PSoC5/ErikaOS_cortex_mx_ee_cpu.inc **** 	register EE_FREG PRIMASK __ASM("primask");
 257:Generated_Source\PSoC5/ErikaOS_cortex_mx_ee_cpu.inc **** 	istat = PRIMASK;
 258:Generated_Source\PSoC5/ErikaOS_cortex_mx_ee_cpu.inc **** 	__disable_irq();
 259:Generated_Source\PSoC5/ErikaOS_cortex_mx_ee_cpu.inc **** #else	/* __KEIL__ */
 260:Generated_Source\PSoC5/ErikaOS_cortex_mx_ee_cpu.inc **** 	__ASM volatile ("mrs %0, primask" : "=r" (istat) );
  43              		.loc 2 260 0
  44              		.syntax unified
  45              	@ 260 "Generated_Source\PSoC5\ErikaOS_cortex_mx_ee_cpu.inc" 1
  46 0002 EFF31085 		mrs r5, primask
  47              	@ 0 "" 2
  48              	.LVL1:
 261:Generated_Source\PSoC5/ErikaOS_cortex_mx_ee_cpu.inc **** 	__ASM volatile ("cpsid i");
  49              		.loc 2 261 0
  50              	@ 261 "Generated_Source\PSoC5\ErikaOS_cortex_mx_ee_cpu.inc" 1
  51 0006 72B6     		cpsid i
  52              	@ 0 "" 2
  53              	.LVL2:
  54              		.thumb
  55              		.syntax unified
  56              	.LBE72:
  57              	.LBE71:
  58              	.LBE70:
  68:Generated_Source\PSoC5/ErikaOS_ee_activate.c ****   /* Error Value */
  69:Generated_Source\PSoC5/ErikaOS_ee_activate.c ****   register StatusType ev;
  70:Generated_Source\PSoC5/ErikaOS_ee_activate.c ****   /* Primitive Lock Procedure */
  71:Generated_Source\PSoC5/ErikaOS_ee_activate.c ****   EE_OS_DECLARE_AND_ENTER_CRITICAL_SECTION();
  72:Generated_Source\PSoC5/ErikaOS_ee_activate.c **** 
  73:Generated_Source\PSoC5/ErikaOS_ee_activate.c ****   EE_ORTI_set_service_in(EE_SERVICETRACE_ACTIVATETASK);
  74:Generated_Source\PSoC5/ErikaOS_ee_activate.c **** 
  75:Generated_Source\PSoC5/ErikaOS_ee_activate.c ****   EE_as_monitoring_the_stack();
  76:Generated_Source\PSoC5/ErikaOS_ee_activate.c **** 
  77:Generated_Source\PSoC5/ErikaOS_ee_activate.c **** #ifdef EE_SERVICE_PROTECTION__
  78:Generated_Source\PSoC5/ErikaOS_ee_activate.c ****   /* [OS093]: If interrupts are disabled/suspended by a Task/OsIsr and the
  79:Generated_Source\PSoC5/ErikaOS_ee_activate.c ****       Task/OsIsr calls any OS service (excluding the interrupt services)
  80:Generated_Source\PSoC5/ErikaOS_ee_activate.c ****       then the Operating System shall ignore the service AND shall return
ARM GAS  C:\Users\rbhar\AppData\Local\Temp\ccK3IQqW.s 			page 8


  81:Generated_Source\PSoC5/ErikaOS_ee_activate.c ****       E_OS_DISABLEDINT if the service returns a StatusType value. */
  82:Generated_Source\PSoC5/ErikaOS_ee_activate.c ****   /* [OS088]: If an OS-Application makes a service call from the wrong context
  83:Generated_Source\PSoC5/ErikaOS_ee_activate.c ****       AND is currently not inside a Category 1 ISR the Operating System module
  84:Generated_Source\PSoC5/ErikaOS_ee_activate.c ****       shall not perform the requested action (the service call shall have no
  85:Generated_Source\PSoC5/ErikaOS_ee_activate.c ****       effect), and return E_OS_CALLEVEL (see [12], section 13.1) or the
  86:Generated_Source\PSoC5/ErikaOS_ee_activate.c ****       "invalid value" of  the service. (BSW11009, BSW11013) */
  87:Generated_Source\PSoC5/ErikaOS_ee_activate.c ****   /* ActivateTask is callable by Task and ISR2 */
  88:Generated_Source\PSoC5/ErikaOS_ee_activate.c ****   if ( EE_as_execution_context > ISR2_Context ) {
  89:Generated_Source\PSoC5/ErikaOS_ee_activate.c ****     ev = E_OS_CALLEVEL;
  90:Generated_Source\PSoC5/ErikaOS_ee_activate.c ****   } else if ( EE_oo_check_disableint_error() ) {
  91:Generated_Source\PSoC5/ErikaOS_ee_activate.c ****     ev = E_OS_DISABLEDINT;
  92:Generated_Source\PSoC5/ErikaOS_ee_activate.c ****   } else
  93:Generated_Source\PSoC5/ErikaOS_ee_activate.c **** #endif /* EE_SERVICE_PROTECTION__ */
  94:Generated_Source\PSoC5/ErikaOS_ee_activate.c **** 
  95:Generated_Source\PSoC5/ErikaOS_ee_activate.c **** #if (defined(__RN_TASK__)) || (defined(EE_AS_RPC__))
  96:Generated_Source\PSoC5/ErikaOS_ee_activate.c ****   if ( EE_IS_TID_REMOTE(TaskID) ) {
  97:Generated_Source\PSoC5/ErikaOS_ee_activate.c **** #ifdef EE_AS_RPC__
  98:Generated_Source\PSoC5/ErikaOS_ee_activate.c ****     /* Tmp Tid (introduced to meet MISRA requirements) */
  99:Generated_Source\PSoC5/ErikaOS_ee_activate.c ****     EE_TID tmp_tid;
 100:Generated_Source\PSoC5/ErikaOS_ee_activate.c **** 
 101:Generated_Source\PSoC5/ErikaOS_ee_activate.c ****     EE_os_param unmarked_tid;
 102:Generated_Source\PSoC5/ErikaOS_ee_activate.c ****     /* Two steps macro assignment to meet MISRA 10.3 required rule */
 103:Generated_Source\PSoC5/ErikaOS_ee_activate.c ****     tmp_tid = EE_UNMARK_REMOTE_TID(TaskID);
 104:Generated_Source\PSoC5/ErikaOS_ee_activate.c ****     unmarked_tid.value_param = (EE_UREG)tmp_tid;
 105:Generated_Source\PSoC5/ErikaOS_ee_activate.c ****     /* Forward the request to another CPU in synchronous way */
 106:Generated_Source\PSoC5/ErikaOS_ee_activate.c ****     ev = EE_as_rpc( OSServiceId_ActivateTask, unmarked_tid,
 107:Generated_Source\PSoC5/ErikaOS_ee_activate.c ****       EE_OS_INVALID_PARAM, EE_OS_INVALID_PARAM );
 108:Generated_Source\PSoC5/ErikaOS_ee_activate.c **** #else /* EE_AS_RPC__ */
 109:Generated_Source\PSoC5/ErikaOS_ee_activate.c ****     EE_TYPERN_PARAM par;
 110:Generated_Source\PSoC5/ErikaOS_ee_activate.c ****     par.pending = 1U;
 111:Generated_Source\PSoC5/ErikaOS_ee_activate.c ****     /* Forward the request to another CPU in asynchronous way */
 112:Generated_Source\PSoC5/ErikaOS_ee_activate.c ****     (void)EE_rn_send(EE_UNMARK_REMOTE_TID(TaskID), EE_RN_TASK, par);
 113:Generated_Source\PSoC5/ErikaOS_ee_activate.c ****     ev = E_OK;
 114:Generated_Source\PSoC5/ErikaOS_ee_activate.c **** #endif /* EE_AS_RPC__ */
 115:Generated_Source\PSoC5/ErikaOS_ee_activate.c ****   } else {
 116:Generated_Source\PSoC5/ErikaOS_ee_activate.c **** #endif /* __RN_TASK__ || EE_AS_RPC__ */
 117:Generated_Source\PSoC5/ErikaOS_ee_activate.c **** 
 118:Generated_Source\PSoC5/ErikaOS_ee_activate.c **** #if (defined(EE_AS_OSAPPLICATIONS__)) && (defined(EE_SERVICE_PROTECTION__))
 119:Generated_Source\PSoC5/ErikaOS_ee_activate.c ****     /* Check if the task Id is valid */
 120:Generated_Source\PSoC5/ErikaOS_ee_activate.c ****     if ( (TaskID < 0) || (TaskID >= EE_MAX_TASK) ) {
 121:Generated_Source\PSoC5/ErikaOS_ee_activate.c ****       ev = E_OS_ID;
 122:Generated_Source\PSoC5/ErikaOS_ee_activate.c ****     } else if ( EE_TASK_ACCESS_ERR(TaskID, EE_as_active_app) ) {
 123:Generated_Source\PSoC5/ErikaOS_ee_activate.c ****       ev = E_OS_ACCESS;
 124:Generated_Source\PSoC5/ErikaOS_ee_activate.c ****     } else
 125:Generated_Source\PSoC5/ErikaOS_ee_activate.c **** #elif defined(__OO_EXTENDED_STATUS__)
 126:Generated_Source\PSoC5/ErikaOS_ee_activate.c ****     /* Check if the task Id is valid */
 127:Generated_Source\PSoC5/ErikaOS_ee_activate.c ****     if ( (TaskID < 0) || (TaskID >= EE_MAX_TASK) ) {
  59              		.loc 1 127 0
  60 0008 0028     		cmp	r0, #0
  61 000a 4ED1     		bne	.L6
 128:Generated_Source\PSoC5/ErikaOS_ee_activate.c ****       ev = E_OS_ID;
 129:Generated_Source\PSoC5/ErikaOS_ee_activate.c ****     } else
 130:Generated_Source\PSoC5/ErikaOS_ee_activate.c **** #endif /* EE_AS_OSAPPLICATIONS__ || E_SERVICE_PROTECTION__ ||
 131:Generated_Source\PSoC5/ErikaOS_ee_activate.c **** __OO_EXTENDED_STATUS__ */
 132:Generated_Source\PSoC5/ErikaOS_ee_activate.c ****     /* Check for pending activations */
 133:Generated_Source\PSoC5/ErikaOS_ee_activate.c ****     if ( EE_th_rnact[TaskID] == 0U ) {
  62              		.loc 1 133 0
ARM GAS  C:\Users\rbhar\AppData\Local\Temp\ccK3IQqW.s 			page 9


  63 000c 2D4B     		ldr	r3, .L12
  64 000e 53F82030 		ldr	r3, [r3, r0, lsl #2]
  65 0012 002B     		cmp	r3, #0
  66 0014 4BD0     		beq	.L7
  67              	.LVL3:
  68              	.LBB73:
  69              	.LBB74:
  70              		.file 3 "Generated_Source\\PSoC5\\ErikaOS_ee_oo_internal.inc"
   1:Generated_Source\PSoC5/ErikaOS_ee_oo_internal.inc **** /* ###*B*###
   2:Generated_Source\PSoC5/ErikaOS_ee_oo_internal.inc ****  * ERIKA Enterprise - a tiny RTOS for small microcontrollers
   3:Generated_Source\PSoC5/ErikaOS_ee_oo_internal.inc ****  *
   4:Generated_Source\PSoC5/ErikaOS_ee_oo_internal.inc ****  * Copyright (C) 2002-2008  Evidence Srl
   5:Generated_Source\PSoC5/ErikaOS_ee_oo_internal.inc ****  *
   6:Generated_Source\PSoC5/ErikaOS_ee_oo_internal.inc ****  * This file is part of ERIKA Enterprise.
   7:Generated_Source\PSoC5/ErikaOS_ee_oo_internal.inc ****  *
   8:Generated_Source\PSoC5/ErikaOS_ee_oo_internal.inc ****  * ERIKA Enterprise is free software; you can redistribute it
   9:Generated_Source\PSoC5/ErikaOS_ee_oo_internal.inc ****  * and/or modify it under the terms of the GNU General Public License
  10:Generated_Source\PSoC5/ErikaOS_ee_oo_internal.inc ****  * version 2 as published by the Free Software Foundation, 
  11:Generated_Source\PSoC5/ErikaOS_ee_oo_internal.inc ****  * (with a special exception described below).
  12:Generated_Source\PSoC5/ErikaOS_ee_oo_internal.inc ****  *
  13:Generated_Source\PSoC5/ErikaOS_ee_oo_internal.inc ****  * Linking this code statically or dynamically with other modules is
  14:Generated_Source\PSoC5/ErikaOS_ee_oo_internal.inc ****  * making a combined work based on this code.  Thus, the terms and
  15:Generated_Source\PSoC5/ErikaOS_ee_oo_internal.inc ****  * conditions of the GNU General Public License cover the whole
  16:Generated_Source\PSoC5/ErikaOS_ee_oo_internal.inc ****  * combination.
  17:Generated_Source\PSoC5/ErikaOS_ee_oo_internal.inc ****  *
  18:Generated_Source\PSoC5/ErikaOS_ee_oo_internal.inc ****  * As a special exception, the copyright holders of this library give you
  19:Generated_Source\PSoC5/ErikaOS_ee_oo_internal.inc ****  * permission to link this code with independent modules to produce an
  20:Generated_Source\PSoC5/ErikaOS_ee_oo_internal.inc ****  * executable, regardless of the license terms of these independent
  21:Generated_Source\PSoC5/ErikaOS_ee_oo_internal.inc ****  * modules, and to copy and distribute the resulting executable under
  22:Generated_Source\PSoC5/ErikaOS_ee_oo_internal.inc ****  * terms of your choice, provided that you also meet, for each linked
  23:Generated_Source\PSoC5/ErikaOS_ee_oo_internal.inc ****  * independent module, the terms and conditions of the license of that
  24:Generated_Source\PSoC5/ErikaOS_ee_oo_internal.inc ****  * module.  An independent module is a module which is not derived from
  25:Generated_Source\PSoC5/ErikaOS_ee_oo_internal.inc ****  * or based on this library.  If you modify this code, you may extend
  26:Generated_Source\PSoC5/ErikaOS_ee_oo_internal.inc ****  * this exception to your version of the code, but you are not
  27:Generated_Source\PSoC5/ErikaOS_ee_oo_internal.inc ****  * obligated to do so.  If you do not wish to do so, delete this
  28:Generated_Source\PSoC5/ErikaOS_ee_oo_internal.inc ****  * exception statement from your version.
  29:Generated_Source\PSoC5/ErikaOS_ee_oo_internal.inc ****  *
  30:Generated_Source\PSoC5/ErikaOS_ee_oo_internal.inc ****  * ERIKA Enterprise is distributed in the hope that it will be
  31:Generated_Source\PSoC5/ErikaOS_ee_oo_internal.inc ****  * useful, but WITHOUT ANY WARRANTY; without even the implied warranty
  32:Generated_Source\PSoC5/ErikaOS_ee_oo_internal.inc ****  * of MERCHANTABILITY or FITNESS FOR A PARTICULAR PURPOSE.  See the
  33:Generated_Source\PSoC5/ErikaOS_ee_oo_internal.inc ****  * GNU General Public License version 2 for more details.
  34:Generated_Source\PSoC5/ErikaOS_ee_oo_internal.inc ****  *
  35:Generated_Source\PSoC5/ErikaOS_ee_oo_internal.inc ****  * You should have received a copy of the GNU General Public License
  36:Generated_Source\PSoC5/ErikaOS_ee_oo_internal.inc ****  * version 2 along with ERIKA Enterprise; if not, write to the
  37:Generated_Source\PSoC5/ErikaOS_ee_oo_internal.inc ****  * Free Software Foundation, Inc., 51 Franklin Street, Fifth Floor,
  38:Generated_Source\PSoC5/ErikaOS_ee_oo_internal.inc ****  * Boston, MA 02110-1301 USA.
  39:Generated_Source\PSoC5/ErikaOS_ee_oo_internal.inc ****  * ###*E*### */
  40:Generated_Source\PSoC5/ErikaOS_ee_oo_internal.inc **** 
  41:Generated_Source\PSoC5/ErikaOS_ee_oo_internal.inc **** /*
  42:Generated_Source\PSoC5/ErikaOS_ee_oo_internal.inc ****  * Author: 2002 Paolo Gai
  43:Generated_Source\PSoC5/ErikaOS_ee_oo_internal.inc ****  * CVS: $Id: ee_internal.h,v 1.6 2006/12/03 22:07:50 pj Exp $
  44:Generated_Source\PSoC5/ErikaOS_ee_oo_internal.inc ****  */
  45:Generated_Source\PSoC5/ErikaOS_ee_oo_internal.inc **** 
  46:Generated_Source\PSoC5/ErikaOS_ee_oo_internal.inc **** /*
  47:Generated_Source\PSoC5/ErikaOS_ee_oo_internal.inc ****  * PSoC Port and API Generation
  48:Generated_Source\PSoC5/ErikaOS_ee_oo_internal.inc ****  * Carlos Fernando Meier Martinez
  49:Generated_Source\PSoC5/ErikaOS_ee_oo_internal.inc ****  * Hochschule Darmstadt, Germany. 2017.
ARM GAS  C:\Users\rbhar\AppData\Local\Temp\ccK3IQqW.s 			page 10


  50:Generated_Source\PSoC5/ErikaOS_ee_oo_internal.inc ****  */
  51:Generated_Source\PSoC5/ErikaOS_ee_oo_internal.inc **** 
  52:Generated_Source\PSoC5/ErikaOS_ee_oo_internal.inc **** #ifndef PKG_KERNEL_OO_INC_EE_OO_INTERNAL_H
  53:Generated_Source\PSoC5/ErikaOS_ee_oo_internal.inc **** #define PKG_KERNEL_OO_INC_EE_OO_INTERNAL_H
  54:Generated_Source\PSoC5/ErikaOS_ee_oo_internal.inc **** 
  55:Generated_Source\PSoC5/ErikaOS_ee_oo_internal.inc **** #include "ErikaOS_ee_oo_common.inc"
  56:Generated_Source\PSoC5/ErikaOS_ee_oo_internal.inc **** #include "ErikaOS_ee_oo_intfunc.inc"
  57:Generated_Source\PSoC5/ErikaOS_ee_oo_internal.inc **** #include "ErikaOS_ee_oo_irq.inc"
  58:Generated_Source\PSoC5/ErikaOS_ee_oo_internal.inc **** 
  59:Generated_Source\PSoC5/ErikaOS_ee_oo_internal.inc **** /*******************************************************************************
  60:Generated_Source\PSoC5/ErikaOS_ee_oo_internal.inc ****  *                    New Error Handling Internal Utilities
  61:Generated_Source\PSoC5/ErikaOS_ee_oo_internal.inc ****  ******************************************************************************/
  62:Generated_Source\PSoC5/ErikaOS_ee_oo_internal.inc **** 
  63:Generated_Source\PSoC5/ErikaOS_ee_oo_internal.inc **** /* Error Parameters Utilities Macros */
  64:Generated_Source\PSoC5/ErikaOS_ee_oo_internal.inc **** #define EE_OS_PARAM(param_name)   EE_os_param param_name
  65:Generated_Source\PSoC5/ErikaOS_ee_oo_internal.inc **** #define EE_OS_PARAM_VALUE(param_name, param_value)  \
  66:Generated_Source\PSoC5/ErikaOS_ee_oo_internal.inc ****   ((param_name).value_param = (param_value))
  67:Generated_Source\PSoC5/ErikaOS_ee_oo_internal.inc **** 
  68:Generated_Source\PSoC5/ErikaOS_ee_oo_internal.inc **** #define EE_OS_PARAM_REF(param_name, param_field, param_ref) \
  69:Generated_Source\PSoC5/ErikaOS_ee_oo_internal.inc ****   ((param_name).param_field = (param_ref))
  70:Generated_Source\PSoC5/ErikaOS_ee_oo_internal.inc **** 
  71:Generated_Source\PSoC5/ErikaOS_ee_oo_internal.inc **** #ifdef __OO_HAS_ERRORHOOK__
  72:Generated_Source\PSoC5/ErikaOS_ee_oo_internal.inc **** /* Error Parameters Data Structure Utilities Macros from user space */
  73:Generated_Source\PSoC5/ErikaOS_ee_oo_internal.inc **** #define EE_OS_ERROR_PARAMETERS()  EE_oo_ErrorHook_parameters error_parameters
  74:Generated_Source\PSoC5/ErikaOS_ee_oo_internal.inc **** 
  75:Generated_Source\PSoC5/ErikaOS_ee_oo_internal.inc **** #define EE_OS_ERROR_PARAMETERS_INIT(param1_in,param2_in,param3_in)  \
  76:Generated_Source\PSoC5/ErikaOS_ee_oo_internal.inc ****   EE_oo_ErrorHook_parameters error_parameters = { param1_in, param2_in, \
  77:Generated_Source\PSoC5/ErikaOS_ee_oo_internal.inc ****     param3_in }
  78:Generated_Source\PSoC5/ErikaOS_ee_oo_internal.inc **** 
  79:Generated_Source\PSoC5/ErikaOS_ee_oo_internal.inc **** #define EE_OS_ERROR_PARAMETERS_PARAM1_VALUE(param1_value) \
  80:Generated_Source\PSoC5/ErikaOS_ee_oo_internal.inc ****   (error_parameters.param1.value_param = param1_value)
  81:Generated_Source\PSoC5/ErikaOS_ee_oo_internal.inc **** #define EE_OS_ERROR_PARAMETERS_PARAM2_VALUE(param2_value) \
  82:Generated_Source\PSoC5/ErikaOS_ee_oo_internal.inc ****   (error_parameters.param2.value_param = param2_value)
  83:Generated_Source\PSoC5/ErikaOS_ee_oo_internal.inc **** #define EE_OS_ERROR_PARAMETERS_PARAM3_VALUE(param3_value) \
  84:Generated_Source\PSoC5/ErikaOS_ee_oo_internal.inc ****   (error_parameters.param3.value_param = param3_value)
  85:Generated_Source\PSoC5/ErikaOS_ee_oo_internal.inc **** 
  86:Generated_Source\PSoC5/ErikaOS_ee_oo_internal.inc **** #define EE_OS_ERROR_PARAMETERS_PARAM1_REF(param_field,param_ref)  \
  87:Generated_Source\PSoC5/ErikaOS_ee_oo_internal.inc ****   (error_parameters.param1.param_field = (param_ref))
  88:Generated_Source\PSoC5/ErikaOS_ee_oo_internal.inc **** #define EE_OS_ERROR_PARAMETERS_PARAM2_REF(param_field,param_ref)  \
  89:Generated_Source\PSoC5/ErikaOS_ee_oo_internal.inc ****   (error_parameters.param2.param_field = (param_ref))
  90:Generated_Source\PSoC5/ErikaOS_ee_oo_internal.inc **** #define EE_OS_ERROR_PARAMETERS_PARAM3_REF(param_field,param_ref)  \
  91:Generated_Source\PSoC5/ErikaOS_ee_oo_internal.inc ****   (error_parameters.param3.param_field = (param_ref))
  92:Generated_Source\PSoC5/ErikaOS_ee_oo_internal.inc **** #else /* __OO_HAS_ERRORHOOK__ */
  93:Generated_Source\PSoC5/ErikaOS_ee_oo_internal.inc **** #define EE_OS_ERROR_PARAMETERS()                                    ((void)0)
  94:Generated_Source\PSoC5/ErikaOS_ee_oo_internal.inc **** 
  95:Generated_Source\PSoC5/ErikaOS_ee_oo_internal.inc **** #define EE_OS_ERROR_PARAMETERS_INIT(param1_in,param2_in,param3_in)  ((void)0)
  96:Generated_Source\PSoC5/ErikaOS_ee_oo_internal.inc **** 
  97:Generated_Source\PSoC5/ErikaOS_ee_oo_internal.inc **** #define EE_OS_ERROR_PARAMETERS_PARAM1_VALUE(param1_value)           ((void)0)
  98:Generated_Source\PSoC5/ErikaOS_ee_oo_internal.inc **** #define EE_OS_ERROR_PARAMETERS_PARAM2_VALUE(param2_value)           ((void)0)
  99:Generated_Source\PSoC5/ErikaOS_ee_oo_internal.inc **** #define EE_OS_ERROR_PARAMETERS_PARAM3_VALUE(param3_value)           ((void)0)
 100:Generated_Source\PSoC5/ErikaOS_ee_oo_internal.inc **** 
 101:Generated_Source\PSoC5/ErikaOS_ee_oo_internal.inc **** #define EE_OS_ERROR_PARAMETERS_PARAM1_REF(param_field,param_ref)    ((void)0)
 102:Generated_Source\PSoC5/ErikaOS_ee_oo_internal.inc **** #define EE_OS_ERROR_PARAMETERS_PARAM2_REF(param_field,param_ref)    ((void)0)
 103:Generated_Source\PSoC5/ErikaOS_ee_oo_internal.inc **** #define EE_OS_ERROR_PARAMETERS_PARAM3_REF(param_field,param_ref)    ((void)0)
 104:Generated_Source\PSoC5/ErikaOS_ee_oo_internal.inc **** #endif /* __OO_HAS_ERRORHOOK__ */
 105:Generated_Source\PSoC5/ErikaOS_ee_oo_internal.inc **** 
 106:Generated_Source\PSoC5/ErikaOS_ee_oo_internal.inc **** /* Error Handling */
ARM GAS  C:\Users\rbhar\AppData\Local\Temp\ccK3IQqW.s 			page 11


 107:Generated_Source\PSoC5/ErikaOS_ee_oo_internal.inc **** #ifdef __OO_HAS_ERRORHOOK__
 108:Generated_Source\PSoC5/ErikaOS_ee_oo_internal.inc **** #ifndef  __OO_ERRORHOOK_NOMACROS__
 109:Generated_Source\PSoC5/ErikaOS_ee_oo_internal.inc **** 
 110:Generated_Source\PSoC5/ErikaOS_ee_oo_internal.inc **** __INLINE__ void  EE_os_fill_error_data( OSServiceIdType
 111:Generated_Source\PSoC5/ErikaOS_ee_oo_internal.inc ****   ServiceID, EE_os_param param1, EE_os_param param2, EE_os_param param3 )
 112:Generated_Source\PSoC5/ErikaOS_ee_oo_internal.inc **** {
 113:Generated_Source\PSoC5/ErikaOS_ee_oo_internal.inc ****   register EE_oo_ErrorHook_parameters * const
 114:Generated_Source\PSoC5/ErikaOS_ee_oo_internal.inc ****     p_errorhook_parameter = EE_oo_get_errorhook_data();
 115:Generated_Source\PSoC5/ErikaOS_ee_oo_internal.inc ****   (*EE_oo_get_errorhook_service_id()) = ServiceID;
 116:Generated_Source\PSoC5/ErikaOS_ee_oo_internal.inc ****   p_errorhook_parameter->param1 = param1;
 117:Generated_Source\PSoC5/ErikaOS_ee_oo_internal.inc ****   p_errorhook_parameter->param2 = param2;
 118:Generated_Source\PSoC5/ErikaOS_ee_oo_internal.inc ****   p_errorhook_parameter->param3 = param3;
 119:Generated_Source\PSoC5/ErikaOS_ee_oo_internal.inc **** }
 120:Generated_Source\PSoC5/ErikaOS_ee_oo_internal.inc **** #else /* !__OO_ERRORHOOK_NOMACROS__ */
 121:Generated_Source\PSoC5/ErikaOS_ee_oo_internal.inc **** 
 122:Generated_Source\PSoC5/ErikaOS_ee_oo_internal.inc **** #define EE_os_fill_error_data(ServiceID,param1,param2,param3) ((void)0)
 123:Generated_Source\PSoC5/ErikaOS_ee_oo_internal.inc **** #endif /* !__OO_ERRORHOOK_NOMACROS__ */
 124:Generated_Source\PSoC5/ErikaOS_ee_oo_internal.inc **** 
 125:Generated_Source\PSoC5/ErikaOS_ee_oo_internal.inc **** __INLINE__ void  EE_os_notify_error( OSServiceIdType ServiceID,
 126:Generated_Source\PSoC5/ErikaOS_ee_oo_internal.inc ****   EE_os_param param1, EE_os_param param2, EE_os_param param3,
 127:Generated_Source\PSoC5/ErikaOS_ee_oo_internal.inc ****   StatusType Error )
 128:Generated_Source\PSoC5/ErikaOS_ee_oo_internal.inc **** {
 129:Generated_Source\PSoC5/ErikaOS_ee_oo_internal.inc ****   EE_ORTI_set_lasterror(Error);
 130:Generated_Source\PSoC5/ErikaOS_ee_oo_internal.inc ****   if ( EE_ErrorHook_nested_flag == 0U )
 131:Generated_Source\PSoC5/ErikaOS_ee_oo_internal.inc ****   {
 132:Generated_Source\PSoC5/ErikaOS_ee_oo_internal.inc ****     EE_os_fill_error_data(ServiceID, param1, param2, param3);
 133:Generated_Source\PSoC5/ErikaOS_ee_oo_internal.inc ****     EE_ErrorHook_nested_flag = 1U;
 134:Generated_Source\PSoC5/ErikaOS_ee_oo_internal.inc ****     EE_oo_call_ErrorHook(Error);
 135:Generated_Source\PSoC5/ErikaOS_ee_oo_internal.inc ****     EE_ErrorHook_nested_flag = 0U;
 136:Generated_Source\PSoC5/ErikaOS_ee_oo_internal.inc ****   }
 137:Generated_Source\PSoC5/ErikaOS_ee_oo_internal.inc **** }
 138:Generated_Source\PSoC5/ErikaOS_ee_oo_internal.inc **** 
 139:Generated_Source\PSoC5/ErikaOS_ee_oo_internal.inc **** #ifndef __EE_MEMORY_PROTECTION__
 140:Generated_Source\PSoC5/ErikaOS_ee_oo_internal.inc **** __INLINE__ void  EE_os_notify_error_from_us(
 141:Generated_Source\PSoC5/ErikaOS_ee_oo_internal.inc ****   OSServiceIdType ServiceID, const EE_oo_ErrorHook_parameters * const
 142:Generated_Source\PSoC5/ErikaOS_ee_oo_internal.inc ****     error_parameters_ref, StatusType Error )
 143:Generated_Source\PSoC5/ErikaOS_ee_oo_internal.inc **** {
 144:Generated_Source\PSoC5/ErikaOS_ee_oo_internal.inc ****   if ( error_parameters_ref != NULL ) {
 145:Generated_Source\PSoC5/ErikaOS_ee_oo_internal.inc ****     register EE_FREG const flag = EE_hal_begin_nested_primitive();
 146:Generated_Source\PSoC5/ErikaOS_ee_oo_internal.inc ****     EE_os_notify_error(ServiceID, error_parameters_ref->param1,
 147:Generated_Source\PSoC5/ErikaOS_ee_oo_internal.inc ****       error_parameters_ref->param2, error_parameters_ref->param3, Error);
 148:Generated_Source\PSoC5/ErikaOS_ee_oo_internal.inc ****     EE_hal_end_nested_primitive(flag);
 149:Generated_Source\PSoC5/ErikaOS_ee_oo_internal.inc ****   }
 150:Generated_Source\PSoC5/ErikaOS_ee_oo_internal.inc **** }
 151:Generated_Source\PSoC5/ErikaOS_ee_oo_internal.inc **** #else /* !__EE_MEMORY_PROTECTION__ */
 152:Generated_Source\PSoC5/ErikaOS_ee_oo_internal.inc **** /* If MemMap.h support is enabled (i.e. because memory protection): use it */
 153:Generated_Source\PSoC5/ErikaOS_ee_oo_internal.inc **** #ifdef EE_SUPPORT_MEMMAP_H
 154:Generated_Source\PSoC5/ErikaOS_ee_oo_internal.inc **** /* The following code belong to ERIKA API section ee_api_text */
 155:Generated_Source\PSoC5/ErikaOS_ee_oo_internal.inc **** #define API_START_SEC_CODE
 156:Generated_Source\PSoC5/ErikaOS_ee_oo_internal.inc **** #include "MemMap.inc"
 157:Generated_Source\PSoC5/ErikaOS_ee_oo_internal.inc **** #endif /* EE_SUPPORT_MEMMAP_H */
 158:Generated_Source\PSoC5/ErikaOS_ee_oo_internal.inc **** 
 159:Generated_Source\PSoC5/ErikaOS_ee_oo_internal.inc **** void EE_os_notify_error_from_us( OSServiceIdType ServiceID,
 160:Generated_Source\PSoC5/ErikaOS_ee_oo_internal.inc ****   const EE_oo_ErrorHook_parameters * const error_parameters_ref,
 161:Generated_Source\PSoC5/ErikaOS_ee_oo_internal.inc ****   StatusType Error );
 162:Generated_Source\PSoC5/ErikaOS_ee_oo_internal.inc **** 
 163:Generated_Source\PSoC5/ErikaOS_ee_oo_internal.inc **** #ifdef EE_SUPPORT_MEMMAP_H
ARM GAS  C:\Users\rbhar\AppData\Local\Temp\ccK3IQqW.s 			page 12


 164:Generated_Source\PSoC5/ErikaOS_ee_oo_internal.inc **** #define API_STOP_SEC_CODE
 165:Generated_Source\PSoC5/ErikaOS_ee_oo_internal.inc **** #include "MemMap.inc"
 166:Generated_Source\PSoC5/ErikaOS_ee_oo_internal.inc **** #endif /* EE_SUPPORT_MEMMAP_H */
 167:Generated_Source\PSoC5/ErikaOS_ee_oo_internal.inc **** #endif /* !__EE_MEMORY_PROTECTION__ */
 168:Generated_Source\PSoC5/ErikaOS_ee_oo_internal.inc **** #else /* __OO_HAS_ERRORHOOK__ */
 169:Generated_Source\PSoC5/ErikaOS_ee_oo_internal.inc **** 
 170:Generated_Source\PSoC5/ErikaOS_ee_oo_internal.inc **** /* Macro used for remapping to prevent compiler warnings on unused parameters */
 171:Generated_Source\PSoC5/ErikaOS_ee_oo_internal.inc **** #define EE_os_notify_error(k,j,x,y,z) EE_os_notify_error_impl(z)
 172:Generated_Source\PSoC5/ErikaOS_ee_oo_internal.inc **** 
 173:Generated_Source\PSoC5/ErikaOS_ee_oo_internal.inc **** __INLINE__ void  EE_os_notify_error_impl(StatusType Error)
 174:Generated_Source\PSoC5/ErikaOS_ee_oo_internal.inc **** {
 175:Generated_Source\PSoC5/ErikaOS_ee_oo_internal.inc ****   EE_ORTI_set_lasterror(Error);
 176:Generated_Source\PSoC5/ErikaOS_ee_oo_internal.inc **** }
 177:Generated_Source\PSoC5/ErikaOS_ee_oo_internal.inc **** 
 178:Generated_Source\PSoC5/ErikaOS_ee_oo_internal.inc **** /* Macro used for remapping to prevent compiler warnings on unused parameters */
 179:Generated_Source\PSoC5/ErikaOS_ee_oo_internal.inc **** #define EE_os_notify_error_from_us(x,y,z) EE_os_notify_error_from_us_impl(z)
 180:Generated_Source\PSoC5/ErikaOS_ee_oo_internal.inc **** 
 181:Generated_Source\PSoC5/ErikaOS_ee_oo_internal.inc **** __INLINE__ void  EE_os_notify_error_from_us_impl(
 182:Generated_Source\PSoC5/ErikaOS_ee_oo_internal.inc ****   StatusType Error )
 183:Generated_Source\PSoC5/ErikaOS_ee_oo_internal.inc **** {
 184:Generated_Source\PSoC5/ErikaOS_ee_oo_internal.inc ****   EE_ORTI_set_lasterror(Error);
 185:Generated_Source\PSoC5/ErikaOS_ee_oo_internal.inc **** }
 186:Generated_Source\PSoC5/ErikaOS_ee_oo_internal.inc **** #endif /* __OO_HAS_ERRORHOOK__ */
 187:Generated_Source\PSoC5/ErikaOS_ee_oo_internal.inc **** 
 188:Generated_Source\PSoC5/ErikaOS_ee_oo_internal.inc **** /*******************************************************************************
 189:Generated_Source\PSoC5/ErikaOS_ee_oo_internal.inc ****  *                  Kernel Critical Section Utility Macros
 190:Generated_Source\PSoC5/ErikaOS_ee_oo_internal.inc ****  ******************************************************************************/
 191:Generated_Source\PSoC5/ErikaOS_ee_oo_internal.inc **** #ifndef __EE_MEMORY_PROTECTION__
 192:Generated_Source\PSoC5/ErikaOS_ee_oo_internal.inc **** 
 193:Generated_Source\PSoC5/ErikaOS_ee_oo_internal.inc **** #define EE_OS_DECLARE_CRITICAL_SECTION()  register EE_FREG flag
 194:Generated_Source\PSoC5/ErikaOS_ee_oo_internal.inc **** 
 195:Generated_Source\PSoC5/ErikaOS_ee_oo_internal.inc **** #define EE_OS_ENTER_CRITICAL_SECTION()          \
 196:Generated_Source\PSoC5/ErikaOS_ee_oo_internal.inc ****   do {                                          \
 197:Generated_Source\PSoC5/ErikaOS_ee_oo_internal.inc ****     flag = EE_hal_begin_nested_primitive();     \
 198:Generated_Source\PSoC5/ErikaOS_ee_oo_internal.inc ****     EE_as_tp_active_pause_and_update_budgets(); \
 199:Generated_Source\PSoC5/ErikaOS_ee_oo_internal.inc ****   } while ( 0 )
 200:Generated_Source\PSoC5/ErikaOS_ee_oo_internal.inc **** 
 201:Generated_Source\PSoC5/ErikaOS_ee_oo_internal.inc **** #define EE_OS_DECLARE_AND_ENTER_CRITICAL_SECTION()  \
 202:Generated_Source\PSoC5/ErikaOS_ee_oo_internal.inc ****   EE_OS_DECLARE_CRITICAL_SECTION();                 \
 203:Generated_Source\PSoC5/ErikaOS_ee_oo_internal.inc ****   EE_OS_ENTER_CRITICAL_SECTION()
 204:Generated_Source\PSoC5/ErikaOS_ee_oo_internal.inc **** 
 205:Generated_Source\PSoC5/ErikaOS_ee_oo_internal.inc **** #define EE_OS_EXIT_CRITICAL_SECTION()             \
 206:Generated_Source\PSoC5/ErikaOS_ee_oo_internal.inc ****   do {                                            \
 207:Generated_Source\PSoC5/ErikaOS_ee_oo_internal.inc ****     EE_as_tp_active_update_budgets_and_restart(); \
 208:Generated_Source\PSoC5/ErikaOS_ee_oo_internal.inc ****     EE_hal_end_nested_primitive(flag);            \
 209:Generated_Source\PSoC5/ErikaOS_ee_oo_internal.inc ****   } while ( 0 )
 210:Generated_Source\PSoC5/ErikaOS_ee_oo_internal.inc **** 
 211:Generated_Source\PSoC5/ErikaOS_ee_oo_internal.inc **** #define EE_OS_FOREVER_CRITICAL_SECTION()          \
 212:Generated_Source\PSoC5/ErikaOS_ee_oo_internal.inc ****   do {                                            \
 213:Generated_Source\PSoC5/ErikaOS_ee_oo_internal.inc ****     EE_hal_disableIRQ();                          \
 214:Generated_Source\PSoC5/ErikaOS_ee_oo_internal.inc ****     EE_as_tp_active_pause_and_update_budgets();   \
 215:Generated_Source\PSoC5/ErikaOS_ee_oo_internal.inc ****   } while ( 0 )
 216:Generated_Source\PSoC5/ErikaOS_ee_oo_internal.inc **** 
 217:Generated_Source\PSoC5/ErikaOS_ee_oo_internal.inc **** #else /* !__EE_MEMORY_PROTECTION__ */
 218:Generated_Source\PSoC5/ErikaOS_ee_oo_internal.inc **** /* TP in any case have to be handled in Service Implementation. Syscall
 219:Generated_Source\PSoC5/ErikaOS_ee_oo_internal.inc ****    mechanism can be implement in C language and, in that case, a function call
 220:Generated_Source\PSoC5/ErikaOS_ee_oo_internal.inc ****    cannot be done in syscall handler. */
ARM GAS  C:\Users\rbhar\AppData\Local\Temp\ccK3IQqW.s 			page 13


 221:Generated_Source\PSoC5/ErikaOS_ee_oo_internal.inc **** #define EE_OS_DECLARE_CRITICAL_SECTION()            ((void)0)
 222:Generated_Source\PSoC5/ErikaOS_ee_oo_internal.inc **** #define EE_OS_ENTER_CRITICAL_SECTION()              \
 223:Generated_Source\PSoC5/ErikaOS_ee_oo_internal.inc ****   EE_as_tp_active_pause_and_update_budgets()
 224:Generated_Source\PSoC5/ErikaOS_ee_oo_internal.inc **** #define EE_OS_DECLARE_AND_ENTER_CRITICAL_SECTION()  \
 225:Generated_Source\PSoC5/ErikaOS_ee_oo_internal.inc ****   EE_as_tp_active_pause_and_update_budgets()
 226:Generated_Source\PSoC5/ErikaOS_ee_oo_internal.inc **** #define EE_OS_EXIT_CRITICAL_SECTION()               \
 227:Generated_Source\PSoC5/ErikaOS_ee_oo_internal.inc ****   EE_as_tp_active_update_budgets_and_restart()
 228:Generated_Source\PSoC5/ErikaOS_ee_oo_internal.inc **** #define EE_OS_FOREVER_CRITICAL_SECTION()			\
 229:Generated_Source\PSoC5/ErikaOS_ee_oo_internal.inc ****   EE_as_tp_active_pause_and_update_budgets()
 230:Generated_Source\PSoC5/ErikaOS_ee_oo_internal.inc **** #endif /* !__EE_MEMORY_PROTECTION__ */
 231:Generated_Source\PSoC5/ErikaOS_ee_oo_internal.inc **** 
 232:Generated_Source\PSoC5/ErikaOS_ee_oo_internal.inc **** /* return the first stacked task (the running task) without extracting it 
 233:Generated_Source\PSoC5/ErikaOS_ee_oo_internal.inc ****    we suppose that this function can be called ALSO at interrupt ENABLED!!!
 234:Generated_Source\PSoC5/ErikaOS_ee_oo_internal.inc ****    (see WaitEvent.c) */
 235:Generated_Source\PSoC5/ErikaOS_ee_oo_internal.inc **** #ifndef __PRIVATE_STK_QUERYFIRST__
 236:Generated_Source\PSoC5/ErikaOS_ee_oo_internal.inc **** __INLINE__ EE_TID  EE_stk_queryfirst(void)
 237:Generated_Source\PSoC5/ErikaOS_ee_oo_internal.inc **** {
 238:Generated_Source\PSoC5/ErikaOS_ee_oo_internal.inc ****     return EE_stkfirst;  
 239:Generated_Source\PSoC5/ErikaOS_ee_oo_internal.inc **** }
 240:Generated_Source\PSoC5/ErikaOS_ee_oo_internal.inc **** #endif /* __PRIVATE_STK_QUERYFIRST__ */
 241:Generated_Source\PSoC5/ErikaOS_ee_oo_internal.inc **** 
 242:Generated_Source\PSoC5/ErikaOS_ee_oo_internal.inc **** /* This function notifies a tick to a hardware counter.
 243:Generated_Source\PSoC5/ErikaOS_ee_oo_internal.inc ****    That is, the counter is
 244:Generated_Source\PSoC5/ErikaOS_ee_oo_internal.inc ****    incremented by 1.  It must be called into an ISR2 or into a
 245:Generated_Source\PSoC5/ErikaOS_ee_oo_internal.inc ****    task notify that the event linked to the counter occurred.
 246:Generated_Source\PSoC5/ErikaOS_ee_oo_internal.inc **** 
 247:Generated_Source\PSoC5/ErikaOS_ee_oo_internal.inc ****    The function will also implement the notification of expired alarms
 248:Generated_Source\PSoC5/ErikaOS_ee_oo_internal.inc ****    (calling an alarm callback, setting an event, or activating a
 249:Generated_Source\PSoC5/ErikaOS_ee_oo_internal.inc ****    task).
 250:Generated_Source\PSoC5/ErikaOS_ee_oo_internal.inc **** 
 251:Generated_Source\PSoC5/ErikaOS_ee_oo_internal.inc ****    The function can be considered atomic, and NO RESCHEDULING will
 252:Generated_Source\PSoC5/ErikaOS_ee_oo_internal.inc ****    take place after the execution of this function. To implement the
 253:Generated_Source\PSoC5/ErikaOS_ee_oo_internal.inc ****    rescheduling at task level, you can use the Schedule() or the
 254:Generated_Source\PSoC5/ErikaOS_ee_oo_internal.inc ****    ForceSchedule() functions just after this notification.
 255:Generated_Source\PSoC5/ErikaOS_ee_oo_internal.inc **** 
 256:Generated_Source\PSoC5/ErikaOS_ee_oo_internal.inc ****    see also internal.h
 257:Generated_Source\PSoC5/ErikaOS_ee_oo_internal.inc **** */
 258:Generated_Source\PSoC5/ErikaOS_ee_oo_internal.inc **** #if (!defined(__OO_NO_ALARMS__)) || (defined(EE_AS_SCHEDULETABLES__))
 259:Generated_Source\PSoC5/ErikaOS_ee_oo_internal.inc **** 
 260:Generated_Source\PSoC5/ErikaOS_ee_oo_internal.inc **** StatusType EE_oo_IncrementCounterHardware(CounterType CounterID);
 261:Generated_Source\PSoC5/ErikaOS_ee_oo_internal.inc **** void       EE_oo_IncrementCounterImplementation(CounterType CounterID);
 262:Generated_Source\PSoC5/ErikaOS_ee_oo_internal.inc **** 
 263:Generated_Source\PSoC5/ErikaOS_ee_oo_internal.inc **** /* kernel internal API */
 264:Generated_Source\PSoC5/ErikaOS_ee_oo_internal.inc **** #define IncrementCounterHardware EE_oo_IncrementCounterHardware
 265:Generated_Source\PSoC5/ErikaOS_ee_oo_internal.inc **** 
 266:Generated_Source\PSoC5/ErikaOS_ee_oo_internal.inc **** /* Helper function (0 as increment means next tick)*/
 267:Generated_Source\PSoC5/ErikaOS_ee_oo_internal.inc **** void EE_oo_counter_object_insert( CounterObjectType ObjectID, TickType
 268:Generated_Source\PSoC5/ErikaOS_ee_oo_internal.inc ****   increment );
 269:Generated_Source\PSoC5/ErikaOS_ee_oo_internal.inc **** 
 270:Generated_Source\PSoC5/ErikaOS_ee_oo_internal.inc **** #if defined (EE_COUNTER_OBJECTS_ROM_SIZE)
 271:Generated_Source\PSoC5/ErikaOS_ee_oo_internal.inc **** #if (EE_COUNTER_OBJECTS_ROM_SIZE > 0)
 272:Generated_Source\PSoC5/ErikaOS_ee_oo_internal.inc **** __INLINE__ void 
 273:Generated_Source\PSoC5/ErikaOS_ee_oo_internal.inc ****   EE_oo_handle_abs_counter_object_insertion( CounterObjectType ObjectID,
 274:Generated_Source\PSoC5/ErikaOS_ee_oo_internal.inc ****     TickType absstart, TickType abscycle ) 
 275:Generated_Source\PSoC5/ErikaOS_ee_oo_internal.inc **** {
 276:Generated_Source\PSoC5/ErikaOS_ee_oo_internal.inc ****   /* These are used to evaluate alarm time handling wrap around */
 277:Generated_Source\PSoC5/ErikaOS_ee_oo_internal.inc ****   register TickType           alarm_time;
ARM GAS  C:\Users\rbhar\AppData\Local\Temp\ccK3IQqW.s 			page 14


 278:Generated_Source\PSoC5/ErikaOS_ee_oo_internal.inc ****   register TickType           start_rel;
 279:Generated_Source\PSoC5/ErikaOS_ee_oo_internal.inc ****   register CounterType const  cnt = EE_oo_counter_object_ROM[ObjectID].c;
 280:Generated_Source\PSoC5/ErikaOS_ee_oo_internal.inc **** 
 281:Generated_Source\PSoC5/ErikaOS_ee_oo_internal.inc ****   /* first, use the alarm and set the cycle */
 282:Generated_Source\PSoC5/ErikaOS_ee_oo_internal.inc ****   EE_oo_counter_object_RAM[ObjectID].used = EE_TRUE;
 283:Generated_Source\PSoC5/ErikaOS_ee_oo_internal.inc ****   EE_oo_counter_object_RAM[ObjectID].cntcycle = abscycle;
 284:Generated_Source\PSoC5/ErikaOS_ee_oo_internal.inc **** 
 285:Generated_Source\PSoC5/ErikaOS_ee_oo_internal.inc ****   /* Handling wrap around for alarm time */
 286:Generated_Source\PSoC5/ErikaOS_ee_oo_internal.inc ****   start_rel = absstart - EE_counter_RAM[cnt].value;
 287:Generated_Source\PSoC5/ErikaOS_ee_oo_internal.inc **** 
 288:Generated_Source\PSoC5/ErikaOS_ee_oo_internal.inc ****   /*  When will be here start value will be already checked against counter
 289:Generated_Source\PSoC5/ErikaOS_ee_oo_internal.inc ****       max allowed value */
 290:Generated_Source\PSoC5/ErikaOS_ee_oo_internal.inc ****   if ( start_rel == 0U ) {
 291:Generated_Source\PSoC5/ErikaOS_ee_oo_internal.inc ****     /* start_rel == 0U -> the alarm should start now or next time that counter
 292:Generated_Source\PSoC5/ErikaOS_ee_oo_internal.inc ****        has this value. Has been chosen the second option */
 293:Generated_Source\PSoC5/ErikaOS_ee_oo_internal.inc ****     alarm_time = EE_counter_ROM[cnt].maxallowedvalue;
 294:Generated_Source\PSoC5/ErikaOS_ee_oo_internal.inc ****   } else if ( start_rel < EE_TYPETICK_HALF_VALUE ) {
 295:Generated_Source\PSoC5/ErikaOS_ee_oo_internal.inc ****     /* Normal behavior */
 296:Generated_Source\PSoC5/ErikaOS_ee_oo_internal.inc ****     alarm_time = start_rel - 1U;
 297:Generated_Source\PSoC5/ErikaOS_ee_oo_internal.inc ****   } else {
 298:Generated_Source\PSoC5/ErikaOS_ee_oo_internal.inc ****     /* start_rel is "negative" in this case (unsigned wrap around do the
 299:Generated_Source\PSoC5/ErikaOS_ee_oo_internal.inc ****        work) */
 300:Generated_Source\PSoC5/ErikaOS_ee_oo_internal.inc ****     alarm_time = EE_counter_ROM[cnt].maxallowedvalue + start_rel;
 301:Generated_Source\PSoC5/ErikaOS_ee_oo_internal.inc ****   }
 302:Generated_Source\PSoC5/ErikaOS_ee_oo_internal.inc **** 
 303:Generated_Source\PSoC5/ErikaOS_ee_oo_internal.inc ****   /* Set alarm with a relative amount of time (alarm_time already is a "0 as
 304:Generated_Source\PSoC5/ErikaOS_ee_oo_internal.inc ****      next tick" value)*/
 305:Generated_Source\PSoC5/ErikaOS_ee_oo_internal.inc ****   EE_oo_counter_object_insert(ObjectID, alarm_time);
 306:Generated_Source\PSoC5/ErikaOS_ee_oo_internal.inc **** }
 307:Generated_Source\PSoC5/ErikaOS_ee_oo_internal.inc **** 
 308:Generated_Source\PSoC5/ErikaOS_ee_oo_internal.inc **** __INLINE__ void 
 309:Generated_Source\PSoC5/ErikaOS_ee_oo_internal.inc ****   EE_oo_handle_rel_counter_object_insertion( CounterObjectType ObjectID,
 310:Generated_Source\PSoC5/ErikaOS_ee_oo_internal.inc ****     TickType increment, TickType relcycle )
 311:Generated_Source\PSoC5/ErikaOS_ee_oo_internal.inc **** {
 312:Generated_Source\PSoC5/ErikaOS_ee_oo_internal.inc **** 
 313:Generated_Source\PSoC5/ErikaOS_ee_oo_internal.inc ****   /* first, use the alarm and set the cycle */
 314:Generated_Source\PSoC5/ErikaOS_ee_oo_internal.inc ****   EE_oo_counter_object_RAM[ObjectID].used = EE_TRUE;
 315:Generated_Source\PSoC5/ErikaOS_ee_oo_internal.inc ****   EE_oo_counter_object_RAM[ObjectID].cntcycle = relcycle;
 316:Generated_Source\PSoC5/ErikaOS_ee_oo_internal.inc **** 
 317:Generated_Source\PSoC5/ErikaOS_ee_oo_internal.inc ****   /* then, insert the task into the delta queue with an increment equal
 318:Generated_Source\PSoC5/ErikaOS_ee_oo_internal.inc ****      (increment - 1U) increment equal to 0 means next tick */
 319:Generated_Source\PSoC5/ErikaOS_ee_oo_internal.inc ****   EE_oo_counter_object_insert(ObjectID, (increment - 1U));
 320:Generated_Source\PSoC5/ErikaOS_ee_oo_internal.inc **** }
 321:Generated_Source\PSoC5/ErikaOS_ee_oo_internal.inc **** 
 322:Generated_Source\PSoC5/ErikaOS_ee_oo_internal.inc **** /* cancellation */
 323:Generated_Source\PSoC5/ErikaOS_ee_oo_internal.inc **** __INLINE__ void  EE_oo_handle_counter_object_cancellation(
 324:Generated_Source\PSoC5/ErikaOS_ee_oo_internal.inc ****   CounterObjectType ObjectID )
 325:Generated_Source\PSoC5/ErikaOS_ee_oo_internal.inc **** {
 326:Generated_Source\PSoC5/ErikaOS_ee_oo_internal.inc ****   register CounterObjectType current, previous;
 327:Generated_Source\PSoC5/ErikaOS_ee_oo_internal.inc ****   register CounterType       ct      = EE_oo_counter_object_ROM[ObjectID].c;
 328:Generated_Source\PSoC5/ErikaOS_ee_oo_internal.inc **** 
 329:Generated_Source\PSoC5/ErikaOS_ee_oo_internal.inc ****   /* to compute the relative value in ticks, we have to follow the counter
 330:Generated_Source\PSoC5/ErikaOS_ee_oo_internal.inc ****      delay chain */
 331:Generated_Source\PSoC5/ErikaOS_ee_oo_internal.inc ****   current = EE_counter_RAM[ct].first;
 332:Generated_Source\PSoC5/ErikaOS_ee_oo_internal.inc **** 
 333:Generated_Source\PSoC5/ErikaOS_ee_oo_internal.inc ****   if ( current == ObjectID ) {
 334:Generated_Source\PSoC5/ErikaOS_ee_oo_internal.inc ****     /* the alarm is the first one in the delta queue */
ARM GAS  C:\Users\rbhar\AppData\Local\Temp\ccK3IQqW.s 			page 15


 335:Generated_Source\PSoC5/ErikaOS_ee_oo_internal.inc ****     EE_counter_RAM[ct].first = EE_oo_counter_object_RAM[ObjectID].next;
 336:Generated_Source\PSoC5/ErikaOS_ee_oo_internal.inc ****   } else {
 337:Generated_Source\PSoC5/ErikaOS_ee_oo_internal.inc ****     /* the alarm is not the first one in the delta queue */
 338:Generated_Source\PSoC5/ErikaOS_ee_oo_internal.inc ****     /* Find it */
 339:Generated_Source\PSoC5/ErikaOS_ee_oo_internal.inc ****     do {
 340:Generated_Source\PSoC5/ErikaOS_ee_oo_internal.inc ****       previous = current;
 341:Generated_Source\PSoC5/ErikaOS_ee_oo_internal.inc ****       current = EE_oo_counter_object_RAM[current].next;
 342:Generated_Source\PSoC5/ErikaOS_ee_oo_internal.inc ****     } while ( current != ObjectID );
 343:Generated_Source\PSoC5/ErikaOS_ee_oo_internal.inc ****     /* remove it from the queue */
 344:Generated_Source\PSoC5/ErikaOS_ee_oo_internal.inc ****     EE_oo_counter_object_RAM[previous].next =
 345:Generated_Source\PSoC5/ErikaOS_ee_oo_internal.inc ****       EE_oo_counter_object_RAM[ObjectID].next;
 346:Generated_Source\PSoC5/ErikaOS_ee_oo_internal.inc ****   }
 347:Generated_Source\PSoC5/ErikaOS_ee_oo_internal.inc ****   /* Adjust delta value */
 348:Generated_Source\PSoC5/ErikaOS_ee_oo_internal.inc ****   if ( EE_oo_counter_object_RAM[ObjectID].next != INVALID_COUNTER_OBJECT ) {
 349:Generated_Source\PSoC5/ErikaOS_ee_oo_internal.inc ****     EE_oo_counter_object_RAM[EE_oo_counter_object_RAM[ObjectID].next].delta +=
 350:Generated_Source\PSoC5/ErikaOS_ee_oo_internal.inc ****       EE_oo_counter_object_RAM[ObjectID].delta;
 351:Generated_Source\PSoC5/ErikaOS_ee_oo_internal.inc ****   }
 352:Generated_Source\PSoC5/ErikaOS_ee_oo_internal.inc **** 
 353:Generated_Source\PSoC5/ErikaOS_ee_oo_internal.inc ****   EE_oo_counter_object_RAM[ObjectID].used = EE_FALSE;
 354:Generated_Source\PSoC5/ErikaOS_ee_oo_internal.inc **** }
 355:Generated_Source\PSoC5/ErikaOS_ee_oo_internal.inc **** #endif /* EE_COUNTER_OBJECTS_ROM_SIZE */
 356:Generated_Source\PSoC5/ErikaOS_ee_oo_internal.inc **** #endif /* EE_COUNTER_OBJECTS_ROM_SIZE > 0 */
 357:Generated_Source\PSoC5/ErikaOS_ee_oo_internal.inc **** #endif /* !__OO_NO_ALARMS__ || EE_AS_SCHEDULETABLES__ */
 358:Generated_Source\PSoC5/ErikaOS_ee_oo_internal.inc **** 
 359:Generated_Source\PSoC5/ErikaOS_ee_oo_internal.inc **** /*************************************************************************
 360:Generated_Source\PSoC5/ErikaOS_ee_oo_internal.inc ****  HAL extensions
 361:Generated_Source\PSoC5/ErikaOS_ee_oo_internal.inc ****  *************************************************************************/
 362:Generated_Source\PSoC5/ErikaOS_ee_oo_internal.inc **** 
 363:Generated_Source\PSoC5/ErikaOS_ee_oo_internal.inc ****  /* these are the functions that have been inserted to support tha OO layer
 364:Generated_Source\PSoC5/ErikaOS_ee_oo_internal.inc ****     under the EE HAL.
 365:Generated_Source\PSoC5/ErikaOS_ee_oo_internal.inc ****     
 366:Generated_Source\PSoC5/ErikaOS_ee_oo_internal.inc ****     - all the functions for interrupt handling (13.3)
 367:Generated_Source\PSoC5/ErikaOS_ee_oo_internal.inc ****     - EE_hal_begin_nested_primitive
 368:Generated_Source\PSoC5/ErikaOS_ee_oo_internal.inc ****       EE_hal_end_nested_primitive 
 369:Generated_Source\PSoC5/ErikaOS_ee_oo_internal.inc ****       (for primitives that can be called both into a task and into an ISR2
 370:Generated_Source\PSoC5/ErikaOS_ee_oo_internal.inc ****     - EE_hal_terminate_task(EE_TID t)
 371:Generated_Source\PSoC5/ErikaOS_ee_oo_internal.inc ****     - EE_hal_terminate_savestk(EE_TID t)
 372:Generated_Source\PSoC5/ErikaOS_ee_oo_internal.inc ****       EE_oo_preemption_point() execute task preemption if is needed
 373:Generated_Source\PSoC5/ErikaOS_ee_oo_internal.inc ****     - EE_oo_shutdown() if not redefined it does for(;;);
 374:Generated_Source\PSoC5/ErikaOS_ee_oo_internal.inc ****     - All the alarm constants listed in 13.6.4
 375:Generated_Source\PSoC5/ErikaOS_ee_oo_internal.inc ****  */
 376:Generated_Source\PSoC5/ErikaOS_ee_oo_internal.inc **** 
 377:Generated_Source\PSoC5/ErikaOS_ee_oo_internal.inc **** 
 378:Generated_Source\PSoC5/ErikaOS_ee_oo_internal.inc **** /***************************************************************************
 379:Generated_Source\PSoC5/ErikaOS_ee_oo_internal.inc ****  * Internal data structures and functions
 380:Generated_Source\PSoC5/ErikaOS_ee_oo_internal.inc ****  ***************************************************************************/
 381:Generated_Source\PSoC5/ErikaOS_ee_oo_internal.inc **** 
 382:Generated_Source\PSoC5/ErikaOS_ee_oo_internal.inc **** /*
 383:Generated_Source\PSoC5/ErikaOS_ee_oo_internal.inc ****     Call Hooks utilities
 384:Generated_Source\PSoC5/ErikaOS_ee_oo_internal.inc ****  */
 385:Generated_Source\PSoC5/ErikaOS_ee_oo_internal.inc **** 
 386:Generated_Source\PSoC5/ErikaOS_ee_oo_internal.inc **** #ifdef __OO_HAS_PRETASKHOOK__
 387:Generated_Source\PSoC5/ErikaOS_ee_oo_internal.inc **** __INLINE__ void  EE_oo_call_PreTaskHook(void)
 388:Generated_Source\PSoC5/ErikaOS_ee_oo_internal.inc **** {
 389:Generated_Source\PSoC5/ErikaOS_ee_oo_internal.inc ****   EE_as_set_execution_context( PreTaskHook_Context );
 390:Generated_Source\PSoC5/ErikaOS_ee_oo_internal.inc ****   PreTaskHook();
 391:Generated_Source\PSoC5/ErikaOS_ee_oo_internal.inc ****   /* Set the execution context on TASK */
ARM GAS  C:\Users\rbhar\AppData\Local\Temp\ccK3IQqW.s 			page 16


 392:Generated_Source\PSoC5/ErikaOS_ee_oo_internal.inc ****   EE_as_set_execution_context( TASK_Context );
 393:Generated_Source\PSoC5/ErikaOS_ee_oo_internal.inc **** }
 394:Generated_Source\PSoC5/ErikaOS_ee_oo_internal.inc **** 
 395:Generated_Source\PSoC5/ErikaOS_ee_oo_internal.inc **** #else /* __OO_HAS_PRETASKHOOK__ */
 396:Generated_Source\PSoC5/ErikaOS_ee_oo_internal.inc **** __INLINE__ void  EE_oo_call_PreTaskHook(void)
 397:Generated_Source\PSoC5/ErikaOS_ee_oo_internal.inc **** {
 398:Generated_Source\PSoC5/ErikaOS_ee_oo_internal.inc ****   /* Set the execution context on TASK */
 399:Generated_Source\PSoC5/ErikaOS_ee_oo_internal.inc ****   EE_as_set_execution_context( TASK_Context );
 400:Generated_Source\PSoC5/ErikaOS_ee_oo_internal.inc **** }
 401:Generated_Source\PSoC5/ErikaOS_ee_oo_internal.inc **** #endif /* __OO_HAS_PRETASKHOOK__ */
 402:Generated_Source\PSoC5/ErikaOS_ee_oo_internal.inc **** 
 403:Generated_Source\PSoC5/ErikaOS_ee_oo_internal.inc **** #if defined(__OO_HAS_POSTTASKHOOK__)
 404:Generated_Source\PSoC5/ErikaOS_ee_oo_internal.inc **** __INLINE__ void  EE_oo_call_PostTaskHook(void)
 405:Generated_Source\PSoC5/ErikaOS_ee_oo_internal.inc **** {
 406:Generated_Source\PSoC5/ErikaOS_ee_oo_internal.inc ****   EE_as_set_execution_context( PostTaskHook_Context );
 407:Generated_Source\PSoC5/ErikaOS_ee_oo_internal.inc ****   PostTaskHook();
 408:Generated_Source\PSoC5/ErikaOS_ee_oo_internal.inc **** }
 409:Generated_Source\PSoC5/ErikaOS_ee_oo_internal.inc **** #else /* __OO_HAS_POSTTASKHOOK__ */
 410:Generated_Source\PSoC5/ErikaOS_ee_oo_internal.inc **** __INLINE__ void  EE_oo_call_PostTaskHook(void) {}
 411:Generated_Source\PSoC5/ErikaOS_ee_oo_internal.inc **** #endif /* __OO_HAS_POSTTASKHOOK__ */
 412:Generated_Source\PSoC5/ErikaOS_ee_oo_internal.inc **** 
 413:Generated_Source\PSoC5/ErikaOS_ee_oo_internal.inc **** 
 414:Generated_Source\PSoC5/ErikaOS_ee_oo_internal.inc **** /* StartOS Flag defined inside ee_startos.c to check that the system has correctly started */
 415:Generated_Source\PSoC5/ErikaOS_ee_oo_internal.inc **** extern EE_UREG volatile EE_oo_started;
 416:Generated_Source\PSoC5/ErikaOS_ee_oo_internal.inc **** 
 417:Generated_Source\PSoC5/ErikaOS_ee_oo_internal.inc **** 
 418:Generated_Source\PSoC5/ErikaOS_ee_oo_internal.inc **** /* Used to check if we are in disable interrupt error. It return
 419:Generated_Source\PSoC5/ErikaOS_ee_oo_internal.inc ****    'signed register type' because usually it is native integer type. */
 420:Generated_Source\PSoC5/ErikaOS_ee_oo_internal.inc **** __INLINE__ EE_TYPEBOOL  EE_oo_check_disableint_error(void)
 421:Generated_Source\PSoC5/ErikaOS_ee_oo_internal.inc **** {
 422:Generated_Source\PSoC5/ErikaOS_ee_oo_internal.inc ****   return ( EE_oo_IRQ_disable_count != 0U );
 423:Generated_Source\PSoC5/ErikaOS_ee_oo_internal.inc **** }
 424:Generated_Source\PSoC5/ErikaOS_ee_oo_internal.inc **** 
 425:Generated_Source\PSoC5/ErikaOS_ee_oo_internal.inc **** #if (defined(__OO_BCC2__)) || (defined(__OO_ECC2__))
 426:Generated_Source\PSoC5/ErikaOS_ee_oo_internal.inc **** /* A lookup table to speedup ready queue handling */
 427:Generated_Source\PSoC5/ErikaOS_ee_oo_internal.inc **** extern const EE_INT8 EE_rq_lookup[256];
 428:Generated_Source\PSoC5/ErikaOS_ee_oo_internal.inc **** /* Lookup functions */
 429:Generated_Source\PSoC5/ErikaOS_ee_oo_internal.inc **** #if defined(__OO_ECC2__)
 430:Generated_Source\PSoC5/ErikaOS_ee_oo_internal.inc **** __INLINE__ EE_INT8  EE_rq_get_first_not_empty_queue( void )
 431:Generated_Source\PSoC5/ErikaOS_ee_oo_internal.inc **** {
 432:Generated_Source\PSoC5/ErikaOS_ee_oo_internal.inc ****   /* Lookup at bits 15-9 */
 433:Generated_Source\PSoC5/ErikaOS_ee_oo_internal.inc ****   EE_INT8 x = EE_rq_lookup[(EE_rq_bitmask & 0xFF00U) >> 8];
 434:Generated_Source\PSoC5/ErikaOS_ee_oo_internal.inc ****   if (x == (EE_INT8)-1) {
 435:Generated_Source\PSoC5/ErikaOS_ee_oo_internal.inc ****     x = EE_rq_lookup[EE_rq_bitmask];
 436:Generated_Source\PSoC5/ErikaOS_ee_oo_internal.inc ****   } else {
 437:Generated_Source\PSoC5/ErikaOS_ee_oo_internal.inc ****     x += (EE_INT8)8;
 438:Generated_Source\PSoC5/ErikaOS_ee_oo_internal.inc ****   }
 439:Generated_Source\PSoC5/ErikaOS_ee_oo_internal.inc ****   return x;
 440:Generated_Source\PSoC5/ErikaOS_ee_oo_internal.inc **** }
 441:Generated_Source\PSoC5/ErikaOS_ee_oo_internal.inc **** #else /* __OO_ECC2__ */
 442:Generated_Source\PSoC5/ErikaOS_ee_oo_internal.inc **** __INLINE__ EE_INT8  EE_rq_get_first_not_empty_queue( void )
 443:Generated_Source\PSoC5/ErikaOS_ee_oo_internal.inc **** {
 444:Generated_Source\PSoC5/ErikaOS_ee_oo_internal.inc ****   return EE_rq_lookup[EE_rq_bitmask];
 445:Generated_Source\PSoC5/ErikaOS_ee_oo_internal.inc **** }
 446:Generated_Source\PSoC5/ErikaOS_ee_oo_internal.inc **** #endif /* __OO_ECC2__ */
 447:Generated_Source\PSoC5/ErikaOS_ee_oo_internal.inc **** #endif /* __OO_BCC2__ || __OO_ECC2__ */
 448:Generated_Source\PSoC5/ErikaOS_ee_oo_internal.inc **** 
ARM GAS  C:\Users\rbhar\AppData\Local\Temp\ccK3IQqW.s 			page 17


 449:Generated_Source\PSoC5/ErikaOS_ee_oo_internal.inc **** /* Internal Queue management functions */
 450:Generated_Source\PSoC5/ErikaOS_ee_oo_internal.inc **** 
 451:Generated_Source\PSoC5/ErikaOS_ee_oo_internal.inc **** /* return the first ready task without extracting it */
 452:Generated_Source\PSoC5/ErikaOS_ee_oo_internal.inc **** #ifndef __PRIVATE_RQ_QUERYFIRST__
 453:Generated_Source\PSoC5/ErikaOS_ee_oo_internal.inc **** #if (defined(__OO_BCC1__)) || (defined(__OO_ECC1__))
 454:Generated_Source\PSoC5/ErikaOS_ee_oo_internal.inc **** __INLINE__ EE_TID  EE_rq_queryfirst(void)
 455:Generated_Source\PSoC5/ErikaOS_ee_oo_internal.inc **** { return EE_rq_first; }
 456:Generated_Source\PSoC5/ErikaOS_ee_oo_internal.inc **** #endif
 457:Generated_Source\PSoC5/ErikaOS_ee_oo_internal.inc **** 
 458:Generated_Source\PSoC5/ErikaOS_ee_oo_internal.inc **** #if (defined(__OO_BCC2__)) || (defined(__OO_ECC2__))
 459:Generated_Source\PSoC5/ErikaOS_ee_oo_internal.inc **** EE_TID EE_rq_queryfirst(void);
 460:Generated_Source\PSoC5/ErikaOS_ee_oo_internal.inc **** #endif
 461:Generated_Source\PSoC5/ErikaOS_ee_oo_internal.inc **** #endif
 462:Generated_Source\PSoC5/ErikaOS_ee_oo_internal.inc **** 
 463:Generated_Source\PSoC5/ErikaOS_ee_oo_internal.inc **** /* __INLINE__ EE_TID  EE_stk_queryfirst(void) in intfunc.h */
 464:Generated_Source\PSoC5/ErikaOS_ee_oo_internal.inc **** 
 465:Generated_Source\PSoC5/ErikaOS_ee_oo_internal.inc **** /* Extract the RUNNING task from the stack, and return the new head */
 466:Generated_Source\PSoC5/ErikaOS_ee_oo_internal.inc **** #ifndef __PRIVATE_STK_GETFIRST__
 467:Generated_Source\PSoC5/ErikaOS_ee_oo_internal.inc **** __INLINE__ EE_TID  EE_stk_getfirst(void)
 468:Generated_Source\PSoC5/ErikaOS_ee_oo_internal.inc **** {
 469:Generated_Source\PSoC5/ErikaOS_ee_oo_internal.inc ****   return (EE_stkfirst = EE_th_next[EE_stkfirst]);
 470:Generated_Source\PSoC5/ErikaOS_ee_oo_internal.inc **** }
 471:Generated_Source\PSoC5/ErikaOS_ee_oo_internal.inc **** #endif /* __PRIVATE_STK_GETFIRST__ */
 472:Generated_Source\PSoC5/ErikaOS_ee_oo_internal.inc **** 
 473:Generated_Source\PSoC5/ErikaOS_ee_oo_internal.inc **** /* insert a task into the stack data structures */
 474:Generated_Source\PSoC5/ErikaOS_ee_oo_internal.inc **** #ifndef __PRIVATE_STK_INSERTFIRST__
 475:Generated_Source\PSoC5/ErikaOS_ee_oo_internal.inc **** __INLINE__ void  EE_stk_insertfirst(EE_TID t)
 476:Generated_Source\PSoC5/ErikaOS_ee_oo_internal.inc **** {
 477:Generated_Source\PSoC5/ErikaOS_ee_oo_internal.inc ****     EE_th_next[t] = EE_stkfirst;
 478:Generated_Source\PSoC5/ErikaOS_ee_oo_internal.inc ****     EE_stkfirst = t;
 479:Generated_Source\PSoC5/ErikaOS_ee_oo_internal.inc **** }
 480:Generated_Source\PSoC5/ErikaOS_ee_oo_internal.inc **** #endif
 481:Generated_Source\PSoC5/ErikaOS_ee_oo_internal.inc **** 
 482:Generated_Source\PSoC5/ErikaOS_ee_oo_internal.inc **** /* insert a task into the ready queue */
 483:Generated_Source\PSoC5/ErikaOS_ee_oo_internal.inc **** #ifndef __PRIVATE_RQ_INSERT__
 484:Generated_Source\PSoC5/ErikaOS_ee_oo_internal.inc **** void EE_rq_insert(EE_TID t);
 485:Generated_Source\PSoC5/ErikaOS_ee_oo_internal.inc **** #endif
 486:Generated_Source\PSoC5/ErikaOS_ee_oo_internal.inc **** 
 487:Generated_Source\PSoC5/ErikaOS_ee_oo_internal.inc **** /* put the first ready task into the stack */
 488:Generated_Source\PSoC5/ErikaOS_ee_oo_internal.inc **** #ifndef __PRIVATE_RQ2STK_EXCHANGE__
 489:Generated_Source\PSoC5/ErikaOS_ee_oo_internal.inc **** EE_TID EE_rq2stk_exchange(void);
 490:Generated_Source\PSoC5/ErikaOS_ee_oo_internal.inc **** #endif
 491:Generated_Source\PSoC5/ErikaOS_ee_oo_internal.inc **** 
 492:Generated_Source\PSoC5/ErikaOS_ee_oo_internal.inc **** #ifndef __OO_NO_RESOURCES__
 493:Generated_Source\PSoC5/ErikaOS_ee_oo_internal.inc **** /*
 494:Generated_Source\PSoC5/ErikaOS_ee_oo_internal.inc ****     Method to release all resources locked by a Thread,
 495:Generated_Source\PSoC5/ErikaOS_ee_oo_internal.inc ****     used to fulfill AS requirement OS070
 496:Generated_Source\PSoC5/ErikaOS_ee_oo_internal.inc ****  */
 497:Generated_Source\PSoC5/ErikaOS_ee_oo_internal.inc **** #if ((!defined(__OO_EXTENDED_STATUS__)) && \
 498:Generated_Source\PSoC5/ErikaOS_ee_oo_internal.inc ****     (!defined(__PRIVATE_RELEASEALLRESOURCE__))) && \
 499:Generated_Source\PSoC5/ErikaOS_ee_oo_internal.inc ****     (!defined(__OO_ISR2_RESOURCES__))
 500:Generated_Source\PSoC5/ErikaOS_ee_oo_internal.inc **** __INLINE__ void  EE_oo_release_all_resources(EE_TID tid)
 501:Generated_Source\PSoC5/ErikaOS_ee_oo_internal.inc **** {
 502:Generated_Source\PSoC5/ErikaOS_ee_oo_internal.inc ****   /* release the internal resource. a EE_TYPEPRIO is a bit mask with only one
 503:Generated_Source\PSoC5/ErikaOS_ee_oo_internal.inc ****      bit set to one.
 504:Generated_Source\PSoC5/ErikaOS_ee_oo_internal.inc ****      If i subtract one to this I obtain a bit mask with all
 505:Generated_Source\PSoC5/ErikaOS_ee_oo_internal.inc ****      ones before the starting one and all zeros after 
ARM GAS  C:\Users\rbhar\AppData\Local\Temp\ccK3IQqW.s 			page 18


 506:Generated_Source\PSoC5/ErikaOS_ee_oo_internal.inc ****      (exactly what I want to release resources!)
 507:Generated_Source\PSoC5/ErikaOS_ee_oo_internal.inc ****   */
 508:Generated_Source\PSoC5/ErikaOS_ee_oo_internal.inc ****   EE_sys_ceiling &= (EE_th_dispatch_prio[tid] - 1U);
 509:Generated_Source\PSoC5/ErikaOS_ee_oo_internal.inc **** }
 510:Generated_Source\PSoC5/ErikaOS_ee_oo_internal.inc **** #else
 511:Generated_Source\PSoC5/ErikaOS_ee_oo_internal.inc **** EE_UREG EE_oo_release_all_resources(EE_TID tid);
 512:Generated_Source\PSoC5/ErikaOS_ee_oo_internal.inc **** #endif /* !__OO_EXTENDED_STATUS__ && !__OO_ISR2_RESOURCES__ */
 513:Generated_Source\PSoC5/ErikaOS_ee_oo_internal.inc **** #else /* __OO_NO_RESOURCES__ */
 514:Generated_Source\PSoC5/ErikaOS_ee_oo_internal.inc **** #define EE_oo_release_all_resources(tid)    ((void)0)
 515:Generated_Source\PSoC5/ErikaOS_ee_oo_internal.inc **** #endif /* __OO_NO_RESOURCES__ */
 516:Generated_Source\PSoC5/ErikaOS_ee_oo_internal.inc **** 
 517:Generated_Source\PSoC5/ErikaOS_ee_oo_internal.inc **** #ifndef __PRIVATE_THREANTERMINATED__
 518:Generated_Source\PSoC5/ErikaOS_ee_oo_internal.inc **** /* this the function that will be called if a Task doesn't end calling
 519:Generated_Source\PSoC5/ErikaOS_ee_oo_internal.inc ****    TerminateTask */
 520:Generated_Source\PSoC5/ErikaOS_ee_oo_internal.inc **** 
 521:Generated_Source\PSoC5/ErikaOS_ee_oo_internal.inc **** extern void EE_thread_not_terminated( void );
 522:Generated_Source\PSoC5/ErikaOS_ee_oo_internal.inc **** #endif /* __PRIVATE_THREANTERMINATED__ */
 523:Generated_Source\PSoC5/ErikaOS_ee_oo_internal.inc **** 
 524:Generated_Source\PSoC5/ErikaOS_ee_oo_internal.inc **** /* This call terminates a thread instance. It must be called as the
 525:Generated_Source\PSoC5/ErikaOS_ee_oo_internal.inc ****    LAST function call BEFORE the `}' that ends a thread. If the
 526:Generated_Source\PSoC5/ErikaOS_ee_oo_internal.inc ****    primitive is not inserted at the end of */
 527:Generated_Source\PSoC5/ErikaOS_ee_oo_internal.inc **** #ifndef __PRIVATE_THREAD_END_INSTANCE__
 528:Generated_Source\PSoC5/ErikaOS_ee_oo_internal.inc **** void EE_thread_end_instance(void);
 529:Generated_Source\PSoC5/ErikaOS_ee_oo_internal.inc **** #endif
 530:Generated_Source\PSoC5/ErikaOS_ee_oo_internal.inc **** 
 531:Generated_Source\PSoC5/ErikaOS_ee_oo_internal.inc **** #if (defined(__OO_ISR2_RESOURCES__)) || (defined(EE_AS_USER_SPINLOCKS__))
 532:Generated_Source\PSoC5/ErikaOS_ee_oo_internal.inc **** /* Index used to give ISR2 Temporary TID value and to access at
 533:Generated_Source\PSoC5/ErikaOS_ee_oo_internal.inc ****    EE_isr2_nesting_level array */
 534:Generated_Source\PSoC5/ErikaOS_ee_oo_internal.inc **** extern EE_UREG EE_isr2_index;
 535:Generated_Source\PSoC5/ErikaOS_ee_oo_internal.inc **** 
 536:Generated_Source\PSoC5/ErikaOS_ee_oo_internal.inc **** /* Assign a fake TID to an ISR2 to eventually handle resources clean-up */
 537:Generated_Source\PSoC5/ErikaOS_ee_oo_internal.inc **** EE_TID  EE_oo_assign_TID_to_ISR2(void);
 538:Generated_Source\PSoC5/ErikaOS_ee_oo_internal.inc **** 
 539:Generated_Source\PSoC5/ErikaOS_ee_oo_internal.inc **** /* Get the last assigned fake ISR2 TID */
 540:Generated_Source\PSoC5/ErikaOS_ee_oo_internal.inc **** __INLINE__ EE_TID  EE_oo_get_ISR2_TID(void) {
 541:Generated_Source\PSoC5/ErikaOS_ee_oo_internal.inc ****   return (EE_isr2_index != EE_UREG_MINUS1)?
 542:Generated_Source\PSoC5/ErikaOS_ee_oo_internal.inc ****     (EE_MAX_TASK + (EE_TID)EE_isr2_index): EE_NIL;
 543:Generated_Source\PSoC5/ErikaOS_ee_oo_internal.inc **** }
 544:Generated_Source\PSoC5/ErikaOS_ee_oo_internal.inc **** #endif /* __OO_ISR2_RESOURCES__ || EE_AS_USER_SPINLOCKS__ */
 545:Generated_Source\PSoC5/ErikaOS_ee_oo_internal.inc **** 
 546:Generated_Source\PSoC5/ErikaOS_ee_oo_internal.inc **** #if (defined(__OO_ECC1__)) || (defined(__OO_ECC2__))
 547:Generated_Source\PSoC5/ErikaOS_ee_oo_internal.inc **** /*
 548:Generated_Source\PSoC5/ErikaOS_ee_oo_internal.inc ****     Reset Active Events  THREAD utility method.
 549:Generated_Source\PSoC5/ErikaOS_ee_oo_internal.inc **** 
 550:Generated_Source\PSoC5/ErikaOS_ee_oo_internal.inc ****     When an extended task is transferred from suspended state
 551:Generated_Source\PSoC5/ErikaOS_ee_oo_internal.inc ****     into ready state all its events have to be cleared cleared
 552:Generated_Source\PSoC5/ErikaOS_ee_oo_internal.inc **** */
 553:Generated_Source\PSoC5/ErikaOS_ee_oo_internal.inc **** __INLINE__ void  EE_oo_reset_th_event_active(TaskType tnotactive)
 554:Generated_Source\PSoC5/ErikaOS_ee_oo_internal.inc **** {
 555:Generated_Source\PSoC5/ErikaOS_ee_oo_internal.inc ****     EE_th_event_active[tnotactive] = 0U;
 556:Generated_Source\PSoC5/ErikaOS_ee_oo_internal.inc **** }
 557:Generated_Source\PSoC5/ErikaOS_ee_oo_internal.inc **** 
 558:Generated_Source\PSoC5/ErikaOS_ee_oo_internal.inc **** /* 
 559:Generated_Source\PSoC5/ErikaOS_ee_oo_internal.inc ****   This method actually do a CONTEXT SWITCH, with the highest priority TASK
 560:Generated_Source\PSoC5/ErikaOS_ee_oo_internal.inc **** */
 561:Generated_Source\PSoC5/ErikaOS_ee_oo_internal.inc **** #ifdef __MULTI__
 562:Generated_Source\PSoC5/ErikaOS_ee_oo_internal.inc **** __INLINE__ void  EE_oo_run_next_task(void)
ARM GAS  C:\Users\rbhar\AppData\Local\Temp\ccK3IQqW.s 			page 19


 563:Generated_Source\PSoC5/ErikaOS_ee_oo_internal.inc **** {
 564:Generated_Source\PSoC5/ErikaOS_ee_oo_internal.inc ****     register TaskType tmp;
 565:Generated_Source\PSoC5/ErikaOS_ee_oo_internal.inc ****     /* swap from ready queue to stack queue */
 566:Generated_Source\PSoC5/ErikaOS_ee_oo_internal.inc ****     tmp = EE_rq2stk_exchange();
 567:Generated_Source\PSoC5/ErikaOS_ee_oo_internal.inc ****     if ( EE_th_waswaiting[tmp] ) {
 568:Generated_Source\PSoC5/ErikaOS_ee_oo_internal.inc ****       /* if the task was waiting switch the context to restart it */
 569:Generated_Source\PSoC5/ErikaOS_ee_oo_internal.inc ****       EE_th_waswaiting[tmp] = EE_FALSE;
 570:Generated_Source\PSoC5/ErikaOS_ee_oo_internal.inc ****       /* Call the PreTaskHook, here no stub will do that for you */
 571:Generated_Source\PSoC5/ErikaOS_ee_oo_internal.inc ****       EE_oo_call_PreTaskHook();
 572:Generated_Source\PSoC5/ErikaOS_ee_oo_internal.inc ****       EE_hal_stkchange(tmp);
 573:Generated_Source\PSoC5/ErikaOS_ee_oo_internal.inc ****     } else {
 574:Generated_Source\PSoC5/ErikaOS_ee_oo_internal.inc ****       /* the next task have to be started */
 575:Generated_Source\PSoC5/ErikaOS_ee_oo_internal.inc ****       EE_hal_ready2stacked(tmp);
 576:Generated_Source\PSoC5/ErikaOS_ee_oo_internal.inc ****     }
 577:Generated_Source\PSoC5/ErikaOS_ee_oo_internal.inc **** }
 578:Generated_Source\PSoC5/ErikaOS_ee_oo_internal.inc **** #else
 579:Generated_Source\PSoC5/ErikaOS_ee_oo_internal.inc **** __INLINE__ void  EE_oo_run_next_task(void)
 580:Generated_Source\PSoC5/ErikaOS_ee_oo_internal.inc **** {
 581:Generated_Source\PSoC5/ErikaOS_ee_oo_internal.inc ****     EE_hal_ready2stacked(EE_rq2stk_exchange());
 582:Generated_Source\PSoC5/ErikaOS_ee_oo_internal.inc **** }
 583:Generated_Source\PSoC5/ErikaOS_ee_oo_internal.inc **** #endif /* __MULTI__ */
 584:Generated_Source\PSoC5/ErikaOS_ee_oo_internal.inc **** #else
 585:Generated_Source\PSoC5/ErikaOS_ee_oo_internal.inc **** #define EE_oo_reset_th_event_active(TaskID)    ((void) 0)
 586:Generated_Source\PSoC5/ErikaOS_ee_oo_internal.inc **** 
 587:Generated_Source\PSoC5/ErikaOS_ee_oo_internal.inc **** /* 
 588:Generated_Source\PSoC5/ErikaOS_ee_oo_internal.inc ****   This method actually do a CONTEXT SWITCH, with the highest priority TASK
 589:Generated_Source\PSoC5/ErikaOS_ee_oo_internal.inc **** */
 590:Generated_Source\PSoC5/ErikaOS_ee_oo_internal.inc **** __INLINE__ void  EE_oo_run_next_task(void)
 591:Generated_Source\PSoC5/ErikaOS_ee_oo_internal.inc **** {
 592:Generated_Source\PSoC5/ErikaOS_ee_oo_internal.inc ****     EE_hal_ready2stacked(EE_rq2stk_exchange());
 593:Generated_Source\PSoC5/ErikaOS_ee_oo_internal.inc **** }
 594:Generated_Source\PSoC5/ErikaOS_ee_oo_internal.inc **** #endif /* defined(__OO_ECC1__) || defined(__OO_ECC2__) */
 595:Generated_Source\PSoC5/ErikaOS_ee_oo_internal.inc **** 
 596:Generated_Source\PSoC5/ErikaOS_ee_oo_internal.inc **** 
 597:Generated_Source\PSoC5/ErikaOS_ee_oo_internal.inc **** #if (defined(__OO_BCC2__)) || (defined(__OO_ECC2__))
 598:Generated_Source\PSoC5/ErikaOS_ee_oo_internal.inc ****   /*
 599:Generated_Source\PSoC5/ErikaOS_ee_oo_internal.inc ****     Set THREAD ready utility method.
 600:Generated_Source\PSoC5/ErikaOS_ee_oo_internal.inc ****     If the task is BCC2/ECC2 it can be that it is ready or 
 601:Generated_Source\PSoC5/ErikaOS_ee_oo_internal.inc ****     running. in that case we have to check and queue it anyway
 602:Generated_Source\PSoC5/ErikaOS_ee_oo_internal.inc ****   */
 603:Generated_Source\PSoC5/ErikaOS_ee_oo_internal.inc **** __INLINE__ void  EE_oo_set_th_status_ready(TaskType TaskID)
 604:Generated_Source\PSoC5/ErikaOS_ee_oo_internal.inc **** {
 605:Generated_Source\PSoC5/ErikaOS_ee_oo_internal.inc ****     if (EE_th_status[TaskID] == SUSPENDED) {
 606:Generated_Source\PSoC5/ErikaOS_ee_oo_internal.inc ****         EE_th_status[TaskID] = READY;
 607:Generated_Source\PSoC5/ErikaOS_ee_oo_internal.inc ****         EE_oo_reset_th_event_active(TaskID);
 608:Generated_Source\PSoC5/ErikaOS_ee_oo_internal.inc ****     }
 609:Generated_Source\PSoC5/ErikaOS_ee_oo_internal.inc **** }
 610:Generated_Source\PSoC5/ErikaOS_ee_oo_internal.inc **** #else
 611:Generated_Source\PSoC5/ErikaOS_ee_oo_internal.inc ****   /*
 612:Generated_Source\PSoC5/ErikaOS_ee_oo_internal.inc ****     Set THREAD ready utility method
 613:Generated_Source\PSoC5/ErikaOS_ee_oo_internal.inc ****     If the task is BCC1/ECC1 it can be here only because
 614:Generated_Source\PSoC5/ErikaOS_ee_oo_internal.inc ****     it had rnact=1 before the call, and so it is in suspended state
 615:Generated_Source\PSoC5/ErikaOS_ee_oo_internal.inc ****   */
 616:Generated_Source\PSoC5/ErikaOS_ee_oo_internal.inc **** __INLINE__ void  EE_oo_set_th_status_ready(TaskType tready)
 617:Generated_Source\PSoC5/ErikaOS_ee_oo_internal.inc **** {
 618:Generated_Source\PSoC5/ErikaOS_ee_oo_internal.inc ****     EE_th_status[tready] = READY;
 619:Generated_Source\PSoC5/ErikaOS_ee_oo_internal.inc ****     EE_oo_reset_th_event_active(tready);
ARM GAS  C:\Users\rbhar\AppData\Local\Temp\ccK3IQqW.s 			page 20


 620:Generated_Source\PSoC5/ErikaOS_ee_oo_internal.inc **** }
 621:Generated_Source\PSoC5/ErikaOS_ee_oo_internal.inc **** #endif /* defined(__OO_BCC2__) || defined(__OO_ECC2__) */
 622:Generated_Source\PSoC5/ErikaOS_ee_oo_internal.inc **** 
 623:Generated_Source\PSoC5/ErikaOS_ee_oo_internal.inc **** __INLINE__ void  EE_oo_task_in_ready_queue( TaskType tid )
 624:Generated_Source\PSoC5/ErikaOS_ee_oo_internal.inc **** {
 625:Generated_Source\PSoC5/ErikaOS_ee_oo_internal.inc ****   /* Decrement the residual number activation */
 626:Generated_Source\PSoC5/ErikaOS_ee_oo_internal.inc ****   --EE_th_rnact[tid];
  71              		.loc 3 626 0
  72 0016 2B4A     		ldr	r2, .L12
  73 0018 013B     		subs	r3, r3, #1
  74 001a 42F82030 		str	r3, [r2, r0, lsl #2]
  75              	.LVL4:
  76              	.LBB75:
  77              	.LBB76:
 605:Generated_Source\PSoC5/ErikaOS_ee_oo_internal.inc ****         EE_th_status[TaskID] = READY;
  78              		.loc 3 605 0
  79 001e 2A4B     		ldr	r3, .L12+4
  80 0020 53F82030 		ldr	r3, [r3, r0, lsl #2]
  81 0024 032B     		cmp	r3, #3
  82 0026 07D1     		bne	.L3
 606:Generated_Source\PSoC5/ErikaOS_ee_oo_internal.inc ****         EE_oo_reset_th_event_active(TaskID);
  83              		.loc 3 606 0
  84 0028 0222     		movs	r2, #2
  85 002a 274B     		ldr	r3, .L12+4
  86 002c 43F82020 		str	r2, [r3, r0, lsl #2]
  87              	.LVL5:
  88              	.LBB77:
  89              	.LBB78:
 555:Generated_Source\PSoC5/ErikaOS_ee_oo_internal.inc **** }
  90              		.loc 3 555 0
  91 0030 0022     		movs	r2, #0
  92 0032 264B     		ldr	r3, .L12+8
  93 0034 43F82020 		str	r2, [r3, r0, lsl #2]
  94              	.LVL6:
  95              	.L3:
  96              	.LBE78:
  97              	.LBE77:
  98              	.LBE76:
  99              	.LBE75:
 627:Generated_Source\PSoC5/ErikaOS_ee_oo_internal.inc ****   /* Set the status READY handling multiple activations */
 628:Generated_Source\PSoC5/ErikaOS_ee_oo_internal.inc ****   EE_oo_set_th_status_ready(tid);
 629:Generated_Source\PSoC5/ErikaOS_ee_oo_internal.inc ****   /* insert the task in the ready queue */
 630:Generated_Source\PSoC5/ErikaOS_ee_oo_internal.inc ****   EE_rq_insert(tid);
 100              		.loc 3 630 0
 101 0038 FFF7FEFF 		bl	EE_rq_insert
 102              	.LVL7:
 103              	.LBE74:
 104              	.LBE73:
 105              	.LBB79:
 106              	.LBB80:
 107              		.file 4 "Generated_Source\\PSoC5\\ErikaOS_common_ee_primitives.inc"
   1:Generated_Source\PSoC5/ErikaOS_common_ee_primitives.inc **** /* ###*B*###
   2:Generated_Source\PSoC5/ErikaOS_common_ee_primitives.inc ****  * ERIKA Enterprise - a tiny RTOS for small microcontrollers
   3:Generated_Source\PSoC5/ErikaOS_common_ee_primitives.inc ****  *
   4:Generated_Source\PSoC5/ErikaOS_common_ee_primitives.inc ****  * Copyright (C) 2002-2009  Evidence Srl
   5:Generated_Source\PSoC5/ErikaOS_common_ee_primitives.inc ****  *
   6:Generated_Source\PSoC5/ErikaOS_common_ee_primitives.inc ****  * This file is part of ERIKA Enterprise.
ARM GAS  C:\Users\rbhar\AppData\Local\Temp\ccK3IQqW.s 			page 21


   7:Generated_Source\PSoC5/ErikaOS_common_ee_primitives.inc ****  *
   8:Generated_Source\PSoC5/ErikaOS_common_ee_primitives.inc ****  * ERIKA Enterprise is free software; you can redistribute it
   9:Generated_Source\PSoC5/ErikaOS_common_ee_primitives.inc ****  * and/or modify it under the terms of the GNU General Public License
  10:Generated_Source\PSoC5/ErikaOS_common_ee_primitives.inc ****  * version 2 as published by the Free Software Foundation, 
  11:Generated_Source\PSoC5/ErikaOS_common_ee_primitives.inc ****  * (with a special exception described below).
  12:Generated_Source\PSoC5/ErikaOS_common_ee_primitives.inc ****  *
  13:Generated_Source\PSoC5/ErikaOS_common_ee_primitives.inc ****  * Linking this code statically or dynamically with other modules is
  14:Generated_Source\PSoC5/ErikaOS_common_ee_primitives.inc ****  * making a combined work based on this code.  Thus, the terms and
  15:Generated_Source\PSoC5/ErikaOS_common_ee_primitives.inc ****  * conditions of the GNU General Public License cover the whole
  16:Generated_Source\PSoC5/ErikaOS_common_ee_primitives.inc ****  * combination.
  17:Generated_Source\PSoC5/ErikaOS_common_ee_primitives.inc ****  *
  18:Generated_Source\PSoC5/ErikaOS_common_ee_primitives.inc ****  * As a special exception, the copyright holders of this library give you
  19:Generated_Source\PSoC5/ErikaOS_common_ee_primitives.inc ****  * permission to link this code with independent modules to produce an
  20:Generated_Source\PSoC5/ErikaOS_common_ee_primitives.inc ****  * executable, regardless of the license terms of these independent
  21:Generated_Source\PSoC5/ErikaOS_common_ee_primitives.inc ****  * modules, and to copy and distribute the resulting executable under
  22:Generated_Source\PSoC5/ErikaOS_common_ee_primitives.inc ****  * terms of your choice, provided that you also meet, for each linked
  23:Generated_Source\PSoC5/ErikaOS_common_ee_primitives.inc ****  * independent module, the terms and conditions of the license of that
  24:Generated_Source\PSoC5/ErikaOS_common_ee_primitives.inc ****  * module.  An independent module is a module which is not derived from
  25:Generated_Source\PSoC5/ErikaOS_common_ee_primitives.inc ****  * or based on this library.  If you modify this code, you may extend
  26:Generated_Source\PSoC5/ErikaOS_common_ee_primitives.inc ****  * this exception to your version of the code, but you are not
  27:Generated_Source\PSoC5/ErikaOS_common_ee_primitives.inc ****  * obligated to do so.  If you do not wish to do so, delete this
  28:Generated_Source\PSoC5/ErikaOS_common_ee_primitives.inc ****  * exception statement from your version.
  29:Generated_Source\PSoC5/ErikaOS_common_ee_primitives.inc ****  *
  30:Generated_Source\PSoC5/ErikaOS_common_ee_primitives.inc ****  * ERIKA Enterprise is distributed in the hope that it will be
  31:Generated_Source\PSoC5/ErikaOS_common_ee_primitives.inc ****  * useful, but WITHOUT ANY WARRANTY; without even the implied warranty
  32:Generated_Source\PSoC5/ErikaOS_common_ee_primitives.inc ****  * of MERCHANTABILITY or FITNESS FOR A PARTICULAR PURPOSE.  See the
  33:Generated_Source\PSoC5/ErikaOS_common_ee_primitives.inc ****  * GNU General Public License version 2 for more details.
  34:Generated_Source\PSoC5/ErikaOS_common_ee_primitives.inc ****  *
  35:Generated_Source\PSoC5/ErikaOS_common_ee_primitives.inc ****  * You should have received a copy of the GNU General Public License
  36:Generated_Source\PSoC5/ErikaOS_common_ee_primitives.inc ****  * version 2 along with ERIKA Enterprise; if not, write to the
  37:Generated_Source\PSoC5/ErikaOS_common_ee_primitives.inc ****  * Free Software Foundation, Inc., 51 Franklin Street, Fifth Floor,
  38:Generated_Source\PSoC5/ErikaOS_common_ee_primitives.inc ****  * Boston, MA 02110-1301 USA.
  39:Generated_Source\PSoC5/ErikaOS_common_ee_primitives.inc ****  * ###*E*### */
  40:Generated_Source\PSoC5/ErikaOS_common_ee_primitives.inc **** 
  41:Generated_Source\PSoC5/ErikaOS_common_ee_primitives.inc **** /*
  42:Generated_Source\PSoC5/ErikaOS_common_ee_primitives.inc ****  * Functions used in HAL implementations, to be included by a specific
  43:Generated_Source\PSoC5/ErikaOS_common_ee_primitives.inc ****  * ee_internal.h header.
  44:Generated_Source\PSoC5/ErikaOS_common_ee_primitives.inc ****  * Derived from pkg/cpu/pic30/inc/ee_internal.h
  45:Generated_Source\PSoC5/ErikaOS_common_ee_primitives.inc ****  * Author: 2009 Bernardo Dal Seno
  46:Generated_Source\PSoC5/ErikaOS_common_ee_primitives.inc ****  */
  47:Generated_Source\PSoC5/ErikaOS_common_ee_primitives.inc **** 
  48:Generated_Source\PSoC5/ErikaOS_common_ee_primitives.inc **** /*
  49:Generated_Source\PSoC5/ErikaOS_common_ee_primitives.inc ****  * PSoC Port and API Generation
  50:Generated_Source\PSoC5/ErikaOS_common_ee_primitives.inc ****  * Carlos Fernando Meier Martinez
  51:Generated_Source\PSoC5/ErikaOS_common_ee_primitives.inc ****  * Hochschule Darmstadt, Germany. 2017.
  52:Generated_Source\PSoC5/ErikaOS_common_ee_primitives.inc ****  */
  53:Generated_Source\PSoC5/ErikaOS_common_ee_primitives.inc **** 
  54:Generated_Source\PSoC5/ErikaOS_common_ee_primitives.inc **** #ifndef PKG_CPU_COMMON_INC_EE_PRIMITIVES_H
  55:Generated_Source\PSoC5/ErikaOS_common_ee_primitives.inc **** #define PKG_CPU_COMMON_INC_EE_PRIMITIVES_H
  56:Generated_Source\PSoC5/ErikaOS_common_ee_primitives.inc **** 
  57:Generated_Source\PSoC5/ErikaOS_common_ee_primitives.inc **** /*
  58:Generated_Source\PSoC5/ErikaOS_common_ee_primitives.inc ****  * Nested Interrupts Handling
  59:Generated_Source\PSoC5/ErikaOS_common_ee_primitives.inc ****  */
  60:Generated_Source\PSoC5/ErikaOS_common_ee_primitives.inc **** 
  61:Generated_Source\PSoC5/ErikaOS_common_ee_primitives.inc **** /* If MemMap.h support is enabled (i.e. because memory protection): use it */
  62:Generated_Source\PSoC5/ErikaOS_common_ee_primitives.inc **** #ifdef EE_SUPPORT_MEMMAP_H
  63:Generated_Source\PSoC5/ErikaOS_common_ee_primitives.inc **** /* The following variables belong to ERIKA OS section: ee_kernel_bss */
ARM GAS  C:\Users\rbhar\AppData\Local\Temp\ccK3IQqW.s 			page 22


  64:Generated_Source\PSoC5/ErikaOS_common_ee_primitives.inc **** #define OS_START_SEC_VAR_NOINIT
  65:Generated_Source\PSoC5/ErikaOS_common_ee_primitives.inc **** #include "MemMap.inc"
  66:Generated_Source\PSoC5/ErikaOS_common_ee_primitives.inc **** #endif /* EE_SUPPORT_MEMMAP_H */
  67:Generated_Source\PSoC5/ErikaOS_common_ee_primitives.inc **** 
  68:Generated_Source\PSoC5/ErikaOS_common_ee_primitives.inc **** extern EE_UREG EE_IRQ_nesting_level;
  69:Generated_Source\PSoC5/ErikaOS_common_ee_primitives.inc **** 
  70:Generated_Source\PSoC5/ErikaOS_common_ee_primitives.inc **** /* If MemMap.h support is enabled (i.e. because memory protection): use it */
  71:Generated_Source\PSoC5/ErikaOS_common_ee_primitives.inc **** #ifdef EE_SUPPORT_MEMMAP_H
  72:Generated_Source\PSoC5/ErikaOS_common_ee_primitives.inc **** #define OS_STOP_SEC_VAR_NOINIT
  73:Generated_Source\PSoC5/ErikaOS_common_ee_primitives.inc **** #include "MemMap.inc"
  74:Generated_Source\PSoC5/ErikaOS_common_ee_primitives.inc **** #endif /* EE_SUPPORT_MEMMAP_H */
  75:Generated_Source\PSoC5/ErikaOS_common_ee_primitives.inc **** 
  76:Generated_Source\PSoC5/ErikaOS_common_ee_primitives.inc **** /* can be called with interrupt enabled */
  77:Generated_Source\PSoC5/ErikaOS_common_ee_primitives.inc **** __INLINE__ EE_UREG  EE_hal_get_IRQ_nesting_level(void)
  78:Generated_Source\PSoC5/ErikaOS_common_ee_primitives.inc **** {
  79:Generated_Source\PSoC5/ErikaOS_common_ee_primitives.inc ****     return EE_IRQ_nesting_level;
 108              		.loc 4 79 0
 109 003c 244B     		ldr	r3, .L12+12
 110 003e 1B68     		ldr	r3, [r3]
 111              	.LBE80:
 112              	.LBE79:
 134:Generated_Source\PSoC5/ErikaOS_ee_activate.c ****       ev = E_OS_LIMIT;
 135:Generated_Source\PSoC5/ErikaOS_ee_activate.c ****     } else {
 136:Generated_Source\PSoC5/ErikaOS_ee_activate.c ****       /* [SWS_Os_00469]: The Operating System module shall start an
 137:Generated_Source\PSoC5/ErikaOS_ee_activate.c ****           OsTaskTimeFrame when a task is activated successfully.
 138:Generated_Source\PSoC5/ErikaOS_ee_activate.c ****           (SRS_Os_11008) */
 139:Generated_Source\PSoC5/ErikaOS_ee_activate.c ****       /* [SWS_Os_00466]: If an attempt is made to activate a task before the
 140:Generated_Source\PSoC5/ErikaOS_ee_activate.c ****           end of an OsTaskTimeFrame then the Operating System module shall not
 141:Generated_Source\PSoC5/ErikaOS_ee_activate.c ****           perform the activation AND shall call the ProtectionHook()
 142:Generated_Source\PSoC5/ErikaOS_ee_activate.c ****           with E_OS_PROTECTION_ARRIVAL. */
 143:Generated_Source\PSoC5/ErikaOS_ee_activate.c ****       /* Check Interarrival Frame */
 144:Generated_Source\PSoC5/ErikaOS_ee_activate.c ****       if ( EE_as_tp_handle_interarrival(EE_AS_TP_ID_FROM_TASK(TaskID)) )
 145:Generated_Source\PSoC5/ErikaOS_ee_activate.c ****       {
 146:Generated_Source\PSoC5/ErikaOS_ee_activate.c ****         /* Put the TASK in ready queue */
 147:Generated_Source\PSoC5/ErikaOS_ee_activate.c ****         EE_oo_task_in_ready_queue(TaskID);
 148:Generated_Source\PSoC5/ErikaOS_ee_activate.c **** 
 149:Generated_Source\PSoC5/ErikaOS_ee_activate.c ****         /* Check for preemption: 
 150:Generated_Source\PSoC5/ErikaOS_ee_activate.c ****            this test has to be done only if we are inside a task */ 
 151:Generated_Source\PSoC5/ErikaOS_ee_activate.c ****         if ( EE_hal_get_IRQ_nesting_level() == 0U ) {
 113              		.loc 1 151 0
 114 0040 002B     		cmp	r3, #0
 115 0042 36D1     		bne	.L8
 116              	.LBB81:
 117              	.LBB82:
 118              	.LBB83:
 119              	.LBB84:
 238:Generated_Source\PSoC5/ErikaOS_ee_oo_internal.inc **** }
 120              		.loc 3 238 0
 121 0044 234B     		ldr	r3, .L12+16
 122 0046 1C68     		ldr	r4, [r3]
 123              	.LBE84:
 124              	.LBE83:
 631:Generated_Source\PSoC5/ErikaOS_ee_oo_internal.inc **** }
 632:Generated_Source\PSoC5/ErikaOS_ee_oo_internal.inc **** 
 633:Generated_Source\PSoC5/ErikaOS_ee_oo_internal.inc **** /* Execute a preemption */
 634:Generated_Source\PSoC5/ErikaOS_ee_oo_internal.inc **** #ifndef __PRIVATE_PREEMPTION_POINTS__
 635:Generated_Source\PSoC5/ErikaOS_ee_oo_internal.inc **** /*
ARM GAS  C:\Users\rbhar\AppData\Local\Temp\ccK3IQqW.s 			page 23


 636:Generated_Source\PSoC5/ErikaOS_ee_oo_internal.inc ****   Moved preemption check implementation into an outside method because the
 637:Generated_Source\PSoC5/ErikaOS_ee_oo_internal.inc ****   behaviour is common to EE_ActivateTask, EE_oo_ForceSchedule,
 638:Generated_Source\PSoC5/ErikaOS_ee_oo_internal.inc ****   EE_oo_IncrementCounter, EE_oo_ReleaseResource, EE_oo_PostSem
 639:Generated_Source\PSoC5/ErikaOS_ee_oo_internal.inc **** */
 640:Generated_Source\PSoC5/ErikaOS_ee_oo_internal.inc **** __INLINE__ void  EE_oo_preemption_point(void)
 641:Generated_Source\PSoC5/ErikaOS_ee_oo_internal.inc **** {
 642:Generated_Source\PSoC5/ErikaOS_ee_oo_internal.inc ****   register EE_TID current, rq;
 643:Generated_Source\PSoC5/ErikaOS_ee_oo_internal.inc **** 
 644:Generated_Source\PSoC5/ErikaOS_ee_oo_internal.inc ****   /* check if there is a preemption */
 645:Generated_Source\PSoC5/ErikaOS_ee_oo_internal.inc ****   current = EE_stk_queryfirst();
 646:Generated_Source\PSoC5/ErikaOS_ee_oo_internal.inc ****   rq      = EE_rq_queryfirst();
 125              		.loc 3 646 0
 126 0048 FFF7FEFF 		bl	EE_rq_queryfirst
 127              	.LVL8:
 647:Generated_Source\PSoC5/ErikaOS_ee_oo_internal.inc **** 
 648:Generated_Source\PSoC5/ErikaOS_ee_oo_internal.inc **** #if (defined(EE_AS_OSAPPLICATIONS__)) && (defined(__EE_MEMORY_PROTECTION__))
 649:Generated_Source\PSoC5/ErikaOS_ee_oo_internal.inc **** #if (defined(EE_SYSCALL_NR)) && (defined(EE_MAX_SYS_SERVICEID)) \
 650:Generated_Source\PSoC5/ErikaOS_ee_oo_internal.inc ****   && (EE_SYSCALL_NR > EE_MAX_SYS_SERVICEID)
 651:Generated_Source\PSoC5/ErikaOS_ee_oo_internal.inc ****   /* Reaction to timing protection can be defined to terminate the
 652:Generated_Source\PSoC5/ErikaOS_ee_oo_internal.inc ****      OSApplication. If a task is inside CallTrustedFunction() and task
 653:Generated_Source\PSoC5/ErikaOS_ee_oo_internal.inc ****      rescheduling takes place within the same OSApplication,
 654:Generated_Source\PSoC5/ErikaOS_ee_oo_internal.inc ****      the newly running higher priority task may cause timing protection and
 655:Generated_Source\PSoC5/ErikaOS_ee_oo_internal.inc ****      terminate the OSApplication, thus indirectly aborting the trusted
 656:Generated_Source\PSoC5/ErikaOS_ee_oo_internal.inc ****      function. To avoid this, the scheduling of other Tasks which belong to
 657:Generated_Source\PSoC5/ErikaOS_ee_oo_internal.inc ****      the same OS-Application as the caller needs to be restricted, as well as
 658:Generated_Source\PSoC5/ErikaOS_ee_oo_internal.inc ****      the availability of interrupts of the same OS-Application. */
 659:Generated_Source\PSoC5/ErikaOS_ee_oo_internal.inc ****   /* [SWS_Os_00563]: The OperatingSystem shall not schedule any other Tasks
 660:Generated_Source\PSoC5/ErikaOS_ee_oo_internal.inc ****       which belong to the same OS-Application as the non-trusted caller of the
 661:Generated_Source\PSoC5/ErikaOS_ee_oo_internal.inc ****       service. Also interrupts of Category 2 which belong to the same
 662:Generated_Source\PSoC5/ErikaOS_ee_oo_internal.inc ****       OS-Application shall be disabled during the execution of the service. */
 663:Generated_Source\PSoC5/ErikaOS_ee_oo_internal.inc ****   if (  (EE_as_active_app != EE_th_app[rq + 1]) ||
 664:Generated_Source\PSoC5/ErikaOS_ee_oo_internal.inc ****         (EE_as_Application_RAM[EE_as_active_app].
 665:Generated_Source\PSoC5/ErikaOS_ee_oo_internal.inc ****           TrustedFunctionCallsCounter == 0U) ||
 666:Generated_Source\PSoC5/ErikaOS_ee_oo_internal.inc ****         (EE_as_Application_ROM[EE_as_active_app].Mode == EE_MEMPROT_TRUST_MODE)
 667:Generated_Source\PSoC5/ErikaOS_ee_oo_internal.inc ****      )
 668:Generated_Source\PSoC5/ErikaOS_ee_oo_internal.inc **** #endif /* EE_SYSCALL_NR > EE_MAX_SYS_SERVICEID */
 669:Generated_Source\PSoC5/ErikaOS_ee_oo_internal.inc **** #endif /* EE_AS_OSAPPLICATIONS__ && __EE_MEMORY_PROTECTION__ */
 670:Generated_Source\PSoC5/ErikaOS_ee_oo_internal.inc ****   {
 671:Generated_Source\PSoC5/ErikaOS_ee_oo_internal.inc ****     if ( rq != EE_NIL ) {
 128              		.loc 3 671 0
 129 004c B0F1FF3F 		cmp	r0, #-1
 130 0050 31D0     		beq	.L9
 672:Generated_Source\PSoC5/ErikaOS_ee_oo_internal.inc ****       /* We check if the system ceiling is greater or not the first task
 673:Generated_Source\PSoC5/ErikaOS_ee_oo_internal.inc ****          in the ready queue */
 674:Generated_Source\PSoC5/ErikaOS_ee_oo_internal.inc ****       if ( EE_sys_ceiling < EE_th_ready_prio[rq] ) {
 131              		.loc 3 674 0
 132 0052 214B     		ldr	r3, .L12+20
 133 0054 53F82020 		ldr	r2, [r3, r0, lsl #2]
 134 0058 204B     		ldr	r3, .L12+24
 135 005a 1B68     		ldr	r3, [r3]
 136 005c 9A42     		cmp	r2, r3
 137 005e 2CD9     		bls	.L10
 675:Generated_Source\PSoC5/ErikaOS_ee_oo_internal.inc **** 
 676:Generated_Source\PSoC5/ErikaOS_ee_oo_internal.inc ****         if ( current != EE_NIL ) {
 138              		.loc 3 676 0
 139 0060 B4F1FF3F 		cmp	r4, #-1
 140 0064 03D0     		beq	.L4
ARM GAS  C:\Users\rbhar\AppData\Local\Temp\ccK3IQqW.s 			page 24


 677:Generated_Source\PSoC5/ErikaOS_ee_oo_internal.inc ****           EE_oo_call_PostTaskHook();
 678:Generated_Source\PSoC5/ErikaOS_ee_oo_internal.inc ****           /* We have to put the task in the READY status */
 679:Generated_Source\PSoC5/ErikaOS_ee_oo_internal.inc ****           EE_th_status[current] = READY;
 141              		.loc 3 679 0
 142 0066 0221     		movs	r1, #2
 143 0068 174A     		ldr	r2, .L12+4
 144 006a 42F82410 		str	r1, [r2, r4, lsl #2]
 145              	.L4:
 680:Generated_Source\PSoC5/ErikaOS_ee_oo_internal.inc ****           /* !!! BUT NOT IN THE READY QUEUE !!!
 681:Generated_Source\PSoC5/ErikaOS_ee_oo_internal.inc ****              The task remains into the Stacked Queue! */
 682:Generated_Source\PSoC5/ErikaOS_ee_oo_internal.inc ****         }
 683:Generated_Source\PSoC5/ErikaOS_ee_oo_internal.inc **** 
 684:Generated_Source\PSoC5/ErikaOS_ee_oo_internal.inc ****         /* Get the new internal resource */
 685:Generated_Source\PSoC5/ErikaOS_ee_oo_internal.inc ****         EE_sys_ceiling |= EE_th_dispatch_prio[rq];
 146              		.loc 3 685 0
 147 006e 1C4A     		ldr	r2, .L12+28
 148 0070 52F82020 		ldr	r2, [r2, r0, lsl #2]
 149 0074 1343     		orrs	r3, r3, r2
 150 0076 194A     		ldr	r2, .L12+24
 151 0078 1360     		str	r3, [r2]
 686:Generated_Source\PSoC5/ErikaOS_ee_oo_internal.inc ****         /* Put the task in running state */
 687:Generated_Source\PSoC5/ErikaOS_ee_oo_internal.inc ****         EE_th_status[rq] = RUNNING;
 152              		.loc 3 687 0
 153 007a 0022     		movs	r2, #0
 154 007c 124B     		ldr	r3, .L12+4
 155 007e 43F82020 		str	r2, [r3, r0, lsl #2]
 156              	.LBB85:
 157              	.LBB86:
 566:Generated_Source\PSoC5/ErikaOS_ee_oo_internal.inc ****     if ( EE_th_waswaiting[tmp] ) {
 158              		.loc 3 566 0
 159 0082 FFF7FEFF 		bl	EE_rq2stk_exchange
 160              	.LVL9:
 567:Generated_Source\PSoC5/ErikaOS_ee_oo_internal.inc ****       /* if the task was waiting switch the context to restart it */
 161              		.loc 3 567 0
 162 0086 174B     		ldr	r3, .L12+32
 163 0088 53F82030 		ldr	r3, [r3, r0, lsl #2]
 164 008c 4BB1     		cbz	r3, .L5
 569:Generated_Source\PSoC5/ErikaOS_ee_oo_internal.inc ****       /* Call the PreTaskHook, here no stub will do that for you */
 165              		.loc 3 569 0
 166 008e 0024     		movs	r4, #0
 167 0090 144B     		ldr	r3, .L12+32
 168 0092 43F82040 		str	r4, [r3, r0, lsl #2]
 169              	.LVL10:
 170              	.LBB87:
 171              	.LBB88:
 172              		.file 5 "Generated_Source\\PSoC5\\ErikaOS_cortex_mx_ee_context.inc"
   1:Generated_Source\PSoC5/ErikaOS_cortex_mx_ee_context.inc **** /* ###*B*###
   2:Generated_Source\PSoC5/ErikaOS_cortex_mx_ee_context.inc ****  * ERIKA Enterprise - a tiny RTOS for small microcontrollers
   3:Generated_Source\PSoC5/ErikaOS_cortex_mx_ee_context.inc ****  *
   4:Generated_Source\PSoC5/ErikaOS_cortex_mx_ee_context.inc ****  * Copyright (C) 2002-2011  Evidence Srl
   5:Generated_Source\PSoC5/ErikaOS_cortex_mx_ee_context.inc ****  *
   6:Generated_Source\PSoC5/ErikaOS_cortex_mx_ee_context.inc ****  * This file is part of ERIKA Enterprise.
   7:Generated_Source\PSoC5/ErikaOS_cortex_mx_ee_context.inc ****  *
   8:Generated_Source\PSoC5/ErikaOS_cortex_mx_ee_context.inc ****  * ERIKA Enterprise is free software; you can redistribute it
   9:Generated_Source\PSoC5/ErikaOS_cortex_mx_ee_context.inc ****  * and/or modify it under the terms of the GNU General Public License
  10:Generated_Source\PSoC5/ErikaOS_cortex_mx_ee_context.inc ****  * version 2 as published by the Free Software Foundation, 
  11:Generated_Source\PSoC5/ErikaOS_cortex_mx_ee_context.inc ****  * (with a special exception described below).
ARM GAS  C:\Users\rbhar\AppData\Local\Temp\ccK3IQqW.s 			page 25


  12:Generated_Source\PSoC5/ErikaOS_cortex_mx_ee_context.inc ****  *
  13:Generated_Source\PSoC5/ErikaOS_cortex_mx_ee_context.inc ****  * Linking this code statically or dynamically with other modules is
  14:Generated_Source\PSoC5/ErikaOS_cortex_mx_ee_context.inc ****  * making a combined work based on this code.  Thus, the terms and
  15:Generated_Source\PSoC5/ErikaOS_cortex_mx_ee_context.inc ****  * conditions of the GNU General Public License cover the whole
  16:Generated_Source\PSoC5/ErikaOS_cortex_mx_ee_context.inc ****  * combination.
  17:Generated_Source\PSoC5/ErikaOS_cortex_mx_ee_context.inc ****  *
  18:Generated_Source\PSoC5/ErikaOS_cortex_mx_ee_context.inc ****  * As a special exception, the copyright holders of this library give you
  19:Generated_Source\PSoC5/ErikaOS_cortex_mx_ee_context.inc ****  * permission to link this code with independent modules to produce an
  20:Generated_Source\PSoC5/ErikaOS_cortex_mx_ee_context.inc ****  * executable, regardless of the license terms of these independent
  21:Generated_Source\PSoC5/ErikaOS_cortex_mx_ee_context.inc ****  * modules, and to copy and distribute the resulting executable under
  22:Generated_Source\PSoC5/ErikaOS_cortex_mx_ee_context.inc ****  * terms of your choice, provided that you also meet, for each linked
  23:Generated_Source\PSoC5/ErikaOS_cortex_mx_ee_context.inc ****  * independent module, the terms and conditions of the license of that
  24:Generated_Source\PSoC5/ErikaOS_cortex_mx_ee_context.inc ****  * module.  An independent module is a module which is not derived from
  25:Generated_Source\PSoC5/ErikaOS_cortex_mx_ee_context.inc ****  * or based on this library.  If you modify this code, you may extend
  26:Generated_Source\PSoC5/ErikaOS_cortex_mx_ee_context.inc ****  * this exception to your version of the code, but you are not
  27:Generated_Source\PSoC5/ErikaOS_cortex_mx_ee_context.inc ****  * obligated to do so.  If you do not wish to do so, delete this
  28:Generated_Source\PSoC5/ErikaOS_cortex_mx_ee_context.inc ****  * exception statement from your version.
  29:Generated_Source\PSoC5/ErikaOS_cortex_mx_ee_context.inc ****  *
  30:Generated_Source\PSoC5/ErikaOS_cortex_mx_ee_context.inc ****  * ERIKA Enterprise is distributed in the hope that it will be
  31:Generated_Source\PSoC5/ErikaOS_cortex_mx_ee_context.inc ****  * useful, but WITHOUT ANY WARRANTY; without even the implied warranty
  32:Generated_Source\PSoC5/ErikaOS_cortex_mx_ee_context.inc ****  * of MERCHANTABILITY or FITNESS FOR A PARTICULAR PURPOSE.  See the
  33:Generated_Source\PSoC5/ErikaOS_cortex_mx_ee_context.inc ****  * GNU General Public License version 2 for more details.
  34:Generated_Source\PSoC5/ErikaOS_cortex_mx_ee_context.inc ****  *
  35:Generated_Source\PSoC5/ErikaOS_cortex_mx_ee_context.inc ****  * You should have received a copy of the GNU General Public License
  36:Generated_Source\PSoC5/ErikaOS_cortex_mx_ee_context.inc ****  * version 2 along with ERIKA Enterprise; if not, write to the
  37:Generated_Source\PSoC5/ErikaOS_cortex_mx_ee_context.inc ****  * Free Software Foundation, Inc., 51 Franklin Street, Fifth Floor,
  38:Generated_Source\PSoC5/ErikaOS_cortex_mx_ee_context.inc ****  * Boston, MA 02110-1301 USA.
  39:Generated_Source\PSoC5/ErikaOS_cortex_mx_ee_context.inc ****  * ###*E*### */
  40:Generated_Source\PSoC5/ErikaOS_cortex_mx_ee_context.inc **** 
  41:Generated_Source\PSoC5/ErikaOS_cortex_mx_ee_context.inc **** /** 
  42:Generated_Source\PSoC5/ErikaOS_cortex_mx_ee_context.inc **** 	@file ee_internal.h
  43:Generated_Source\PSoC5/ErikaOS_cortex_mx_ee_context.inc **** 	@brief Derived from cpu/common/inc/ee_internal.h
  44:Generated_Source\PSoC5/ErikaOS_cortex_mx_ee_context.inc **** 	@author Gianluca Franchino
  45:Generated_Source\PSoC5/ErikaOS_cortex_mx_ee_context.inc **** 	@author Giuseppe Serano
  46:Generated_Source\PSoC5/ErikaOS_cortex_mx_ee_context.inc **** 	@date 2011
  47:Generated_Source\PSoC5/ErikaOS_cortex_mx_ee_context.inc **** */  
  48:Generated_Source\PSoC5/ErikaOS_cortex_mx_ee_context.inc ****     
  49:Generated_Source\PSoC5/ErikaOS_cortex_mx_ee_context.inc **** /*
  50:Generated_Source\PSoC5/ErikaOS_cortex_mx_ee_context.inc ****  * PSoC Port and API Generation
  51:Generated_Source\PSoC5/ErikaOS_cortex_mx_ee_context.inc ****  * Carlos Fernando Meier Martinez
  52:Generated_Source\PSoC5/ErikaOS_cortex_mx_ee_context.inc ****  * Hochschule Darmstadt, Germany. 2017.
  53:Generated_Source\PSoC5/ErikaOS_cortex_mx_ee_context.inc ****  */
  54:Generated_Source\PSoC5/ErikaOS_cortex_mx_ee_context.inc **** 
  55:Generated_Source\PSoC5/ErikaOS_cortex_mx_ee_context.inc **** #ifndef __INCLUDE_CPU_CORTEX_MX_EE_CONTEXT__
  56:Generated_Source\PSoC5/ErikaOS_cortex_mx_ee_context.inc **** #define __INCLUDE_CPU_CORTEX_MX_EE_CONTEXT__
  57:Generated_Source\PSoC5/ErikaOS_cortex_mx_ee_context.inc **** 
  58:Generated_Source\PSoC5/ErikaOS_cortex_mx_ee_context.inc **** /*
  59:Generated_Source\PSoC5/ErikaOS_cortex_mx_ee_context.inc ****  * Instructions
  60:Generated_Source\PSoC5/ErikaOS_cortex_mx_ee_context.inc ****  *
  61:Generated_Source\PSoC5/ErikaOS_cortex_mx_ee_context.inc ****  * The monostack part is complete (obviously, the functions to disable/enable
  62:Generated_Source\PSoC5/ErikaOS_cortex_mx_ee_context.inc ****  *  interrupts are not included here).  For the multistack part you have to
  63:Generated_Source\PSoC5/ErikaOS_cortex_mx_ee_context.inc ****  *  provide two additional things:
  64:Generated_Source\PSoC5/ErikaOS_cortex_mx_ee_context.inc ****  *  1. An assembly implementation of EE_std_change_context_multi(); see below.
  65:Generated_Source\PSoC5/ErikaOS_cortex_mx_ee_context.inc ****  *  2. A #define directive for EE_hal_active_tos, which is just an alias for the
  66:Generated_Source\PSoC5/ErikaOS_cortex_mx_ee_context.inc ****  *  actual architecture-dependent variable.  This variable contains the index of
  67:Generated_Source\PSoC5/ErikaOS_cortex_mx_ee_context.inc ****  *  the current stack.
  68:Generated_Source\PSoC5/ErikaOS_cortex_mx_ee_context.inc ****  */
ARM GAS  C:\Users\rbhar\AppData\Local\Temp\ccK3IQqW.s 			page 26


  69:Generated_Source\PSoC5/ErikaOS_cortex_mx_ee_context.inc **** 
  70:Generated_Source\PSoC5/ErikaOS_cortex_mx_ee_context.inc **** /* After a task terminates, the scheduler puts the id of the new task to launch
  71:Generated_Source\PSoC5/ErikaOS_cortex_mx_ee_context.inc ****  * or switch to in this variable.  If the is stacked, its id is marked so. */
  72:Generated_Source\PSoC5/ErikaOS_cortex_mx_ee_context.inc **** extern EE_TID EE_std_endcycle_next_tid;
  73:Generated_Source\PSoC5/ErikaOS_cortex_mx_ee_context.inc **** 
  74:Generated_Source\PSoC5/ErikaOS_cortex_mx_ee_context.inc **** /* The multistack version must be implemented in ASM; no standard
  75:Generated_Source\PSoC5/ErikaOS_cortex_mx_ee_context.inc ****  * implementation, sorry.  This is the only function that performs context
  76:Generated_Source\PSoC5/ErikaOS_cortex_mx_ee_context.inc ****  * switching.  The multistack version doesn't jump to the task body if its TID
  77:Generated_Source\PSoC5/ErikaOS_cortex_mx_ee_context.inc ****  * has been maked as stacked.  This is used to switch to a task that has been
  78:Generated_Source\PSoC5/ErikaOS_cortex_mx_ee_context.inc ****  * suspend by a previous call to EE_std_change_contex(). */
  79:Generated_Source\PSoC5/ErikaOS_cortex_mx_ee_context.inc **** void EE_cortex_mx_change_context(EE_TID tid);
  80:Generated_Source\PSoC5/ErikaOS_cortex_mx_ee_context.inc **** /* Pseudo code for EE_std_change_context_multi():
  81:Generated_Source\PSoC5/ErikaOS_cortex_mx_ee_context.inc ****      begin:
  82:Generated_Source\PSoC5/ErikaOS_cortex_mx_ee_context.inc ****       tos_index = EE_std_thread_tos[tid+1];
  83:Generated_Source\PSoC5/ErikaOS_cortex_mx_ee_context.inc ****       if is_not_the_current_stack(tos_index) {
  84:Generated_Source\PSoC5/ErikaOS_cortex_mx_ee_context.inc ****           save_caller_saved_registers();
  85:Generated_Source\PSoC5/ErikaOS_cortex_mx_ee_context.inc ****           switch_stacks(tos_index);
  86:Generated_Source\PSoC5/ErikaOS_cortex_mx_ee_context.inc ****           restore_caller_saved_registers();
  87:Generated_Source\PSoC5/ErikaOS_cortex_mx_ee_context.inc ****       }
  88:Generated_Source\PSoC5/ErikaOS_cortex_mx_ee_context.inc ****       if (is_not_marked_stacked(tid)) {
  89:Generated_Source\PSoC5/ErikaOS_cortex_mx_ee_context.inc ****           tid = EE_std_run_task_code(tid);
  90:Generated_Source\PSoC5/ErikaOS_cortex_mx_ee_context.inc ****           goto begin;
  91:Generated_Source\PSoC5/ErikaOS_cortex_mx_ee_context.inc ****       }
  92:Generated_Source\PSoC5/ErikaOS_cortex_mx_ee_context.inc **** 
  93:Generated_Source\PSoC5/ErikaOS_cortex_mx_ee_context.inc ****       Please notice that the "goto begin" is actually a recursive call to
  94:Generated_Source\PSoC5/ErikaOS_cortex_mx_ee_context.inc ****       EE_std_change_context_multi(), but in this way there is no stack growing.
  95:Generated_Source\PSoC5/ErikaOS_cortex_mx_ee_context.inc ****       
  96:Generated_Source\PSoC5/ErikaOS_cortex_mx_ee_context.inc ****       Please notice also that 'tid' must NOT be saved onto the stack before
  97:Generated_Source\PSoC5/ErikaOS_cortex_mx_ee_context.inc ****       switching stacks, otherwise when switching from another stack back to the
  98:Generated_Source\PSoC5/ErikaOS_cortex_mx_ee_context.inc ****       current one, you would overwrite its value.
  99:Generated_Source\PSoC5/ErikaOS_cortex_mx_ee_context.inc **** 
 100:Generated_Source\PSoC5/ErikaOS_cortex_mx_ee_context.inc ****       For processors where the return address is saved in a register, that
 101:Generated_Source\PSoC5/ErikaOS_cortex_mx_ee_context.inc ****       register must be saved in the stack too.
 102:Generated_Source\PSoC5/ErikaOS_cortex_mx_ee_context.inc **** 
 103:Generated_Source\PSoC5/ErikaOS_cortex_mx_ee_context.inc ****       switch_stacks() should also update EE_hal_active_tos.
 104:Generated_Source\PSoC5/ErikaOS_cortex_mx_ee_context.inc **** */
 105:Generated_Source\PSoC5/ErikaOS_cortex_mx_ee_context.inc **** 
 106:Generated_Source\PSoC5/ErikaOS_cortex_mx_ee_context.inc **** /* Call a the body of a task */
 107:Generated_Source\PSoC5/ErikaOS_cortex_mx_ee_context.inc **** #if defined(__OO_BCC1__) || defined(__OO_BCC2__) || \
 108:Generated_Source\PSoC5/ErikaOS_cortex_mx_ee_context.inc ****  defined(__OO_ECC1__) || defined(__OO_ECC2__)
 109:Generated_Source\PSoC5/ErikaOS_cortex_mx_ee_context.inc **** #define EE_call_task_body(tid)  EE_oo_thread_stub()
 110:Generated_Source\PSoC5/ErikaOS_cortex_mx_ee_context.inc **** #else
 111:Generated_Source\PSoC5/ErikaOS_cortex_mx_ee_context.inc **** #define EE_call_task_body(tid)  (((void (*)(void))EE_hal_thread_body[tid])())
 112:Generated_Source\PSoC5/ErikaOS_cortex_mx_ee_context.inc **** #endif
 113:Generated_Source\PSoC5/ErikaOS_cortex_mx_ee_context.inc **** 
 114:Generated_Source\PSoC5/ErikaOS_cortex_mx_ee_context.inc **** 
 115:Generated_Source\PSoC5/ErikaOS_cortex_mx_ee_context.inc **** /* Launch a new task, possibly switching to a different stack, clean up the task
 116:Generated_Source\PSoC5/ErikaOS_cortex_mx_ee_context.inc ****  * after it ends, and call the scheduler (and switch to other tasks/stacks)
 117:Generated_Source\PSoC5/ErikaOS_cortex_mx_ee_context.inc ****  * until there are no more tasks to switch to.  In the multistack version, also
 118:Generated_Source\PSoC5/ErikaOS_cortex_mx_ee_context.inc ****  * change the current stack before returning if the scheduler asks for it. */
 119:Generated_Source\PSoC5/ErikaOS_cortex_mx_ee_context.inc **** __DECLARE_INLINE__ void EE_hal_ready2stacked(EE_TID tid);
 120:Generated_Source\PSoC5/ErikaOS_cortex_mx_ee_context.inc **** 
 121:Generated_Source\PSoC5/ErikaOS_cortex_mx_ee_context.inc **** 
 122:Generated_Source\PSoC5/ErikaOS_cortex_mx_ee_context.inc **** /* Launch a new task on the current stack, clean up the task after it ends, and
 123:Generated_Source\PSoC5/ErikaOS_cortex_mx_ee_context.inc ****  * call the scheduler.  Return the next task to launch, which is "marked as
 124:Generated_Source\PSoC5/ErikaOS_cortex_mx_ee_context.inc ****  * stacked" if there is no new task to launch. */
 125:Generated_Source\PSoC5/ErikaOS_cortex_mx_ee_context.inc **** EE_TID EE_std_run_task_code(EE_TID tid);
ARM GAS  C:\Users\rbhar\AppData\Local\Temp\ccK3IQqW.s 			page 27


 126:Generated_Source\PSoC5/ErikaOS_cortex_mx_ee_context.inc **** 
 127:Generated_Source\PSoC5/ErikaOS_cortex_mx_ee_context.inc **** 
 128:Generated_Source\PSoC5/ErikaOS_cortex_mx_ee_context.inc **** /*
 129:Generated_Source\PSoC5/ErikaOS_cortex_mx_ee_context.inc ****  * Inline implementations
 130:Generated_Source\PSoC5/ErikaOS_cortex_mx_ee_context.inc ****  */
 131:Generated_Source\PSoC5/ErikaOS_cortex_mx_ee_context.inc **** 
 132:Generated_Source\PSoC5/ErikaOS_cortex_mx_ee_context.inc **** 
 133:Generated_Source\PSoC5/ErikaOS_cortex_mx_ee_context.inc **** #ifdef __MONO__
 134:Generated_Source\PSoC5/ErikaOS_cortex_mx_ee_context.inc **** 
 135:Generated_Source\PSoC5/ErikaOS_cortex_mx_ee_context.inc **** /* With monostack, we need only the information that the task is stacked.  We
 136:Generated_Source\PSoC5/ErikaOS_cortex_mx_ee_context.inc ****  * don't need to know which task it is, as there is no new stack to switch
 137:Generated_Source\PSoC5/ErikaOS_cortex_mx_ee_context.inc ****  * to. */
 138:Generated_Source\PSoC5/ErikaOS_cortex_mx_ee_context.inc **** #define EE_std_mark_tid_stacked(tid) ((EE_TID)-1)
 139:Generated_Source\PSoC5/ErikaOS_cortex_mx_ee_context.inc **** 
 140:Generated_Source\PSoC5/ErikaOS_cortex_mx_ee_context.inc **** #define EE_std_need_context_change(tid) ((tid) >= 0)
 141:Generated_Source\PSoC5/ErikaOS_cortex_mx_ee_context.inc **** 
 142:Generated_Source\PSoC5/ErikaOS_cortex_mx_ee_context.inc **** #endif /* __MONO__ */
 143:Generated_Source\PSoC5/ErikaOS_cortex_mx_ee_context.inc **** 
 144:Generated_Source\PSoC5/ErikaOS_cortex_mx_ee_context.inc **** 
 145:Generated_Source\PSoC5/ErikaOS_cortex_mx_ee_context.inc **** #ifdef __MULTI__
 146:Generated_Source\PSoC5/ErikaOS_cortex_mx_ee_context.inc **** 
 147:Generated_Source\PSoC5/ErikaOS_cortex_mx_ee_context.inc **** /* TID_IS_STACKED_MARK must set the most significative bit */
 148:Generated_Source\PSoC5/ErikaOS_cortex_mx_ee_context.inc **** #define EE_std_mark_tid_stacked(tid) ((tid) | (EE_TID)TID_IS_STACKED_MARK)
 149:Generated_Source\PSoC5/ErikaOS_cortex_mx_ee_context.inc **** 
 150:Generated_Source\PSoC5/ErikaOS_cortex_mx_ee_context.inc **** extern int EE_std_need_context_change(EE_TID tid);
 151:Generated_Source\PSoC5/ErikaOS_cortex_mx_ee_context.inc **** 
 152:Generated_Source\PSoC5/ErikaOS_cortex_mx_ee_context.inc **** __INLINE__ void  EE_hal_stkchange(EE_TID tid)
 153:Generated_Source\PSoC5/ErikaOS_cortex_mx_ee_context.inc **** {
 154:Generated_Source\PSoC5/ErikaOS_cortex_mx_ee_context.inc ****     EE_cortex_mx_change_context(EE_std_mark_tid_stacked(tid));
 173              		.loc 5 154 0
 174 0096 40F00040 		orr	r0, r0, #-2147483648
 175              	.LVL11:
 176 009a FFF7FEFF 		bl	EE_cortex_mx_change_context
 177              	.LVL12:
 178              	.LBE88:
 179              	.LBE87:
 180              	.LBE86:
 181              	.LBE85:
 182              	.LBE82:
 183              	.LBE81:
 152:Generated_Source\PSoC5/ErikaOS_ee_activate.c ****           /* we are inside a task */
 153:Generated_Source\PSoC5/ErikaOS_ee_activate.c ****           EE_oo_preemption_point();
 154:Generated_Source\PSoC5/ErikaOS_ee_activate.c ****         }
 155:Generated_Source\PSoC5/ErikaOS_ee_activate.c ****       }
 156:Generated_Source\PSoC5/ErikaOS_ee_activate.c ****       ev = E_OK;
 184              		.loc 1 156 0
 185 009e 2046     		mov	r0, r4
 186 00a0 0CE0     		b	.L2
 187              	.LVL13:
 188              	.L5:
 189              	.LBB94:
 190              	.LBB93:
 191              	.LBB92:
 192              	.LBB91:
 193              	.LBB89:
 194              	.LBB90:
 155:Generated_Source\PSoC5/ErikaOS_cortex_mx_ee_context.inc **** }
ARM GAS  C:\Users\rbhar\AppData\Local\Temp\ccK3IQqW.s 			page 28


 156:Generated_Source\PSoC5/ErikaOS_cortex_mx_ee_context.inc **** 
 157:Generated_Source\PSoC5/ErikaOS_cortex_mx_ee_context.inc **** #endif /* __MULTI__ */
 158:Generated_Source\PSoC5/ErikaOS_cortex_mx_ee_context.inc **** 
 159:Generated_Source\PSoC5/ErikaOS_cortex_mx_ee_context.inc **** 
 160:Generated_Source\PSoC5/ErikaOS_cortex_mx_ee_context.inc **** /* The functions below should work for both the monostack and multistack
 161:Generated_Source\PSoC5/ErikaOS_cortex_mx_ee_context.inc ****  * versions of the kernel, thanks to the macros defined above.  In the mono
 162:Generated_Source\PSoC5/ErikaOS_cortex_mx_ee_context.inc ****  * version, all the stack-related stuff is ignored. */
 163:Generated_Source\PSoC5/ErikaOS_cortex_mx_ee_context.inc **** 
 164:Generated_Source\PSoC5/ErikaOS_cortex_mx_ee_context.inc **** 
 165:Generated_Source\PSoC5/ErikaOS_cortex_mx_ee_context.inc **** __INLINE__ void  EE_hal_ready2stacked(EE_TID tid)
 166:Generated_Source\PSoC5/ErikaOS_cortex_mx_ee_context.inc **** {
 167:Generated_Source\PSoC5/ErikaOS_cortex_mx_ee_context.inc ****     EE_cortex_mx_change_context(tid);
 195              		.loc 5 167 0
 196 00a2 FFF7FEFF 		bl	EE_cortex_mx_change_context
 197              	.LVL14:
 198              	.LBE90:
 199              	.LBE89:
 200              	.LBE91:
 201              	.LBE92:
 202              	.LBE93:
 203              	.LBE94:
 204              		.loc 1 156 0
 205 00a6 0020     		movs	r0, #0
 206 00a8 08E0     		b	.L2
 207              	.LVL15:
 208              	.L6:
 128:Generated_Source\PSoC5/ErikaOS_ee_activate.c ****     } else
 209              		.loc 1 128 0
 210 00aa 0320     		movs	r0, #3
 211              	.LVL16:
 212 00ac 06E0     		b	.L2
 213              	.LVL17:
 214              	.L7:
 134:Generated_Source\PSoC5/ErikaOS_ee_activate.c ****     } else {
 215              		.loc 1 134 0
 216 00ae 0420     		movs	r0, #4
 217              	.LVL18:
 218 00b0 04E0     		b	.L2
 219              	.L8:
 220              		.loc 1 156 0
 221 00b2 0020     		movs	r0, #0
 222 00b4 02E0     		b	.L2
 223              	.LVL19:
 224              	.L9:
 225 00b6 0020     		movs	r0, #0
 226              	.LVL20:
 227 00b8 00E0     		b	.L2
 228              	.LVL21:
 229              	.L10:
 230 00ba 0020     		movs	r0, #0
 231              	.LVL22:
 232              	.L2:
 233              	.LBB95:
 234              	.LBB96:
 235              	.LBB97:
 232:Generated_Source\PSoC5/ErikaOS_cortex_mx_ee_cpu.inc **** #endif	/* !__KEIL__ */
 236              		.loc 2 232 0
ARM GAS  C:\Users\rbhar\AppData\Local\Temp\ccK3IQqW.s 			page 29


 237              		.syntax unified
 238              	@ 232 "Generated_Source\PSoC5\ErikaOS_cortex_mx_ee_cpu.inc" 1
 239 00bc 85F31088 		msr primask, r5
 240              	@ 0 "" 2
 241              	.LVL23:
 242              		.thumb
 243              		.syntax unified
 244              	.LBE97:
 245              	.LBE96:
 246              	.LBE95:
 157:Generated_Source\PSoC5/ErikaOS_ee_activate.c ****     }
 158:Generated_Source\PSoC5/ErikaOS_ee_activate.c **** #if (defined(__RN_TASK__)) || (defined(EE_AS_RPC__))
 159:Generated_Source\PSoC5/ErikaOS_ee_activate.c ****   }
 160:Generated_Source\PSoC5/ErikaOS_ee_activate.c **** #endif /* __RN_TASK__ || EE_AS_RPC__ */
 161:Generated_Source\PSoC5/ErikaOS_ee_activate.c **** 
 162:Generated_Source\PSoC5/ErikaOS_ee_activate.c ****   if ( ev != E_OK ) {
 163:Generated_Source\PSoC5/ErikaOS_ee_activate.c ****     EE_ORTI_set_lasterror(ev);
 164:Generated_Source\PSoC5/ErikaOS_ee_activate.c ****     EE_oo_notify_error_ActivateTask(TaskID, ev);
 165:Generated_Source\PSoC5/ErikaOS_ee_activate.c ****   }
 166:Generated_Source\PSoC5/ErikaOS_ee_activate.c **** 
 167:Generated_Source\PSoC5/ErikaOS_ee_activate.c ****   EE_ORTI_set_service_out(EE_SERVICETRACE_ACTIVATETASK);
 168:Generated_Source\PSoC5/ErikaOS_ee_activate.c ****   EE_OS_EXIT_CRITICAL_SECTION();
 169:Generated_Source\PSoC5/ErikaOS_ee_activate.c **** 
 170:Generated_Source\PSoC5/ErikaOS_ee_activate.c ****   return ev;
 171:Generated_Source\PSoC5/ErikaOS_ee_activate.c **** }
 247              		.loc 1 171 0
 248 00c0 38BD     		pop	{r3, r4, r5, pc}
 249              	.L13:
 250 00c2 00BF     		.align	2
 251              	.L12:
 252 00c4 00000000 		.word	EE_th_rnact
 253 00c8 00000000 		.word	EE_th_status
 254 00cc 00000000 		.word	EE_th_event_active
 255 00d0 00000000 		.word	EE_IRQ_nesting_level
 256 00d4 00000000 		.word	EE_stkfirst
 257 00d8 00000000 		.word	EE_th_ready_prio
 258 00dc 00000000 		.word	EE_sys_ceiling
 259 00e0 00000000 		.word	EE_th_dispatch_prio
 260 00e4 00000000 		.word	EE_th_waswaiting
 261              		.cfi_endproc
 262              	.LFE59:
 263              		.size	EE_oo_ActivateTask, .-EE_oo_ActivateTask
 264              		.text
 265              	.Letext0:
 266              		.file 6 "Generated_Source\\PSoC5\\ErikaOS_common_ee_types.inc"
 267              		.file 7 "Generated_Source\\PSoC5\\ErikaOS_ee_oo_common.inc"
 268              		.file 8 "Generated_Source\\PSoC5\\ErikaOS_ee_as_internal.inc"
 269              		.file 9 "Generated_Source\\PSoC5\\ErikaOS_cortex_mx_ee_internal.inc"
 270              		.file 10 "Generated_Source\\PSoC5\\ErikaOS_ee_oo_intfunc.inc"