ARM GAS  C:\Users\rbhar\AppData\Local\Temp\ccdW0VWP.s 			page 1


   1              		.syntax unified
   2              		.cpu cortex-m3
   3              		.fpu softvfp
   4              		.eabi_attribute 20, 1
   5              		.eabi_attribute 21, 1
   6              		.eabi_attribute 23, 3
   7              		.eabi_attribute 24, 1
   8              		.eabi_attribute 25, 1
   9              		.eabi_attribute 26, 1
  10              		.eabi_attribute 30, 1
  11              		.eabi_attribute 34, 1
  12              		.eabi_attribute 18, 4
  13              		.thumb
  14              		.syntax unified
  15              		.file	"pwm.c"
  16              		.text
  17              	.Ltext0:
  18              		.cfi_sections	.debug_frame
  19              		.section	.text.PWM_Init,"ax",%progbits
  20              		.align	2
  21              		.global	PWM_Init
  22              		.thumb
  23              		.thumb_func
  24              		.type	PWM_Init, %function
  25              	PWM_Init:
  26              	.LFB110:
  27              		.file 1 "source\\bsw\\pwm.c"
   1:source\bsw/pwm.c **** /**
   2:source\bsw/pwm.c **** * \file <pwm.c>
   3:source\bsw/pwm.c **** * \author <Bharath Ramachandraiah>
   4:source\bsw/pwm.c **** * \date <25/09/2018>
   5:source\bsw/pwm.c **** *
   6:source\bsw/pwm.c **** * \brief <Symbolic File name>
   7:source\bsw/pwm.c **** *
   8:source\bsw/pwm.c **** * \copyright Copyright ©2016
   9:source\bsw/pwm.c **** * Department of electrical engineering and information technology, Hochschule Darmstadt - Universit
  10:source\bsw/pwm.c **** * Permission to use, copy, modify, and distribute this software and its documentation for education
  11:source\bsw/pwm.c **** * (unless permitted by h_da) and official h_da projects, is hereby granted for enrolled students of
  12:source\bsw/pwm.c **** * this paragraph and the following paragraph appear in all copies, modifications, and distributions
  13:source\bsw/pwm.c **** * Contact Prof.Dr.-Ing. Peter Fromm, peter.fromm@h-da.de, Birkenweg 8 64295 Darmstadt - GERMANY for
  14:source\bsw/pwm.c **** *
  15:source\bsw/pwm.c **** * \warning This software is a PROTOTYPE version and is not designed or intended for use in producti
  16:source\bsw/pwm.c **** * The user represents and warrants that it will NOT use or redistribute the Software for such purpo
  17:source\bsw/pwm.c **** * This prototype is for research purposes only. This software is provided "AS IS," without a warran
  18:source\bsw/pwm.c **** */
  19:source\bsw/pwm.c **** 
  20:source\bsw/pwm.c **** /*****************************************************************************/
  21:source\bsw/pwm.c **** /* Include files                                                             */
  22:source\bsw/pwm.c **** /*****************************************************************************/
  23:source\bsw/pwm.c **** #include "pwm.h"
  24:source\bsw/pwm.c **** 
  25:source\bsw/pwm.c **** /*****************************************************************************/
  26:source\bsw/pwm.c **** /* Local pre-processor symbols/macros ('#define')                            */
  27:source\bsw/pwm.c **** /*****************************************************************************/
  28:source\bsw/pwm.c **** 
  29:source\bsw/pwm.c **** /*****************************************************************************/
  30:source\bsw/pwm.c **** /* Global variable definitions (declared in header file with 'extern')       */
ARM GAS  C:\Users\rbhar\AppData\Local\Temp\ccdW0VWP.s 			page 2


  31:source\bsw/pwm.c **** /*****************************************************************************/
  32:source\bsw/pwm.c **** 
  33:source\bsw/pwm.c **** /*****************************************************************************/
  34:source\bsw/pwm.c **** /* Local type definitions ('typedef')                                        */
  35:source\bsw/pwm.c **** /*****************************************************************************/
  36:source\bsw/pwm.c **** 
  37:source\bsw/pwm.c **** /*****************************************************************************/
  38:source\bsw/pwm.c **** /* Local variable definitions ('static')                                     */
  39:source\bsw/pwm.c **** /*****************************************************************************/
  40:source\bsw/pwm.c **** 
  41:source\bsw/pwm.c **** 
  42:source\bsw/pwm.c **** 
  43:source\bsw/pwm.c **** /*****************************************************************************/
  44:source\bsw/pwm.c **** /* Local function prototypes ('static')                                      */
  45:source\bsw/pwm.c **** /*****************************************************************************/
  46:source\bsw/pwm.c **** 
  47:source\bsw/pwm.c **** 
  48:source\bsw/pwm.c **** /*****************************************************************************/
  49:source\bsw/pwm.c **** /* Function implementation - global ('extern') and local ('static')          */
  50:source\bsw/pwm.c **** /*****************************************************************************/
  51:source\bsw/pwm.c **** 
  52:source\bsw/pwm.c **** /**
  53:source\bsw/pwm.c ****  * A function initializes the PWM
  54:source\bsw/pwm.c ****  * @param void
  55:source\bsw/pwm.c ****  * @return RC_SUCCESS on successful initialization
  56:source\bsw/pwm.c ****  */
  57:source\bsw/pwm.c **** RC_t PWM_Init(void)
  58:source\bsw/pwm.c **** {
  28              		.loc 1 58 0
  29              		.cfi_startproc
  30              		@ args = 0, pretend = 0, frame = 0
  31              		@ frame_needed = 0, uses_anonymous_args = 0
  32 0000 08B5     		push	{r3, lr}
  33              		.cfi_def_cfa_offset 8
  34              		.cfi_offset 3, -8
  35              		.cfi_offset 14, -4
  59:source\bsw/pwm.c ****     PWM_Red_Start();
  36              		.loc 1 59 0
  37 0002 FFF7FEFF 		bl	PWM_Red_Start
  38              	.LVL0:
  60:source\bsw/pwm.c ****     PWM_Green_Start();
  39              		.loc 1 60 0
  40 0006 FFF7FEFF 		bl	PWM_Green_Start
  41              	.LVL1:
  61:source\bsw/pwm.c ****     PWM_Blue_Start();
  42              		.loc 1 61 0
  43 000a FFF7FEFF 		bl	PWM_Blue_Start
  44              	.LVL2:
  62:source\bsw/pwm.c ****     
  63:source\bsw/pwm.c ****     // Turn off all RGB leds
  64:source\bsw/pwm.c ****     PWM_Red_WriteCompare1(0);
  45              		.loc 1 64 0
  46 000e 0020     		movs	r0, #0
  47 0010 FFF7FEFF 		bl	PWM_Red_WriteCompare1
  48              	.LVL3:
  65:source\bsw/pwm.c ****     PWM_Green_WriteCompare1(0);
  49              		.loc 1 65 0
ARM GAS  C:\Users\rbhar\AppData\Local\Temp\ccdW0VWP.s 			page 3


  50 0014 0020     		movs	r0, #0
  51 0016 FFF7FEFF 		bl	PWM_Green_WriteCompare1
  52              	.LVL4:
  66:source\bsw/pwm.c ****     PWM_Blue_WriteCompare1(0);
  53              		.loc 1 66 0
  54 001a 0020     		movs	r0, #0
  55 001c FFF7FEFF 		bl	PWM_Blue_WriteCompare1
  56              	.LVL5:
  67:source\bsw/pwm.c ****     
  68:source\bsw/pwm.c ****     // Turn off all leds
  69:source\bsw/pwm.c ****     PWM_Red_WriteCompare2(0);
  57              		.loc 1 69 0
  58 0020 0020     		movs	r0, #0
  59 0022 FFF7FEFF 		bl	PWM_Red_WriteCompare2
  60              	.LVL6:
  70:source\bsw/pwm.c ****     PWM_Green_WriteCompare2(0);
  61              		.loc 1 70 0
  62 0026 0020     		movs	r0, #0
  63 0028 FFF7FEFF 		bl	PWM_Green_WriteCompare2
  64              	.LVL7:
  71:source\bsw/pwm.c ****     PWM_Blue_WriteCompare2(0);
  65              		.loc 1 71 0
  66 002c 0020     		movs	r0, #0
  67 002e FFF7FEFF 		bl	PWM_Blue_WriteCompare2
  68              	.LVL8:
  72:source\bsw/pwm.c ****     
  73:source\bsw/pwm.c ****     return RC_SUCCESS;
  74:source\bsw/pwm.c **** }
  69              		.loc 1 74 0
  70 0032 0020     		movs	r0, #0
  71 0034 08BD     		pop	{r3, pc}
  72              		.cfi_endproc
  73              	.LFE110:
  74              		.size	PWM_Init, .-PWM_Init
  75 0036 00BF     		.section	.text.PWM_RGB_SetRed,"ax",%progbits
  76              		.align	2
  77              		.global	PWM_RGB_SetRed
  78              		.thumb
  79              		.thumb_func
  80              		.type	PWM_RGB_SetRed, %function
  81              	PWM_RGB_SetRed:
  82              	.LFB111:
  75:source\bsw/pwm.c **** 
  76:source\bsw/pwm.c **** 
  77:source\bsw/pwm.c **** /**
  78:source\bsw/pwm.c ****  * A function which sets the Duty cycle of Red RGB led
  79:source\bsw/pwm.c ****  * @param uint8 value       : IN 0 - 0xFF
  80:source\bsw/pwm.c ****  * @return RC_SUCCESS on successful
  81:source\bsw/pwm.c ****  */
  82:source\bsw/pwm.c **** RC_t PWM_RGB_SetRed(uint8_t value)
  83:source\bsw/pwm.c **** {
  83              		.loc 1 83 0
  84              		.cfi_startproc
  85              		@ args = 0, pretend = 0, frame = 0
  86              		@ frame_needed = 0, uses_anonymous_args = 0
  87              	.LVL9:
  88 0000 08B5     		push	{r3, lr}
ARM GAS  C:\Users\rbhar\AppData\Local\Temp\ccdW0VWP.s 			page 4


  89              		.cfi_def_cfa_offset 8
  90              		.cfi_offset 3, -8
  91              		.cfi_offset 14, -4
  84:source\bsw/pwm.c ****     PWM_Red_WriteCompare1(value);
  92              		.loc 1 84 0
  93 0002 FFF7FEFF 		bl	PWM_Red_WriteCompare1
  94              	.LVL10:
  85:source\bsw/pwm.c ****     return RC_SUCCESS;
  86:source\bsw/pwm.c **** }
  95              		.loc 1 86 0
  96 0006 0020     		movs	r0, #0
  97 0008 08BD     		pop	{r3, pc}
  98              		.cfi_endproc
  99              	.LFE111:
 100              		.size	PWM_RGB_SetRed, .-PWM_RGB_SetRed
 101 000a 00BF     		.section	.text.PWM_RGB_SetGreen,"ax",%progbits
 102              		.align	2
 103              		.global	PWM_RGB_SetGreen
 104              		.thumb
 105              		.thumb_func
 106              		.type	PWM_RGB_SetGreen, %function
 107              	PWM_RGB_SetGreen:
 108              	.LFB112:
  87:source\bsw/pwm.c **** 
  88:source\bsw/pwm.c **** 
  89:source\bsw/pwm.c **** /**
  90:source\bsw/pwm.c ****  * A function which sets the Duty cycle of Green RGB led
  91:source\bsw/pwm.c ****  * @param uint8 value       : IN 0 - 0xFF
  92:source\bsw/pwm.c ****  * @return RC_SUCCESS on successful
  93:source\bsw/pwm.c ****  */
  94:source\bsw/pwm.c **** RC_t PWM_RGB_SetGreen(uint8_t value)
  95:source\bsw/pwm.c **** {
 109              		.loc 1 95 0
 110              		.cfi_startproc
 111              		@ args = 0, pretend = 0, frame = 0
 112              		@ frame_needed = 0, uses_anonymous_args = 0
 113              	.LVL11:
 114 0000 08B5     		push	{r3, lr}
 115              		.cfi_def_cfa_offset 8
 116              		.cfi_offset 3, -8
 117              		.cfi_offset 14, -4
  96:source\bsw/pwm.c ****     PWM_Green_WriteCompare1(value);
 118              		.loc 1 96 0
 119 0002 FFF7FEFF 		bl	PWM_Green_WriteCompare1
 120              	.LVL12:
  97:source\bsw/pwm.c ****     return RC_SUCCESS;
  98:source\bsw/pwm.c **** }
 121              		.loc 1 98 0
 122 0006 0020     		movs	r0, #0
 123 0008 08BD     		pop	{r3, pc}
 124              		.cfi_endproc
 125              	.LFE112:
 126              		.size	PWM_RGB_SetGreen, .-PWM_RGB_SetGreen
 127 000a 00BF     		.section	.text.PWM_RGB_SetBlue,"ax",%progbits
 128              		.align	2
 129              		.global	PWM_RGB_SetBlue
 130              		.thumb
ARM GAS  C:\Users\rbhar\AppData\Local\Temp\ccdW0VWP.s 			page 5


 131              		.thumb_func
 132              		.type	PWM_RGB_SetBlue, %function
 133              	PWM_RGB_SetBlue:
 134              	.LFB113:
  99:source\bsw/pwm.c **** 
 100:source\bsw/pwm.c **** 
 101:source\bsw/pwm.c **** /**
 102:source\bsw/pwm.c ****  * A function which sets the Duty cycle of Blue RGB led
 103:source\bsw/pwm.c ****  * @param uint8 value       : IN 0 - 0xFF
 104:source\bsw/pwm.c ****  * @return RC_SUCCESS on successful
 105:source\bsw/pwm.c ****  */
 106:source\bsw/pwm.c **** RC_t PWM_RGB_SetBlue(uint8_t value)
 107:source\bsw/pwm.c **** {
 135              		.loc 1 107 0
 136              		.cfi_startproc
 137              		@ args = 0, pretend = 0, frame = 0
 138              		@ frame_needed = 0, uses_anonymous_args = 0
 139              	.LVL13:
 140 0000 08B5     		push	{r3, lr}
 141              		.cfi_def_cfa_offset 8
 142              		.cfi_offset 3, -8
 143              		.cfi_offset 14, -4
 108:source\bsw/pwm.c ****     PWM_Blue_WriteCompare1(value);
 144              		.loc 1 108 0
 145 0002 FFF7FEFF 		bl	PWM_Blue_WriteCompare1
 146              	.LVL14:
 109:source\bsw/pwm.c ****     return RC_SUCCESS;
 110:source\bsw/pwm.c **** }
 147              		.loc 1 110 0
 148 0006 0020     		movs	r0, #0
 149 0008 08BD     		pop	{r3, pc}
 150              		.cfi_endproc
 151              	.LFE113:
 152              		.size	PWM_RGB_SetBlue, .-PWM_RGB_SetBlue
 153 000a 00BF     		.section	.text.PWM_SetRed,"ax",%progbits
 154              		.align	2
 155              		.global	PWM_SetRed
 156              		.thumb
 157              		.thumb_func
 158              		.type	PWM_SetRed, %function
 159              	PWM_SetRed:
 160              	.LFB114:
 111:source\bsw/pwm.c **** 
 112:source\bsw/pwm.c **** 
 113:source\bsw/pwm.c **** /**
 114:source\bsw/pwm.c ****  * A function which sets the Duty cycle of Red led
 115:source\bsw/pwm.c ****  * @param uint8 value       : IN 0 - 0xFF
 116:source\bsw/pwm.c ****  * @return RC_SUCCESS on successful
 117:source\bsw/pwm.c ****  */
 118:source\bsw/pwm.c **** RC_t PWM_SetRed(uint8_t value)
 119:source\bsw/pwm.c **** {
 161              		.loc 1 119 0
 162              		.cfi_startproc
 163              		@ args = 0, pretend = 0, frame = 0
 164              		@ frame_needed = 0, uses_anonymous_args = 0
 165              	.LVL15:
 166 0000 08B5     		push	{r3, lr}
ARM GAS  C:\Users\rbhar\AppData\Local\Temp\ccdW0VWP.s 			page 6


 167              		.cfi_def_cfa_offset 8
 168              		.cfi_offset 3, -8
 169              		.cfi_offset 14, -4
 120:source\bsw/pwm.c ****     PWM_Red_WriteCompare2(value);
 170              		.loc 1 120 0
 171 0002 FFF7FEFF 		bl	PWM_Red_WriteCompare2
 172              	.LVL16:
 121:source\bsw/pwm.c ****     return RC_SUCCESS;
 122:source\bsw/pwm.c **** }
 173              		.loc 1 122 0
 174 0006 0020     		movs	r0, #0
 175 0008 08BD     		pop	{r3, pc}
 176              		.cfi_endproc
 177              	.LFE114:
 178              		.size	PWM_SetRed, .-PWM_SetRed
 179 000a 00BF     		.section	.text.PWM_SetGreen,"ax",%progbits
 180              		.align	2
 181              		.global	PWM_SetGreen
 182              		.thumb
 183              		.thumb_func
 184              		.type	PWM_SetGreen, %function
 185              	PWM_SetGreen:
 186              	.LFB115:
 123:source\bsw/pwm.c **** 
 124:source\bsw/pwm.c **** 
 125:source\bsw/pwm.c **** /**
 126:source\bsw/pwm.c ****  * A function which sets the Duty cycle of Green led
 127:source\bsw/pwm.c ****  * @param uint8 value       : IN 0 - 0xFF
 128:source\bsw/pwm.c ****  * @return RC_SUCCESS on successful
 129:source\bsw/pwm.c ****  */
 130:source\bsw/pwm.c **** RC_t PWM_SetGreen(uint8_t value)
 131:source\bsw/pwm.c **** {
 187              		.loc 1 131 0
 188              		.cfi_startproc
 189              		@ args = 0, pretend = 0, frame = 0
 190              		@ frame_needed = 0, uses_anonymous_args = 0
 191              	.LVL17:
 192 0000 08B5     		push	{r3, lr}
 193              		.cfi_def_cfa_offset 8
 194              		.cfi_offset 3, -8
 195              		.cfi_offset 14, -4
 132:source\bsw/pwm.c ****     PWM_Green_WriteCompare2(value);
 196              		.loc 1 132 0
 197 0002 FFF7FEFF 		bl	PWM_Green_WriteCompare2
 198              	.LVL18:
 133:source\bsw/pwm.c ****     return RC_SUCCESS;
 134:source\bsw/pwm.c **** }
 199              		.loc 1 134 0
 200 0006 0020     		movs	r0, #0
 201 0008 08BD     		pop	{r3, pc}
 202              		.cfi_endproc
 203              	.LFE115:
 204              		.size	PWM_SetGreen, .-PWM_SetGreen
 205 000a 00BF     		.section	.text.PWM_SetYellow,"ax",%progbits
 206              		.align	2
 207              		.global	PWM_SetYellow
 208              		.thumb
ARM GAS  C:\Users\rbhar\AppData\Local\Temp\ccdW0VWP.s 			page 7


 209              		.thumb_func
 210              		.type	PWM_SetYellow, %function
 211              	PWM_SetYellow:
 212              	.LFB116:
 135:source\bsw/pwm.c **** 
 136:source\bsw/pwm.c **** 
 137:source\bsw/pwm.c **** /**
 138:source\bsw/pwm.c ****  * A function which sets the Duty cycle of Yellow led
 139:source\bsw/pwm.c ****  * @param uint8 value       : IN 0 - 0xFF
 140:source\bsw/pwm.c ****  * @return RC_SUCCESS on successful
 141:source\bsw/pwm.c ****  */
 142:source\bsw/pwm.c **** RC_t PWM_SetYellow(uint8_t value)
 143:source\bsw/pwm.c **** {
 213              		.loc 1 143 0
 214              		.cfi_startproc
 215              		@ args = 0, pretend = 0, frame = 0
 216              		@ frame_needed = 0, uses_anonymous_args = 0
 217              	.LVL19:
 218 0000 08B5     		push	{r3, lr}
 219              		.cfi_def_cfa_offset 8
 220              		.cfi_offset 3, -8
 221              		.cfi_offset 14, -4
 144:source\bsw/pwm.c ****     PWM_Blue_WriteCompare2(value);
 222              		.loc 1 144 0
 223 0002 FFF7FEFF 		bl	PWM_Blue_WriteCompare2
 224              	.LVL20:
 145:source\bsw/pwm.c ****     return RC_SUCCESS;
 146:source\bsw/pwm.c **** }...
 225              		.loc 1 146 0
 226 0006 0020     		movs	r0, #0
 227 0008 08BD     		pop	{r3, pc}
 228              		.cfi_endproc
 229              	.LFE116:
 230              		.size	PWM_SetYellow, .-PWM_SetYellow
 231 000a 00BF     		.text
 232              	.Letext0:
 233              		.file 2 "d:\\installations\\cypress\\psoc creator\\4.2\\psoc creator\\import\\gnu\\arm\\5.4.1\\arm
 234              		.file 3 "d:\\installations\\cypress\\psoc creator\\4.2\\psoc creator\\import\\gnu\\arm\\5.4.1\\arm
 235              		.file 4 "Generated_Source\\PSoC5/ErikaOS_common_ee_types.inc"
 236              		.file 5 "Generated_Source\\PSoC5/ErikaOS_cortex_mx_ee_cpu.inc"
 237              		.file 6 "source\\bsw\\global.h"
 238              		.file 7 "Generated_Source\\PSoC5/ErikaOS_ee_oo_intfunc.inc"
 239              		.file 8 "Generated_Source\\PSoC5/ErikaOS_cortex_mx_ee_context.inc"
 240              		.file 9 "Generated_Source\\PSoC5/ErikaOS_common_ee_primitives.inc"
 241              		.file 10 "Generated_Source\\PSoC5/core_cm3.h"
 242              		.file 11 "Generated_Source\\PSoC5/PWM_Red.h"
 243              		.file 12 "Generated_Source\\PSoC5/PWM_Green.h"
 244              		.file 13 "Generated_Source\\PSoC5/PWM_Blue.h"