ARM GAS  C:\Users\rbhar\AppData\Local\Temp\cco4Ki0s.s 			page 1


   1              		.syntax unified
   2              		.cpu cortex-m3
   3              		.fpu softvfp
   4              		.eabi_attribute 20, 1
   5              		.eabi_attribute 21, 1
   6              		.eabi_attribute 23, 3
   7              		.eabi_attribute 24, 1
   8              		.eabi_attribute 25, 1
   9              		.eabi_attribute 26, 1
  10              		.eabi_attribute 30, 1
  11              		.eabi_attribute 34, 1
  12              		.eabi_attribute 18, 4
  13              		.thumb
  14              		.syntax unified
  15              		.file	"seven.c"
  16              		.text
  17              	.Ltext0:
  18              		.cfi_sections	.debug_frame
  19              		.section	.text.S7D_Set,"ax",%progbits
  20              		.align	2
  21              		.thumb
  22              		.thumb_func
  23              		.type	S7D_Set, %function
  24              	S7D_Set:
  25              	.LFB102:
  26              		.file 1 "source\\bsw\\seven.c"
   1:source\bsw/seven.c **** /**
   2:source\bsw/seven.c **** * \file <seven.c>
   3:source\bsw/seven.c **** * \author <Bharath Ramachandraiah>
   4:source\bsw/seven.c **** * \date <25/09/2018>
   5:source\bsw/seven.c **** *
   6:source\bsw/seven.c **** * \brief <Symbolic File name>
   7:source\bsw/seven.c **** *
   8:source\bsw/seven.c **** * \copyright Copyright ©2016
   9:source\bsw/seven.c **** * Department of electrical engineering and information technology, Hochschule Darmstadt - Universit
  10:source\bsw/seven.c **** * Permission to use, copy, modify, and distribute this software and its documentation for education
  11:source\bsw/seven.c **** * (unless permitted by h_da) and official h_da projects, is hereby granted for enrolled students of
  12:source\bsw/seven.c **** * this paragraph and the following paragraph appear in all copies, modifications, and distributions
  13:source\bsw/seven.c **** * Contact Prof.Dr.-Ing. Peter Fromm, peter.fromm@h-da.de, Birkenweg 8 64295 Darmstadt - GERMANY for
  14:source\bsw/seven.c **** *
  15:source\bsw/seven.c **** * \warning This software is a PROTOTYPE version and is not designed or intended for use in producti
  16:source\bsw/seven.c **** * The user represents and warrants that it will NOT use or redistribute the Software for such purpo
  17:source\bsw/seven.c **** * This prototype is for research purposes only. This software is provided "AS IS," without a warran
  18:source\bsw/seven.c **** */
  19:source\bsw/seven.c **** 
  20:source\bsw/seven.c **** /*****************************************************************************/
  21:source\bsw/seven.c **** /* Include files                                                             */
  22:source\bsw/seven.c **** /*****************************************************************************/
  23:source\bsw/seven.c **** #include "seven.h"
  24:source\bsw/seven.c **** #include "S7D_Select.h"
  25:source\bsw/seven.c **** #include "S7D_Display.h"
  26:source\bsw/seven.c **** #include "S7D_ControlReg.h"
  27:source\bsw/seven.c **** 
  28:source\bsw/seven.c **** /*****************************************************************************/
  29:source\bsw/seven.c **** /* Local pre-processor symbols/macros ('#define')                            */
  30:source\bsw/seven.c **** /*****************************************************************************/
  31:source\bsw/seven.c **** 
ARM GAS  C:\Users\rbhar\AppData\Local\Temp\cco4Ki0s.s 			page 2


  32:source\bsw/seven.c **** 
  33:source\bsw/seven.c **** /*****************************************************************************/
  34:source\bsw/seven.c **** /* Global variable definitions (declared in header file with 'extern')       */
  35:source\bsw/seven.c **** /*****************************************************************************/
  36:source\bsw/seven.c **** 
  37:source\bsw/seven.c **** /*****************************************************************************/
  38:source\bsw/seven.c **** /* Local type definitions ('typedef')                                        */
  39:source\bsw/seven.c **** /*****************************************************************************/
  40:source\bsw/seven.c **** 
  41:source\bsw/seven.c **** /*****************************************************************************/
  42:source\bsw/seven.c **** /* Local variable definitions ('static')                                     */
  43:source\bsw/seven.c **** /*****************************************************************************/
  44:source\bsw/seven.c **** static const uint8 LookUpForDisplay[] = 
  45:source\bsw/seven.c **** {
  46:source\bsw/seven.c ****     0x3F,
  47:source\bsw/seven.c ****     0x06,
  48:source\bsw/seven.c ****     0x5b,
  49:source\bsw/seven.c ****     0x4f,
  50:source\bsw/seven.c ****     0x66,
  51:source\bsw/seven.c ****     0x6d,
  52:source\bsw/seven.c ****     0x7d,
  53:source\bsw/seven.c ****     0x07,
  54:source\bsw/seven.c ****     0x7f,
  55:source\bsw/seven.c ****     0x6f,
  56:source\bsw/seven.c ****     0x77,
  57:source\bsw/seven.c ****     0x7c,
  58:source\bsw/seven.c ****     0x39,
  59:source\bsw/seven.c ****     0x5e,
  60:source\bsw/seven.c ****     0x79,
  61:source\bsw/seven.c ****     0x71,
  62:source\bsw/seven.c ****     0x00,
  63:source\bsw/seven.c **** };
  64:source\bsw/seven.c **** 
  65:source\bsw/seven.c **** /*****************************************************************************/
  66:source\bsw/seven.c **** /* Local function prototypes ('static')                                      */
  67:source\bsw/seven.c **** /*****************************************************************************/
  68:source\bsw/seven.c **** 
  69:source\bsw/seven.c **** 
  70:source\bsw/seven.c **** /*****************************************************************************/
  71:source\bsw/seven.c **** /* Function implementation - global ('extern') and local ('static')          */
  72:source\bsw/seven.c **** /*****************************************************************************/
  73:source\bsw/seven.c **** 
  74:source\bsw/seven.c **** /**
  75:source\bsw/seven.c ****  * The function takes the number as an input and updates on to the display.
  76:source\bsw/seven.c ****  * @param uint8 Value       : IN 0 - 0xF
  77:source\bsw/seven.c ****  * @return Updates the seven segment display with the values.
  78:source\bsw/seven.c ****  */
  79:source\bsw/seven.c **** static RC_t S7D_Set(eSegments_t DisplayNo, uint8 Value)
  80:source\bsw/seven.c **** {
  27              		.loc 1 80 0
  28              		.cfi_startproc
  29              		@ args = 0, pretend = 0, frame = 0
  30              		@ frame_needed = 0, uses_anonymous_args = 0
  31              	.LVL0:
  32 0000 10B5     		push	{r4, lr}
  33              		.cfi_def_cfa_offset 8
  34              		.cfi_offset 4, -8
ARM GAS  C:\Users\rbhar\AppData\Local\Temp\cco4Ki0s.s 			page 3


  35              		.cfi_offset 14, -4
  36 0002 0C46     		mov	r4, r1
  37              	.LVL1:
  81:source\bsw/seven.c ****     uint8 NoToDisplay = 0;
  82:source\bsw/seven.c ****     /* Select the Display */
  83:source\bsw/seven.c ****     S7D_Select_Write(DisplayNo);
  38              		.loc 1 83 0
  39 0004 FFF7FEFF 		bl	S7D_Select_Write
  40              	.LVL2:
  84:source\bsw/seven.c ****     
  85:source\bsw/seven.c ****     NoToDisplay = LookUpForDisplay[Value & MASK_MSB_UINT8];
  41              		.loc 1 85 0
  42 0008 04F00F04 		and	r4, r4, #15
  43              	.LVL3:
  86:source\bsw/seven.c **** 
  87:source\bsw/seven.c ****     S7D_ControlReg_Write(NoToDisplay);
  44              		.loc 1 87 0
  45 000c 024B     		ldr	r3, .L3
  46 000e 185D     		ldrb	r0, [r3, r4]	@ zero_extendqisi2
  47 0010 FFF7FEFF 		bl	S7D_ControlReg_Write
  48              	.LVL4:
  88:source\bsw/seven.c **** 
  89:source\bsw/seven.c ****     return RC_SUCCESS;
  90:source\bsw/seven.c **** }
  49              		.loc 1 90 0
  50 0014 0020     		movs	r0, #0
  51 0016 10BD     		pop	{r4, pc}
  52              	.LVL5:
  53              	.L4:
  54              		.align	2
  55              	.L3:
  56 0018 00000000 		.word	.LANCHOR0
  57              		.cfi_endproc
  58              	.LFE102:
  59              		.size	S7D_Set, .-S7D_Set
  60              		.section	.text.S7D_Write,"ax",%progbits
  61              		.align	2
  62              		.global	S7D_Write
  63              		.thumb
  64              		.thumb_func
  65              		.type	S7D_Write, %function
  66              	S7D_Write:
  67              	.LFB105:
  91:source\bsw/seven.c **** 
  92:source\bsw/seven.c **** 
  93:source\bsw/seven.c **** /**
  94:source\bsw/seven.c ****  * The function initializes the display to default settings.
  95:source\bsw/seven.c ****  * @param void
  96:source\bsw/seven.c ****  * @return the displays are reset.
  97:source\bsw/seven.c ****  */
  98:source\bsw/seven.c **** RC_t S7D_init(void)
  99:source\bsw/seven.c **** {
 100:source\bsw/seven.c ****     S7D_Display_Write(SEGMENT_ON);
 101:source\bsw/seven.c ****     
 102:source\bsw/seven.c ****     S7D_Write(LookUpForDisplay[(sizeof(LookUpForDisplay) / sizeof(uint8)) - 1]);
 103:source\bsw/seven.c ****     
 104:source\bsw/seven.c ****     return RC_SUCCESS;
ARM GAS  C:\Users\rbhar\AppData\Local\Temp\cco4Ki0s.s 			page 4


 105:source\bsw/seven.c **** }
 106:source\bsw/seven.c **** 
 107:source\bsw/seven.c **** 
 108:source\bsw/seven.c **** /**
 109:source\bsw/seven.c ****  * The function clears the displays.
 110:source\bsw/seven.c ****  * @param void
 111:source\bsw/seven.c ****  * @return the displays are reset.
 112:source\bsw/seven.c ****  */
 113:source\bsw/seven.c **** RC_t S7D_clear(void)
 114:source\bsw/seven.c **** {   
 115:source\bsw/seven.c ****     return (S7D_init());
 116:source\bsw/seven.c **** }
 117:source\bsw/seven.c **** 
 118:source\bsw/seven.c **** 
 119:source\bsw/seven.c **** /**
 120:source\bsw/seven.c ****  * The function takes the number as an input and updates on to the displays.
 121:source\bsw/seven.c ****  * @param uint8 Value       : IN 0 - 0xFF
 122:source\bsw/seven.c ****  * @return Updates the seven segment display with the values.
 123:source\bsw/seven.c ****  */
 124:source\bsw/seven.c **** RC_t S7D_Write(uint8 Value)
 125:source\bsw/seven.c **** {
  68              		.loc 1 125 0
  69              		.cfi_startproc
  70              		@ args = 0, pretend = 0, frame = 0
  71              		@ frame_needed = 0, uses_anonymous_args = 0
  72              	.LVL6:
  73 0000 10B5     		push	{r4, lr}
  74              		.cfi_def_cfa_offset 8
  75              		.cfi_offset 4, -8
  76              		.cfi_offset 14, -4
  77 0002 0446     		mov	r4, r0
 126:source\bsw/seven.c ****     /* Update 0th display */
 127:source\bsw/seven.c ****     S7D_Set(S7D_DISPLAY0, Value & MASK_MSB_UINT8);
  78              		.loc 1 127 0
  79 0004 00F00F01 		and	r1, r0, #15
  80 0008 0020     		movs	r0, #0
  81              	.LVL7:
  82 000a FFF7FEFF 		bl	S7D_Set
  83              	.LVL8:
 128:source\bsw/seven.c ****     
 129:source\bsw/seven.c ****     /* Update 1st display */
 130:source\bsw/seven.c ****     S7D_Set(S7D_DISPLAY1, (Value & MASK_LSB_UINT8) >> SHIFT_NIBBLE);
  84              		.loc 1 130 0
  85 000e 2109     		lsrs	r1, r4, #4
  86 0010 0120     		movs	r0, #1
  87 0012 FFF7FEFF 		bl	S7D_Set
  88              	.LVL9:
 131:source\bsw/seven.c ****     
 132:source\bsw/seven.c ****     return RC_SUCCESS;
 133:source\bsw/seven.c **** }...
  89              		.loc 1 133 0
  90 0016 0020     		movs	r0, #0
  91 0018 10BD     		pop	{r4, pc}
  92              		.cfi_endproc
  93              	.LFE105:
  94              		.size	S7D_Write, .-S7D_Write
  95 001a 00BF     		.section	.text.S7D_init,"ax",%progbits
ARM GAS  C:\Users\rbhar\AppData\Local\Temp\cco4Ki0s.s 			page 5


  96              		.align	2
  97              		.global	S7D_init
  98              		.thumb
  99              		.thumb_func
 100              		.type	S7D_init, %function
 101              	S7D_init:
 102              	.LFB103:
  99:source\bsw/seven.c **** {
 103              		.loc 1 99 0
 104              		.cfi_startproc
 105              		@ args = 0, pretend = 0, frame = 0
 106              		@ frame_needed = 0, uses_anonymous_args = 0
 107 0000 08B5     		push	{r3, lr}
 108              		.cfi_def_cfa_offset 8
 109              		.cfi_offset 3, -8
 110              		.cfi_offset 14, -4
 100:source\bsw/seven.c ****     S7D_Display_Write(SEGMENT_ON);
 111              		.loc 1 100 0
 112 0002 0120     		movs	r0, #1
 113 0004 FFF7FEFF 		bl	S7D_Display_Write
 114              	.LVL10:
 102:source\bsw/seven.c ****     S7D_Write(LookUpForDisplay[(sizeof(LookUpForDisplay) / sizeof(uint8)) - 1]);
 115              		.loc 1 102 0
 116 0008 0020     		movs	r0, #0
 117 000a FFF7FEFF 		bl	S7D_Write
 118              	.LVL11:
 105:source\bsw/seven.c **** }
 119              		.loc 1 105 0
 120 000e 0020     		movs	r0, #0
 121 0010 08BD     		pop	{r3, pc}
 122              		.cfi_endproc
 123              	.LFE103:
 124              		.size	S7D_init, .-S7D_init
 125 0012 00BF     		.section	.text.S7D_clear,"ax",%progbits
 126              		.align	2
 127              		.global	S7D_clear
 128              		.thumb
 129              		.thumb_func
 130              		.type	S7D_clear, %function
 131              	S7D_clear:
 132              	.LFB104:
 114:source\bsw/seven.c **** {   
 133              		.loc 1 114 0
 134              		.cfi_startproc
 135              		@ args = 0, pretend = 0, frame = 0
 136              		@ frame_needed = 0, uses_anonymous_args = 0
 137 0000 08B5     		push	{r3, lr}
 138              		.cfi_def_cfa_offset 8
 139              		.cfi_offset 3, -8
 140              		.cfi_offset 14, -4
 115:source\bsw/seven.c ****     return (S7D_init());
 141              		.loc 1 115 0
 142 0002 FFF7FEFF 		bl	S7D_init
 143              	.LVL12:
 116:source\bsw/seven.c **** }
 144              		.loc 1 116 0
 145 0006 08BD     		pop	{r3, pc}
ARM GAS  C:\Users\rbhar\AppData\Local\Temp\cco4Ki0s.s 			page 6


 146              		.cfi_endproc
 147              	.LFE104:
 148              		.size	S7D_clear, .-S7D_clear
 149              		.section	.rodata
 150              		.align	2
 151              		.set	.LANCHOR0,. + 0
 152              		.type	LookUpForDisplay, %object
 153              		.size	LookUpForDisplay, 17
 154              	LookUpForDisplay:
 155 0000 3F       		.byte	63
 156 0001 06       		.byte	6
 157 0002 5B       		.byte	91
 158 0003 4F       		.byte	79
 159 0004 66       		.byte	102
 160 0005 6D       		.byte	109
 161 0006 7D       		.byte	125
 162 0007 07       		.byte	7
 163 0008 7F       		.byte	127
 164 0009 6F       		.byte	111
 165 000a 77       		.byte	119
 166 000b 7C       		.byte	124
 167 000c 39       		.byte	57
 168 000d 5E       		.byte	94
 169 000e 79       		.byte	121
 170 000f 71       		.byte	113
 171 0010 00       		.byte	0
 172              		.text
 173              	.Letext0:
 174              		.file 2 "d:\\installations\\cypress\\psoc creator\\4.2\\psoc creator\\import\\gnu\\arm\\5.4.1\\arm
 175              		.file 3 "d:\\installations\\cypress\\psoc creator\\4.2\\psoc creator\\import\\gnu\\arm\\5.4.1\\arm
 176              		.file 4 "Generated_Source\\PSoC5/cytypes.h"
 177              		.file 5 "Generated_Source\\PSoC5/ErikaOS_common_ee_types.inc"
 178              		.file 6 "Generated_Source\\PSoC5/ErikaOS_cortex_mx_ee_cpu.inc"
 179              		.file 7 "source\\bsw\\global.h"
 180              		.file 8 "source\\bsw\\seven.h"
 181              		.file 9 "Generated_Source\\PSoC5/ErikaOS_ee_oo_intfunc.inc"
 182              		.file 10 "Generated_Source\\PSoC5/ErikaOS_cortex_mx_ee_context.inc"
 183              		.file 11 "Generated_Source\\PSoC5/ErikaOS_common_ee_primitives.inc"
 184              		.file 12 "Generated_Source\\PSoC5/core_cm3.h"
 185              		.file 13 "Generated_Source\\PSoC5/S7D_Select.h"
 186              		.file 14 "Generated_Source\\PSoC5/S7D_ControlReg.h"
 187              		.file 15 "Generated_Source\\PSoC5/S7D_Display.h"