ARM GAS  C:\Users\rbhar\AppData\Local\Temp\cckgNYUc.s 			page 1


   1              		.syntax unified
   2              		.cpu cortex-m3
   3              		.fpu softvfp
   4              		.eabi_attribute 20, 1
   5              		.eabi_attribute 21, 1
   6              		.eabi_attribute 23, 3
   7              		.eabi_attribute 24, 1
   8              		.eabi_attribute 25, 1
   9              		.eabi_attribute 26, 1
  10              		.eabi_attribute 30, 1
  11              		.eabi_attribute 34, 1
  12              		.eabi_attribute 18, 4
  13              		.thumb
  14              		.syntax unified
  15              		.file	"signal_handler.c"
  16              		.text
  17              	.Ltext0:
  18              		.cfi_sections	.debug_frame
  19              		.section	.text.SIGNAL__from_button1,"ax",%progbits
  20              		.align	2
  21              		.thumb
  22              		.thumb_func
  23              		.type	SIGNAL__from_button1, %function
  24              	SIGNAL__from_button1:
  25              	.LFB110:
  26              		.file 1 "source\\asw\\signal_handler.c"
   1:source\asw/signal_handler.c **** /**
   2:source\asw/signal_handler.c **** * \file <signal_handler.c>
   3:source\asw/signal_handler.c **** * \author <Bharath Ramachandraiah>
   4:source\asw/signal_handler.c **** * \date <13/11/2018>
   5:source\asw/signal_handler.c **** *
   6:source\asw/signal_handler.c **** * \brief <Symbolic File name>
   7:source\asw/signal_handler.c **** *
   8:source\asw/signal_handler.c **** * \copyright Copyright ©2016
   9:source\asw/signal_handler.c **** * Department of electrical engineering and information technology, Hochschule Darmstadt - Universit
  10:source\asw/signal_handler.c **** * Permission to use, copy, modify, and distribute this software and its documentation for education
  11:source\asw/signal_handler.c **** * (unless permitted by h_da) and official h_da projects, is hereby granted for enrolled students of
  12:source\asw/signal_handler.c **** * this paragraph and the following paragraph appear in all copies, modifications, and distributions
  13:source\asw/signal_handler.c **** * Contact Prof.Dr.-Ing. Peter Fromm, peter.fromm@h-da.de, Birkenweg 8 64295 Darmstadt - GERMANY for
  14:source\asw/signal_handler.c **** *
  15:source\asw/signal_handler.c **** * \warning This software is a PROTOTYPE version and is not designed or intended for use in producti
  16:source\asw/signal_handler.c **** * The user represents and warrants that it will NOT use or redistribute the Software for such purpo
  17:source\asw/signal_handler.c **** * This prototype is for research purposes only. This software is provided "AS IS," without a warran
  18:source\asw/signal_handler.c **** */
  19:source\asw/signal_handler.c **** 
  20:source\asw/signal_handler.c **** /*****************************************************************************/
  21:source\asw/signal_handler.c **** /* Include files                                                             */
  22:source\asw/signal_handler.c **** /*****************************************************************************/
  23:source\asw/signal_handler.c **** #include "global.h"
  24:source\asw/signal_handler.c **** #include "signal_handler.h"
  25:source\asw/signal_handler.c **** #include "button.h"
  26:source\asw/signal_handler.c **** 
  27:source\asw/signal_handler.c **** /*****************************************************************************/
  28:source\asw/signal_handler.c **** /* Local pre-processor symbols/macros ('#define')                            */
  29:source\asw/signal_handler.c **** /*****************************************************************************/
  30:source\asw/signal_handler.c **** 
  31:source\asw/signal_handler.c **** 
ARM GAS  C:\Users\rbhar\AppData\Local\Temp\cckgNYUc.s 			page 2


  32:source\asw/signal_handler.c **** /*****************************************************************************/
  33:source\asw/signal_handler.c **** /* Global variable definitions (declared in header file with 'extern')       */
  34:source\asw/signal_handler.c **** /*****************************************************************************/
  35:source\asw/signal_handler.c **** 
  36:source\asw/signal_handler.c **** /*****************************************************************************/
  37:source\asw/signal_handler.c **** /* Local type definitions ('typedef')                                        */
  38:source\asw/signal_handler.c **** /*****************************************************************************/
  39:source\asw/signal_handler.c **** 
  40:source\asw/signal_handler.c **** 
  41:source\asw/signal_handler.c **** /*****************************************************************************/
  42:source\asw/signal_handler.c **** /* Local variable definitions ('static')                                     */
  43:source\asw/signal_handler.c **** /*****************************************************************************/
  44:source\asw/signal_handler.c **** 
  45:source\asw/signal_handler.c **** 
  46:source\asw/signal_handler.c **** /*****************************************************************************/
  47:source\asw/signal_handler.c **** /* Local function prototypes ('static')                                      */
  48:source\asw/signal_handler.c **** /*****************************************************************************/
  49:source\asw/signal_handler.c **** 
  50:source\asw/signal_handler.c **** 
  51:source\asw/signal_handler.c **** /*****************************************************************************/
  52:source\asw/signal_handler.c **** /* Function implementation - global ('extern') and local ('static')          */
  53:source\asw/signal_handler.c **** /*****************************************************************************/
  54:source\asw/signal_handler.c **** 
  55:source\asw/signal_handler.c **** /**
  56:source\asw/signal_handler.c ****  * The function which sets button 1 press event to the tsk_ReactionGame.
  57:source\asw/signal_handler.c ****  * @param   void
  58:source\asw/signal_handler.c ****  * @return  void
  59:source\asw/signal_handler.c ****  */
  60:source\asw/signal_handler.c **** static void SIGNAL__from_button1(void)
  61:source\asw/signal_handler.c **** {
  27              		.loc 1 61 0
  28              		.cfi_startproc
  29              		@ args = 0, pretend = 0, frame = 0
  30              		@ frame_needed = 0, uses_anonymous_args = 0
  31 0000 08B5     		push	{r3, lr}
  32              		.cfi_def_cfa_offset 8
  33              		.cfi_offset 3, -8
  34              		.cfi_offset 14, -4
  62:source\asw/signal_handler.c ****     // Events for button 1 press
  63:source\asw/signal_handler.c ****     SetEvent(tsk_ReactionGame, ev_Button1);
  35              		.loc 1 63 0
  36 0002 0121     		movs	r1, #1
  37 0004 0220     		movs	r0, #2
  38 0006 FFF7FEFF 		bl	EE_oo_SetEvent
  39              	.LVL0:
  40 000a 08BD     		pop	{r3, pc}
  41              		.cfi_endproc
  42              	.LFE110:
  43              		.size	SIGNAL__from_button1, .-SIGNAL__from_button1
  44              		.section	.text.SIGNAL__from_button2,"ax",%progbits
  45              		.align	2
  46              		.thumb
  47              		.thumb_func
  48              		.type	SIGNAL__from_button2, %function
  49              	SIGNAL__from_button2:
  50              	.LFB111:
  64:source\asw/signal_handler.c **** }
ARM GAS  C:\Users\rbhar\AppData\Local\Temp\cckgNYUc.s 			page 3


  65:source\asw/signal_handler.c **** 
  66:source\asw/signal_handler.c **** /**
  67:source\asw/signal_handler.c ****  * The function which sets button 2 press event to the tsk_ReactionGame.
  68:source\asw/signal_handler.c ****  * @param   void
  69:source\asw/signal_handler.c ****  * @return  void
  70:source\asw/signal_handler.c ****  */
  71:source\asw/signal_handler.c **** static void SIGNAL__from_button2(void)
  72:source\asw/signal_handler.c **** {
  51              		.loc 1 72 0
  52              		.cfi_startproc
  53              		@ args = 0, pretend = 0, frame = 0
  54              		@ frame_needed = 0, uses_anonymous_args = 0
  55 0000 08B5     		push	{r3, lr}
  56              		.cfi_def_cfa_offset 8
  57              		.cfi_offset 3, -8
  58              		.cfi_offset 14, -4
  73:source\asw/signal_handler.c ****     // Events for button 2 press
  74:source\asw/signal_handler.c ****     SetEvent(tsk_ReactionGame, ev_Button2);
  59              		.loc 1 74 0
  60 0002 0221     		movs	r1, #2
  61 0004 0846     		mov	r0, r1
  62 0006 FFF7FEFF 		bl	EE_oo_SetEvent
  63              	.LVL1:
  64 000a 08BD     		pop	{r3, pc}
  65              		.cfi_endproc
  66              	.LFE111:
  67              		.size	SIGNAL__from_button2, .-SIGNAL__from_button2
  68              		.section	.text.ISR2_isr_BUTTON,"ax",%progbits
  69              		.align	2
  70              		.global	ISR2_isr_BUTTON
  71              		.thumb
  72              		.thumb_func
  73              		.type	ISR2_isr_BUTTON, %function
  74              	ISR2_isr_BUTTON:
  75              	.LFB113:
  75:source\asw/signal_handler.c **** }
  76:source\asw/signal_handler.c **** 
  77:source\asw/signal_handler.c **** /**
  78:source\asw/signal_handler.c ****  * The button press interrupt - Category 2
  79:source\asw/signal_handler.c ****  * Corresponding event function will be invoked.
  80:source\asw/signal_handler.c ****  */
  81:source\asw/signal_handler.c **** ISR2(isr_BUTTON)
  82:source\asw/signal_handler.c **** {
  76              		.loc 1 82 0
  77              		.cfi_startproc
  78              		@ args = 0, pretend = 0, frame = 0
  79              		@ frame_needed = 0, uses_anonymous_args = 0
  80 0000 08B5     		push	{r3, lr}
  81              		.cfi_def_cfa_offset 8
  82              		.cfi_offset 3, -8
  83              		.cfi_offset 14, -4
  83:source\asw/signal_handler.c ****     if (BUTTON_IsPressed(BUTTON_1)) SIGNAL__from_button1();
  84              		.loc 1 83 0
  85 0002 0120     		movs	r0, #1
  86 0004 FFF7FEFF 		bl	BUTTON_IsPressed
  87              	.LVL2:
  88 0008 08B1     		cbz	r0, .L6
ARM GAS  C:\Users\rbhar\AppData\Local\Temp\cckgNYUc.s 			page 4


  89              		.loc 1 83 0 is_stmt 0 discriminator 1
  90 000a FFF7FEFF 		bl	SIGNAL__from_button1
  91              	.LVL3:
  92              	.L6:
  84:source\asw/signal_handler.c ****     if (BUTTON_IsPressed(BUTTON_2)) SIGNAL__from_button2();
  93              		.loc 1 84 0 is_stmt 1
  94 000e 0220     		movs	r0, #2
  95 0010 FFF7FEFF 		bl	BUTTON_IsPressed
  96              	.LVL4:
  97 0014 08B1     		cbz	r0, .L5
  98              		.loc 1 84 0 is_stmt 0 discriminator 1
  99 0016 FFF7FEFF 		bl	SIGNAL__from_button2
 100              	.LVL5:
 101              	.L5:
 102 001a 08BD     		pop	{r3, pc}
 103              		.cfi_endproc
 104              	.LFE113:
 105              		.size	ISR2_isr_BUTTON, .-ISR2_isr_BUTTON
 106              		.section	.text.isr_BUTTON,"ax",%progbits
 107              		.align	2
 108              		.global	isr_BUTTON
 109              		.thumb
 110              		.thumb_func
 111              		.type	isr_BUTTON, %function
 112              	isr_BUTTON:
 113              	.LFB112:
  81:source\asw/signal_handler.c **** {
 114              		.loc 1 81 0 is_stmt 1
 115              		.cfi_startproc
 116              		@ Stack Align: May be called with mis-aligned SP.
 117              		@ args = 0, pretend = 0, frame = 0
 118              		@ frame_needed = 0, uses_anonymous_args = 0
 119 0000 6846     		mov	r0, sp
 120              		.cfi_register 13, 0
 121 0002 20F00701 		bic	r1, r0, #7
 122 0006 8D46     		mov	sp, r1
 123 0008 19B5     		push	{r0, r3, r4, lr}
 124              		.cfi_def_cfa_offset 16
 125              		.cfi_offset 13, -16
 126              		.cfi_offset 3, -12
 127              		.cfi_offset 4, -8
 128              		.cfi_offset 14, -4
 129              	.LVL6:
 130              	.LBB50:
 131              	.LBB51:
 132              		.file 2 "Generated_Source\\PSoC5/ErikaOS_cortex_mx_ee_cpu.inc"
   1:Generated_Source\PSoC5/ErikaOS_cortex_mx_ee_cpu.inc **** /* ###*B*###
   2:Generated_Source\PSoC5/ErikaOS_cortex_mx_ee_cpu.inc ****  * ERIKA Enterprise - a tiny RTOS for small microcontrollers
   3:Generated_Source\PSoC5/ErikaOS_cortex_mx_ee_cpu.inc ****  *
   4:Generated_Source\PSoC5/ErikaOS_cortex_mx_ee_cpu.inc ****  * Copyright (C) 2002-2011  Evidence Srl
   5:Generated_Source\PSoC5/ErikaOS_cortex_mx_ee_cpu.inc ****  *
   6:Generated_Source\PSoC5/ErikaOS_cortex_mx_ee_cpu.inc ****  * This file is part of ERIKA Enterprise.
   7:Generated_Source\PSoC5/ErikaOS_cortex_mx_ee_cpu.inc ****  *
   8:Generated_Source\PSoC5/ErikaOS_cortex_mx_ee_cpu.inc ****  * ERIKA Enterprise is free software; you can redistribute it
   9:Generated_Source\PSoC5/ErikaOS_cortex_mx_ee_cpu.inc ****  * and/or modify it under the terms of the GNU General Public License
  10:Generated_Source\PSoC5/ErikaOS_cortex_mx_ee_cpu.inc ****  * version 2 as published by the Free Software Foundation, 
  11:Generated_Source\PSoC5/ErikaOS_cortex_mx_ee_cpu.inc ****  * (with a special exception described below).
ARM GAS  C:\Users\rbhar\AppData\Local\Temp\cckgNYUc.s 			page 5


  12:Generated_Source\PSoC5/ErikaOS_cortex_mx_ee_cpu.inc ****  *
  13:Generated_Source\PSoC5/ErikaOS_cortex_mx_ee_cpu.inc ****  * Linking this code statically or dynamically with other modules is
  14:Generated_Source\PSoC5/ErikaOS_cortex_mx_ee_cpu.inc ****  * making a combined work based on this code.  Thus, the terms and
  15:Generated_Source\PSoC5/ErikaOS_cortex_mx_ee_cpu.inc ****  * conditions of the GNU General Public License cover the whole
  16:Generated_Source\PSoC5/ErikaOS_cortex_mx_ee_cpu.inc ****  * combination.
  17:Generated_Source\PSoC5/ErikaOS_cortex_mx_ee_cpu.inc ****  *
  18:Generated_Source\PSoC5/ErikaOS_cortex_mx_ee_cpu.inc ****  * As a special exception, the copyright holders of this library give you
  19:Generated_Source\PSoC5/ErikaOS_cortex_mx_ee_cpu.inc ****  * permission to link this code with independent modules to produce an
  20:Generated_Source\PSoC5/ErikaOS_cortex_mx_ee_cpu.inc ****  * executable, regardless of the license terms of these independent
  21:Generated_Source\PSoC5/ErikaOS_cortex_mx_ee_cpu.inc ****  * modules, and to copy and distribute the resulting executable under
  22:Generated_Source\PSoC5/ErikaOS_cortex_mx_ee_cpu.inc ****  * terms of your choice, provided that you also meet, for each linked
  23:Generated_Source\PSoC5/ErikaOS_cortex_mx_ee_cpu.inc ****  * independent module, the terms and conditions of the license of that
  24:Generated_Source\PSoC5/ErikaOS_cortex_mx_ee_cpu.inc ****  * module.  An independent module is a module which is not derived from
  25:Generated_Source\PSoC5/ErikaOS_cortex_mx_ee_cpu.inc ****  * or based on this library.  If you modify this code, you may extend
  26:Generated_Source\PSoC5/ErikaOS_cortex_mx_ee_cpu.inc ****  * this exception to your version of the code, but you are not
  27:Generated_Source\PSoC5/ErikaOS_cortex_mx_ee_cpu.inc ****  * obligated to do so.  If you do not wish to do so, delete this
  28:Generated_Source\PSoC5/ErikaOS_cortex_mx_ee_cpu.inc ****  * exception statement from your version.
  29:Generated_Source\PSoC5/ErikaOS_cortex_mx_ee_cpu.inc ****  *
  30:Generated_Source\PSoC5/ErikaOS_cortex_mx_ee_cpu.inc ****  * ERIKA Enterprise is distributed in the hope that it will be
  31:Generated_Source\PSoC5/ErikaOS_cortex_mx_ee_cpu.inc ****  * useful, but WITHOUT ANY WARRANTY; without even the implied warranty
  32:Generated_Source\PSoC5/ErikaOS_cortex_mx_ee_cpu.inc ****  * of MERCHANTABILITY or FITNESS FOR A PARTICULAR PURPOSE.  See the
  33:Generated_Source\PSoC5/ErikaOS_cortex_mx_ee_cpu.inc ****  * GNU General Public License version 2 for more details.
  34:Generated_Source\PSoC5/ErikaOS_cortex_mx_ee_cpu.inc ****  *
  35:Generated_Source\PSoC5/ErikaOS_cortex_mx_ee_cpu.inc ****  * You should have received a copy of the GNU General Public License
  36:Generated_Source\PSoC5/ErikaOS_cortex_mx_ee_cpu.inc ****  * version 2 along with ERIKA Enterprise; if not, write to the
  37:Generated_Source\PSoC5/ErikaOS_cortex_mx_ee_cpu.inc ****  * Free Software Foundation, Inc., 51 Franklin Street, Fifth Floor,
  38:Generated_Source\PSoC5/ErikaOS_cortex_mx_ee_cpu.inc ****  * Boston, MA 02110-1301 USA.
  39:Generated_Source\PSoC5/ErikaOS_cortex_mx_ee_cpu.inc ****  * ###*E*### */
  40:Generated_Source\PSoC5/ErikaOS_cortex_mx_ee_cpu.inc **** 
  41:Generated_Source\PSoC5/ErikaOS_cortex_mx_ee_cpu.inc **** /** 
  42:Generated_Source\PSoC5/ErikaOS_cortex_mx_ee_cpu.inc **** 	@file ee_cpu.h
  43:Generated_Source\PSoC5/ErikaOS_cortex_mx_ee_cpu.inc **** 	@brief CPU-dependent part of HAL. Derived from pkg/cpu/pic30/inc/ee_cpu.h
  44:Generated_Source\PSoC5/ErikaOS_cortex_mx_ee_cpu.inc **** 	@author Gianluca Franchino
  45:Generated_Source\PSoC5/ErikaOS_cortex_mx_ee_cpu.inc **** 	@author Giuseppe Serano
  46:Generated_Source\PSoC5/ErikaOS_cortex_mx_ee_cpu.inc **** 	@date 2011
  47:Generated_Source\PSoC5/ErikaOS_cortex_mx_ee_cpu.inc **** */ 
  48:Generated_Source\PSoC5/ErikaOS_cortex_mx_ee_cpu.inc ****     
  49:Generated_Source\PSoC5/ErikaOS_cortex_mx_ee_cpu.inc **** /*
  50:Generated_Source\PSoC5/ErikaOS_cortex_mx_ee_cpu.inc ****  * PSoC Port and API Generation
  51:Generated_Source\PSoC5/ErikaOS_cortex_mx_ee_cpu.inc ****  * Carlos Fernando Meier Martinez
  52:Generated_Source\PSoC5/ErikaOS_cortex_mx_ee_cpu.inc ****  * Hochschule Darmstadt, Germany. 2017.
  53:Generated_Source\PSoC5/ErikaOS_cortex_mx_ee_cpu.inc ****  */
  54:Generated_Source\PSoC5/ErikaOS_cortex_mx_ee_cpu.inc **** 
  55:Generated_Source\PSoC5/ErikaOS_cortex_mx_ee_cpu.inc **** #ifndef __INCLUDE_CORTEX_MX_EE_CPU_H__
  56:Generated_Source\PSoC5/ErikaOS_cortex_mx_ee_cpu.inc **** #define __INCLUDE_CORTEX_MX_EE_CPU_H__
  57:Generated_Source\PSoC5/ErikaOS_cortex_mx_ee_cpu.inc **** 
  58:Generated_Source\PSoC5/ErikaOS_cortex_mx_ee_cpu.inc **** #include "ErikaOS_eecfg.inc"
  59:Generated_Source\PSoC5/ErikaOS_cortex_mx_ee_cpu.inc **** 
  60:Generated_Source\PSoC5/ErikaOS_cortex_mx_ee_cpu.inc **** 
  61:Generated_Source\PSoC5/ErikaOS_cortex_mx_ee_cpu.inc **** #ifdef __GNU__
  62:Generated_Source\PSoC5/ErikaOS_cortex_mx_ee_cpu.inc **** #include "ErikaOS_common_ee_compiler_gcc.inc"
  63:Generated_Source\PSoC5/ErikaOS_cortex_mx_ee_cpu.inc **** #endif
  64:Generated_Source\PSoC5/ErikaOS_cortex_mx_ee_cpu.inc **** 
  65:Generated_Source\PSoC5/ErikaOS_cortex_mx_ee_cpu.inc **** /* Initial stack offset (in words): Used in multistack. */
  66:Generated_Source\PSoC5/ErikaOS_cortex_mx_ee_cpu.inc **** #ifndef CORTEX_MX_INIT_TOS_OFFSET
  67:Generated_Source\PSoC5/ErikaOS_cortex_mx_ee_cpu.inc **** #define CORTEX_MX_INIT_TOS_OFFSET 10
  68:Generated_Source\PSoC5/ErikaOS_cortex_mx_ee_cpu.inc **** #endif
ARM GAS  C:\Users\rbhar\AppData\Local\Temp\cckgNYUc.s 			page 6


  69:Generated_Source\PSoC5/ErikaOS_cortex_mx_ee_cpu.inc **** 
  70:Generated_Source\PSoC5/ErikaOS_cortex_mx_ee_cpu.inc **** /*************************************************************************
  71:Generated_Source\PSoC5/ErikaOS_cortex_mx_ee_cpu.inc ****  HAL Types and structures
  72:Generated_Source\PSoC5/ErikaOS_cortex_mx_ee_cpu.inc ****  *************************************************************************/
  73:Generated_Source\PSoC5/ErikaOS_cortex_mx_ee_cpu.inc **** 
  74:Generated_Source\PSoC5/ErikaOS_cortex_mx_ee_cpu.inc **** /* Primitive data types */
  75:Generated_Source\PSoC5/ErikaOS_cortex_mx_ee_cpu.inc **** #include "ErikaOS_common_ee_types.inc"
  76:Generated_Source\PSoC5/ErikaOS_cortex_mx_ee_cpu.inc **** 
  77:Generated_Source\PSoC5/ErikaOS_cortex_mx_ee_cpu.inc **** typedef EE_UINT32 EE_UREG;
  78:Generated_Source\PSoC5/ErikaOS_cortex_mx_ee_cpu.inc **** typedef EE_INT32  EE_SREG;
  79:Generated_Source\PSoC5/ErikaOS_cortex_mx_ee_cpu.inc **** typedef EE_UINT32 EE_FREG;
  80:Generated_Source\PSoC5/ErikaOS_cortex_mx_ee_cpu.inc **** #define EE_UREG_SIZE 4
  81:Generated_Source\PSoC5/ErikaOS_cortex_mx_ee_cpu.inc **** 
  82:Generated_Source\PSoC5/ErikaOS_cortex_mx_ee_cpu.inc **** /* boolean type */
  83:Generated_Source\PSoC5/ErikaOS_cortex_mx_ee_cpu.inc **** #ifndef EE_TYPEBOOL
  84:Generated_Source\PSoC5/ErikaOS_cortex_mx_ee_cpu.inc **** typedef EE_UREG EE_TYPEBOOL;
  85:Generated_Source\PSoC5/ErikaOS_cortex_mx_ee_cpu.inc **** #endif
  86:Generated_Source\PSoC5/ErikaOS_cortex_mx_ee_cpu.inc **** 
  87:Generated_Source\PSoC5/ErikaOS_cortex_mx_ee_cpu.inc **** /* boolean true define */
  88:Generated_Source\PSoC5/ErikaOS_cortex_mx_ee_cpu.inc **** #ifndef EE_TRUE
  89:Generated_Source\PSoC5/ErikaOS_cortex_mx_ee_cpu.inc **** #define EE_TRUE ((EE_TYPEBOOL)1U)
  90:Generated_Source\PSoC5/ErikaOS_cortex_mx_ee_cpu.inc **** #endif
  91:Generated_Source\PSoC5/ErikaOS_cortex_mx_ee_cpu.inc **** 
  92:Generated_Source\PSoC5/ErikaOS_cortex_mx_ee_cpu.inc **** /* boolean false define */
  93:Generated_Source\PSoC5/ErikaOS_cortex_mx_ee_cpu.inc **** #ifndef EE_FALSE
  94:Generated_Source\PSoC5/ErikaOS_cortex_mx_ee_cpu.inc **** #define EE_FALSE ((EE_TYPEBOOL)0U)
  95:Generated_Source\PSoC5/ErikaOS_cortex_mx_ee_cpu.inc **** #endif
  96:Generated_Source\PSoC5/ErikaOS_cortex_mx_ee_cpu.inc **** 
  97:Generated_Source\PSoC5/ErikaOS_cortex_mx_ee_cpu.inc **** #define	EE_HWREG_PTR		volatile EE_UREG *
  98:Generated_Source\PSoC5/ErikaOS_cortex_mx_ee_cpu.inc **** #define	EE_HWREG_ADDR(x)	((EE_HWREG_PTR)(x))
  99:Generated_Source\PSoC5/ErikaOS_cortex_mx_ee_cpu.inc **** #define	EE_HWREG(x)		(*EE_HWREG_ADDR(x))
 100:Generated_Source\PSoC5/ErikaOS_cortex_mx_ee_cpu.inc **** 
 101:Generated_Source\PSoC5/ErikaOS_cortex_mx_ee_cpu.inc **** #ifdef __GNU__
 102:Generated_Source\PSoC5/ErikaOS_cortex_mx_ee_cpu.inc **** 
 103:Generated_Source\PSoC5/ErikaOS_cortex_mx_ee_cpu.inc **** /* Get current SP */
 104:Generated_Source\PSoC5/ErikaOS_cortex_mx_ee_cpu.inc **** __INLINE__ EE_UINT32  __current_sp(void)
 105:Generated_Source\PSoC5/ErikaOS_cortex_mx_ee_cpu.inc **** {
 106:Generated_Source\PSoC5/ErikaOS_cortex_mx_ee_cpu.inc **** EE_UINT32 temp;
 107:Generated_Source\PSoC5/ErikaOS_cortex_mx_ee_cpu.inc **** __ASM ("mov %0, sp" : "=r" (temp) : );
 108:Generated_Source\PSoC5/ErikaOS_cortex_mx_ee_cpu.inc **** return temp;
 109:Generated_Source\PSoC5/ErikaOS_cortex_mx_ee_cpu.inc **** }
 110:Generated_Source\PSoC5/ErikaOS_cortex_mx_ee_cpu.inc **** 
 111:Generated_Source\PSoC5/ErikaOS_cortex_mx_ee_cpu.inc **** /* Set a breakpoint */
 112:Generated_Source\PSoC5/ErikaOS_cortex_mx_ee_cpu.inc **** #define __breakpoint(value)	__ASM ("bkpt "#value)
 113:Generated_Source\PSoC5/ErikaOS_cortex_mx_ee_cpu.inc **** 
 114:Generated_Source\PSoC5/ErikaOS_cortex_mx_ee_cpu.inc **** #endif
 115:Generated_Source\PSoC5/ErikaOS_cortex_mx_ee_cpu.inc **** 
 116:Generated_Source\PSoC5/ErikaOS_cortex_mx_ee_cpu.inc **** /* ISR Priority representation type */
 117:Generated_Source\PSoC5/ErikaOS_cortex_mx_ee_cpu.inc **** typedef EE_UREG EE_TYPEISR2PRIO;
 118:Generated_Source\PSoC5/ErikaOS_cortex_mx_ee_cpu.inc **** 
 119:Generated_Source\PSoC5/ErikaOS_cortex_mx_ee_cpu.inc **** /* Thread IDs */
 120:Generated_Source\PSoC5/ErikaOS_cortex_mx_ee_cpu.inc **** typedef EE_INT32 EE_TID;
 121:Generated_Source\PSoC5/ErikaOS_cortex_mx_ee_cpu.inc **** 
 122:Generated_Source\PSoC5/ErikaOS_cortex_mx_ee_cpu.inc **** /* Thread IDs - unsigned version*/
 123:Generated_Source\PSoC5/ErikaOS_cortex_mx_ee_cpu.inc **** typedef EE_UINT32 EE_UTID;
 124:Generated_Source\PSoC5/ErikaOS_cortex_mx_ee_cpu.inc **** 
 125:Generated_Source\PSoC5/ErikaOS_cortex_mx_ee_cpu.inc **** /* Used by the common layer to decide whether to start a new thread */
ARM GAS  C:\Users\rbhar\AppData\Local\Temp\cckgNYUc.s 			page 7


 126:Generated_Source\PSoC5/ErikaOS_cortex_mx_ee_cpu.inc **** #define TID_IS_STACKED_MARK 0x80000000
 127:Generated_Source\PSoC5/ErikaOS_cortex_mx_ee_cpu.inc **** 
 128:Generated_Source\PSoC5/ErikaOS_cortex_mx_ee_cpu.inc **** /* EE_TYPEIRQ is currently unused */
 129:Generated_Source\PSoC5/ErikaOS_cortex_mx_ee_cpu.inc **** 
 130:Generated_Source\PSoC5/ErikaOS_cortex_mx_ee_cpu.inc **** /* XXX: define EE_TIME? */
 131:Generated_Source\PSoC5/ErikaOS_cortex_mx_ee_cpu.inc **** 
 132:Generated_Source\PSoC5/ErikaOS_cortex_mx_ee_cpu.inc **** /* Use the "standard" implementation */
 133:Generated_Source\PSoC5/ErikaOS_cortex_mx_ee_cpu.inc **** #include "ErikaOS_common_ee_hal_structs.inc"
 134:Generated_Source\PSoC5/ErikaOS_cortex_mx_ee_cpu.inc **** 
 135:Generated_Source\PSoC5/ErikaOS_cortex_mx_ee_cpu.inc **** /******************************************************************************
 136:Generated_Source\PSoC5/ErikaOS_cortex_mx_ee_cpu.inc ****  Application dependent data types
 137:Generated_Source\PSoC5/ErikaOS_cortex_mx_ee_cpu.inc ****  ******************************************************************************/
 138:Generated_Source\PSoC5/ErikaOS_cortex_mx_ee_cpu.inc **** 
 139:Generated_Source\PSoC5/ErikaOS_cortex_mx_ee_cpu.inc **** #ifdef	__HAS_TYPES_H__
 140:Generated_Source\PSoC5/ErikaOS_cortex_mx_ee_cpu.inc **** #include	"types.h"
 141:Generated_Source\PSoC5/ErikaOS_cortex_mx_ee_cpu.inc **** #endif
 142:Generated_Source\PSoC5/ErikaOS_cortex_mx_ee_cpu.inc **** 
 143:Generated_Source\PSoC5/ErikaOS_cortex_mx_ee_cpu.inc **** /******************************************************************************
 144:Generated_Source\PSoC5/ErikaOS_cortex_mx_ee_cpu.inc ****  CPU Peripherals
 145:Generated_Source\PSoC5/ErikaOS_cortex_mx_ee_cpu.inc ****  ******************************************************************************/
 146:Generated_Source\PSoC5/ErikaOS_cortex_mx_ee_cpu.inc **** 
 147:Generated_Source\PSoC5/ErikaOS_cortex_mx_ee_cpu.inc **** #ifdef __CORTEX_MX__
 148:Generated_Source\PSoC5/ErikaOS_cortex_mx_ee_cpu.inc **** #include "ErikaOS_cortex_mx_ee_nvic.inc"
 149:Generated_Source\PSoC5/ErikaOS_cortex_mx_ee_cpu.inc **** #include "ErikaOS_cortex_mx_ee_systick.inc"
 150:Generated_Source\PSoC5/ErikaOS_cortex_mx_ee_cpu.inc **** #endif
 151:Generated_Source\PSoC5/ErikaOS_cortex_mx_ee_cpu.inc **** 
 152:Generated_Source\PSoC5/ErikaOS_cortex_mx_ee_cpu.inc **** /******************************************************************************
 153:Generated_Source\PSoC5/ErikaOS_cortex_mx_ee_cpu.inc ****  HAL Variables
 154:Generated_Source\PSoC5/ErikaOS_cortex_mx_ee_cpu.inc ****  ******************************************************************************/
 155:Generated_Source\PSoC5/ErikaOS_cortex_mx_ee_cpu.inc **** 
 156:Generated_Source\PSoC5/ErikaOS_cortex_mx_ee_cpu.inc **** #ifdef __MULTI__
 157:Generated_Source\PSoC5/ErikaOS_cortex_mx_ee_cpu.inc **** 
 158:Generated_Source\PSoC5/ErikaOS_cortex_mx_ee_cpu.inc **** /* Top-of-stack of each private stack */
 159:Generated_Source\PSoC5/ErikaOS_cortex_mx_ee_cpu.inc **** extern struct EE_TOS EE_cortex_mx_system_tos[];
 160:Generated_Source\PSoC5/ErikaOS_cortex_mx_ee_cpu.inc **** //#define	EE_std_system_tos EE_cortex_mx_system_tos
 161:Generated_Source\PSoC5/ErikaOS_cortex_mx_ee_cpu.inc **** 
 162:Generated_Source\PSoC5/ErikaOS_cortex_mx_ee_cpu.inc **** /* Index of the current stack */
 163:Generated_Source\PSoC5/ErikaOS_cortex_mx_ee_cpu.inc **** extern EE_UREG EE_cortex_mx_active_tos;
 164:Generated_Source\PSoC5/ErikaOS_cortex_mx_ee_cpu.inc **** #define	EE_hal_active_tos EE_cortex_mx_active_tos
 165:Generated_Source\PSoC5/ErikaOS_cortex_mx_ee_cpu.inc **** 
 166:Generated_Source\PSoC5/ErikaOS_cortex_mx_ee_cpu.inc **** /*extern	EE_UREG EE_pic30_thread_tos[];
 167:Generated_Source\PSoC5/ErikaOS_cortex_mx_ee_cpu.inc **** #define	EE_std_thread_tos EE_pic30_thread_tos */
 168:Generated_Source\PSoC5/ErikaOS_cortex_mx_ee_cpu.inc **** #endif /* __MULTI__ */
 169:Generated_Source\PSoC5/ErikaOS_cortex_mx_ee_cpu.inc **** 
 170:Generated_Source\PSoC5/ErikaOS_cortex_mx_ee_cpu.inc **** /*********************************************************************
 171:Generated_Source\PSoC5/ErikaOS_cortex_mx_ee_cpu.inc ****  Cortex M0 interrupt disabling/enabling
 172:Generated_Source\PSoC5/ErikaOS_cortex_mx_ee_cpu.inc ****  *********************************************************************/
 173:Generated_Source\PSoC5/ErikaOS_cortex_mx_ee_cpu.inc **** 
 174:Generated_Source\PSoC5/ErikaOS_cortex_mx_ee_cpu.inc **** /* Used to check the value returned by EE_cortex_mx_disableIRQ */
 175:Generated_Source\PSoC5/ErikaOS_cortex_mx_ee_cpu.inc **** #define EE_cortex_mx_are_IRQs_enabled(ie) ((ie) ^ 1)
 176:Generated_Source\PSoC5/ErikaOS_cortex_mx_ee_cpu.inc **** 
 177:Generated_Source\PSoC5/ErikaOS_cortex_mx_ee_cpu.inc **** /**
 178:Generated_Source\PSoC5/ErikaOS_cortex_mx_ee_cpu.inc ****  * Enable interrupts
 179:Generated_Source\PSoC5/ErikaOS_cortex_mx_ee_cpu.inc ****  */
 180:Generated_Source\PSoC5/ErikaOS_cortex_mx_ee_cpu.inc **** __INLINE__ void  EE_cortex_mx_enableIRQ(void)
 181:Generated_Source\PSoC5/ErikaOS_cortex_mx_ee_cpu.inc **** {
 182:Generated_Source\PSoC5/ErikaOS_cortex_mx_ee_cpu.inc **** #ifdef __IAR__
ARM GAS  C:\Users\rbhar\AppData\Local\Temp\cckgNYUc.s 			page 8


 183:Generated_Source\PSoC5/ErikaOS_cortex_mx_ee_cpu.inc **** 	__ASM ("cpsie i");
 184:Generated_Source\PSoC5/ErikaOS_cortex_mx_ee_cpu.inc **** #else	/* __IAR__ */
 185:Generated_Source\PSoC5/ErikaOS_cortex_mx_ee_cpu.inc **** #ifdef __CCS__
 186:Generated_Source\PSoC5/ErikaOS_cortex_mx_ee_cpu.inc **** 	__ASM ("    cpsie    i\n");
 187:Generated_Source\PSoC5/ErikaOS_cortex_mx_ee_cpu.inc **** #else	/* __CCS__ */
 188:Generated_Source\PSoC5/ErikaOS_cortex_mx_ee_cpu.inc **** #ifdef __KEIL__
 189:Generated_Source\PSoC5/ErikaOS_cortex_mx_ee_cpu.inc **** 	__enable_irq();
 190:Generated_Source\PSoC5/ErikaOS_cortex_mx_ee_cpu.inc **** #else	/* __KEIL__ */
 191:Generated_Source\PSoC5/ErikaOS_cortex_mx_ee_cpu.inc **** 	__ASM volatile("cpsie i");
 192:Generated_Source\PSoC5/ErikaOS_cortex_mx_ee_cpu.inc **** #endif	/* !__KEIL__ */
 193:Generated_Source\PSoC5/ErikaOS_cortex_mx_ee_cpu.inc **** #endif	/* !__CCS__ */
 194:Generated_Source\PSoC5/ErikaOS_cortex_mx_ee_cpu.inc **** #endif	/* !__IAR__ */
 195:Generated_Source\PSoC5/ErikaOS_cortex_mx_ee_cpu.inc **** }
 196:Generated_Source\PSoC5/ErikaOS_cortex_mx_ee_cpu.inc **** 
 197:Generated_Source\PSoC5/ErikaOS_cortex_mx_ee_cpu.inc **** /**
 198:Generated_Source\PSoC5/ErikaOS_cortex_mx_ee_cpu.inc ****  * Disable interrupts
 199:Generated_Source\PSoC5/ErikaOS_cortex_mx_ee_cpu.inc ****  */
 200:Generated_Source\PSoC5/ErikaOS_cortex_mx_ee_cpu.inc **** __INLINE__ void  EE_cortex_mx_disableIRQ(void)
 201:Generated_Source\PSoC5/ErikaOS_cortex_mx_ee_cpu.inc **** {
 202:Generated_Source\PSoC5/ErikaOS_cortex_mx_ee_cpu.inc **** #ifdef __IAR__
 203:Generated_Source\PSoC5/ErikaOS_cortex_mx_ee_cpu.inc **** 	__ASM ("cpsid i");
 204:Generated_Source\PSoC5/ErikaOS_cortex_mx_ee_cpu.inc **** #else	/* __IAR__ */
 205:Generated_Source\PSoC5/ErikaOS_cortex_mx_ee_cpu.inc **** #ifdef __CCS__
 206:Generated_Source\PSoC5/ErikaOS_cortex_mx_ee_cpu.inc **** 	__ASM ("    cpsid    i\n");
 207:Generated_Source\PSoC5/ErikaOS_cortex_mx_ee_cpu.inc **** #else	/* __CCS__ */
 208:Generated_Source\PSoC5/ErikaOS_cortex_mx_ee_cpu.inc **** #ifdef __KEIL__
 209:Generated_Source\PSoC5/ErikaOS_cortex_mx_ee_cpu.inc **** 	__disable_irq();
 210:Generated_Source\PSoC5/ErikaOS_cortex_mx_ee_cpu.inc **** #else	/* __KEIL__ */
 211:Generated_Source\PSoC5/ErikaOS_cortex_mx_ee_cpu.inc **** 	__ASM volatile("cpsid i");
 133              		.loc 2 211 0
 134              		.syntax unified
 135              	@ 211 "Generated_Source\PSoC5/ErikaOS_cortex_mx_ee_cpu.inc" 1
 136 000a 72B6     		cpsid i
 137              	@ 0 "" 2
 138              		.thumb
 139              		.syntax unified
 140              	.LBE51:
 141              	.LBE50:
 142              	.LBB52:
 143              	.LBB53:
 212:Generated_Source\PSoC5/ErikaOS_cortex_mx_ee_cpu.inc **** #endif	/* !__KEIL__ */
 213:Generated_Source\PSoC5/ErikaOS_cortex_mx_ee_cpu.inc **** #endif	/* !__CCS__ */
 214:Generated_Source\PSoC5/ErikaOS_cortex_mx_ee_cpu.inc **** #endif	/* !__IAR__ */
 215:Generated_Source\PSoC5/ErikaOS_cortex_mx_ee_cpu.inc **** }
 216:Generated_Source\PSoC5/ErikaOS_cortex_mx_ee_cpu.inc **** 
 217:Generated_Source\PSoC5/ErikaOS_cortex_mx_ee_cpu.inc **** /**
 218:Generated_Source\PSoC5/ErikaOS_cortex_mx_ee_cpu.inc ****  * Resume interrupts
 219:Generated_Source\PSoC5/ErikaOS_cortex_mx_ee_cpu.inc ****  */
 220:Generated_Source\PSoC5/ErikaOS_cortex_mx_ee_cpu.inc **** __INLINE__ void  EE_cortex_mx_resumeIRQ(EE_FREG f)
 221:Generated_Source\PSoC5/ErikaOS_cortex_mx_ee_cpu.inc **** {
 222:Generated_Source\PSoC5/ErikaOS_cortex_mx_ee_cpu.inc **** #ifdef __IAR__
 223:Generated_Source\PSoC5/ErikaOS_cortex_mx_ee_cpu.inc **** 	__set_PRIMASK(f);
 224:Generated_Source\PSoC5/ErikaOS_cortex_mx_ee_cpu.inc **** #else	/* __IAR__ */
 225:Generated_Source\PSoC5/ErikaOS_cortex_mx_ee_cpu.inc **** #ifdef __CCS__
 226:Generated_Source\PSoC5/ErikaOS_cortex_mx_ee_cpu.inc **** 	__ASM ("    msr    primask, r0\n");
 227:Generated_Source\PSoC5/ErikaOS_cortex_mx_ee_cpu.inc **** #else	/* __CCS__ */
 228:Generated_Source\PSoC5/ErikaOS_cortex_mx_ee_cpu.inc **** #ifdef __KEIL__
ARM GAS  C:\Users\rbhar\AppData\Local\Temp\cckgNYUc.s 			page 9


 229:Generated_Source\PSoC5/ErikaOS_cortex_mx_ee_cpu.inc **** 	register EE_FREG PRIMASK __ASM("primask");
 230:Generated_Source\PSoC5/ErikaOS_cortex_mx_ee_cpu.inc **** 	PRIMASK = f;
 231:Generated_Source\PSoC5/ErikaOS_cortex_mx_ee_cpu.inc **** #else	/* __KEIL__ */
 232:Generated_Source\PSoC5/ErikaOS_cortex_mx_ee_cpu.inc **** 	__ASM volatile("msr primask, %0" :: "r" (f));
 233:Generated_Source\PSoC5/ErikaOS_cortex_mx_ee_cpu.inc **** #endif	/* !__KEIL__ */
 234:Generated_Source\PSoC5/ErikaOS_cortex_mx_ee_cpu.inc **** #endif	/* !__CCS__ */
 235:Generated_Source\PSoC5/ErikaOS_cortex_mx_ee_cpu.inc **** #endif	/* !__IAR__ */
 236:Generated_Source\PSoC5/ErikaOS_cortex_mx_ee_cpu.inc **** }
 237:Generated_Source\PSoC5/ErikaOS_cortex_mx_ee_cpu.inc **** 
 238:Generated_Source\PSoC5/ErikaOS_cortex_mx_ee_cpu.inc **** /**
 239:Generated_Source\PSoC5/ErikaOS_cortex_mx_ee_cpu.inc ****  * Suspend interrupts
 240:Generated_Source\PSoC5/ErikaOS_cortex_mx_ee_cpu.inc ****  */
 241:Generated_Source\PSoC5/ErikaOS_cortex_mx_ee_cpu.inc **** __INLINE__ EE_FREG  EE_cortex_mx_suspendIRQ(void)
 242:Generated_Source\PSoC5/ErikaOS_cortex_mx_ee_cpu.inc **** {
 243:Generated_Source\PSoC5/ErikaOS_cortex_mx_ee_cpu.inc **** #ifndef __CCS__
 244:Generated_Source\PSoC5/ErikaOS_cortex_mx_ee_cpu.inc **** 	EE_FREG istat;
 245:Generated_Source\PSoC5/ErikaOS_cortex_mx_ee_cpu.inc **** #endif
 246:Generated_Source\PSoC5/ErikaOS_cortex_mx_ee_cpu.inc **** #ifdef __IAR__
 247:Generated_Source\PSoC5/ErikaOS_cortex_mx_ee_cpu.inc **** 	 istat = __get_PRIMASK();
 248:Generated_Source\PSoC5/ErikaOS_cortex_mx_ee_cpu.inc **** 	__ASM ("cpsid i");
 249:Generated_Source\PSoC5/ErikaOS_cortex_mx_ee_cpu.inc **** #else	/* __IAR__ */
 250:Generated_Source\PSoC5/ErikaOS_cortex_mx_ee_cpu.inc **** #ifdef __CCS__
 251:Generated_Source\PSoC5/ErikaOS_cortex_mx_ee_cpu.inc **** 	__ASM ("    mrs     r0, primask\n"
 252:Generated_Source\PSoC5/ErikaOS_cortex_mx_ee_cpu.inc **** 	       "    cpsid   i\n"
 253:Generated_Source\PSoC5/ErikaOS_cortex_mx_ee_cpu.inc **** 	       "    bx      lr\n");
 254:Generated_Source\PSoC5/ErikaOS_cortex_mx_ee_cpu.inc **** #else	/* __CCS__ */
 255:Generated_Source\PSoC5/ErikaOS_cortex_mx_ee_cpu.inc **** #ifdef __KEIL__
 256:Generated_Source\PSoC5/ErikaOS_cortex_mx_ee_cpu.inc **** 	register EE_FREG PRIMASK __ASM("primask");
 257:Generated_Source\PSoC5/ErikaOS_cortex_mx_ee_cpu.inc **** 	istat = PRIMASK;
 258:Generated_Source\PSoC5/ErikaOS_cortex_mx_ee_cpu.inc **** 	__disable_irq();
 259:Generated_Source\PSoC5/ErikaOS_cortex_mx_ee_cpu.inc **** #else	/* __KEIL__ */
 260:Generated_Source\PSoC5/ErikaOS_cortex_mx_ee_cpu.inc **** 	__ASM volatile ("mrs %0, primask" : "=r" (istat) );
 261:Generated_Source\PSoC5/ErikaOS_cortex_mx_ee_cpu.inc **** 	__ASM volatile ("cpsid i");
 262:Generated_Source\PSoC5/ErikaOS_cortex_mx_ee_cpu.inc **** #endif	/* !__KEIL__ */
 263:Generated_Source\PSoC5/ErikaOS_cortex_mx_ee_cpu.inc **** #endif	/* !__CCS__ */
 264:Generated_Source\PSoC5/ErikaOS_cortex_mx_ee_cpu.inc **** #endif	/* !__IAR__ */
 265:Generated_Source\PSoC5/ErikaOS_cortex_mx_ee_cpu.inc **** #ifdef __CCS__
 266:Generated_Source\PSoC5/ErikaOS_cortex_mx_ee_cpu.inc **** 	return 0;
 267:Generated_Source\PSoC5/ErikaOS_cortex_mx_ee_cpu.inc **** #else
 268:Generated_Source\PSoC5/ErikaOS_cortex_mx_ee_cpu.inc **** 	return istat;
 269:Generated_Source\PSoC5/ErikaOS_cortex_mx_ee_cpu.inc **** #endif
 270:Generated_Source\PSoC5/ErikaOS_cortex_mx_ee_cpu.inc **** }
 271:Generated_Source\PSoC5/ErikaOS_cortex_mx_ee_cpu.inc **** 
 272:Generated_Source\PSoC5/ErikaOS_cortex_mx_ee_cpu.inc **** /**
 273:Generated_Source\PSoC5/ErikaOS_cortex_mx_ee_cpu.inc ****  * Return true (not 0) if IRQs are enabled, 0 (false) if IRQ are disabled.
 274:Generated_Source\PSoC5/ErikaOS_cortex_mx_ee_cpu.inc ****  */
 275:Generated_Source\PSoC5/ErikaOS_cortex_mx_ee_cpu.inc **** __INLINE__ EE_UINT32  EE_cortex_mx_get_IRQ_enabled(void)
 276:Generated_Source\PSoC5/ErikaOS_cortex_mx_ee_cpu.inc **** {
 277:Generated_Source\PSoC5/ErikaOS_cortex_mx_ee_cpu.inc **** #ifndef __CCS__
 278:Generated_Source\PSoC5/ErikaOS_cortex_mx_ee_cpu.inc **** 	EE_UREG ie;
 279:Generated_Source\PSoC5/ErikaOS_cortex_mx_ee_cpu.inc **** #endif
 280:Generated_Source\PSoC5/ErikaOS_cortex_mx_ee_cpu.inc **** #ifdef __IAR__
 281:Generated_Source\PSoC5/ErikaOS_cortex_mx_ee_cpu.inc **** 	ie = __get_PRIMASK();
 282:Generated_Source\PSoC5/ErikaOS_cortex_mx_ee_cpu.inc **** #else	/* __IAR__ */
 283:Generated_Source\PSoC5/ErikaOS_cortex_mx_ee_cpu.inc **** #ifdef __CCS__
 284:Generated_Source\PSoC5/ErikaOS_cortex_mx_ee_cpu.inc **** 	__ASM ("    MRS     r0, PRIMASK\n"
 285:Generated_Source\PSoC5/ErikaOS_cortex_mx_ee_cpu.inc **** 	       "    EOR     r0, #1\n"
ARM GAS  C:\Users\rbhar\AppData\Local\Temp\cckgNYUc.s 			page 10


 286:Generated_Source\PSoC5/ErikaOS_cortex_mx_ee_cpu.inc **** 	       "    bx      lr\n");
 287:Generated_Source\PSoC5/ErikaOS_cortex_mx_ee_cpu.inc **** #else	/* __CCS__ */
 288:Generated_Source\PSoC5/ErikaOS_cortex_mx_ee_cpu.inc **** #ifdef __KEIL__
 289:Generated_Source\PSoC5/ErikaOS_cortex_mx_ee_cpu.inc **** 	register EE_FREG PRIMASK __ASM("primask");
 290:Generated_Source\PSoC5/ErikaOS_cortex_mx_ee_cpu.inc **** 	ie = PRIMASK;
 291:Generated_Source\PSoC5/ErikaOS_cortex_mx_ee_cpu.inc **** #else	/* __KEIL__ */
 292:Generated_Source\PSoC5/ErikaOS_cortex_mx_ee_cpu.inc **** 	__ASM volatile ("MRS %0, primask" : "=r" (ie) );
 293:Generated_Source\PSoC5/ErikaOS_cortex_mx_ee_cpu.inc **** #endif	/* !__KEIL__ */
 294:Generated_Source\PSoC5/ErikaOS_cortex_mx_ee_cpu.inc **** #endif	/* !__CCS__ */
 295:Generated_Source\PSoC5/ErikaOS_cortex_mx_ee_cpu.inc **** #endif	/* !__IAR__ */
 296:Generated_Source\PSoC5/ErikaOS_cortex_mx_ee_cpu.inc **** #ifdef __CCS__
 297:Generated_Source\PSoC5/ErikaOS_cortex_mx_ee_cpu.inc **** 	return 0;
 298:Generated_Source\PSoC5/ErikaOS_cortex_mx_ee_cpu.inc **** #else
 299:Generated_Source\PSoC5/ErikaOS_cortex_mx_ee_cpu.inc **** 	return EE_cortex_mx_are_IRQs_enabled(ie);
 300:Generated_Source\PSoC5/ErikaOS_cortex_mx_ee_cpu.inc **** #endif
 301:Generated_Source\PSoC5/ErikaOS_cortex_mx_ee_cpu.inc **** }
 302:Generated_Source\PSoC5/ErikaOS_cortex_mx_ee_cpu.inc **** 
 303:Generated_Source\PSoC5/ErikaOS_cortex_mx_ee_cpu.inc **** __INLINE__ EE_TYPEISR2PRIO  EE_cortex_mx_get_int_prio(void)
 304:Generated_Source\PSoC5/ErikaOS_cortex_mx_ee_cpu.inc **** {
 305:Generated_Source\PSoC5/ErikaOS_cortex_mx_ee_cpu.inc **** #ifdef __CORTEX_M4__
 306:Generated_Source\PSoC5/ErikaOS_cortex_mx_ee_cpu.inc **** 
 307:Generated_Source\PSoC5/ErikaOS_cortex_mx_ee_cpu.inc **** #ifndef __CCS__
 308:Generated_Source\PSoC5/ErikaOS_cortex_mx_ee_cpu.inc **** 	register EE_UREG prio;
 309:Generated_Source\PSoC5/ErikaOS_cortex_mx_ee_cpu.inc **** #ifdef	__KEIL__
 310:Generated_Source\PSoC5/ErikaOS_cortex_mx_ee_cpu.inc **** 	register EE_FREG BASEPRI __ASM("basepri");
 311:Generated_Source\PSoC5/ErikaOS_cortex_mx_ee_cpu.inc **** #endif
 312:Generated_Source\PSoC5/ErikaOS_cortex_mx_ee_cpu.inc **** 
 313:Generated_Source\PSoC5/ErikaOS_cortex_mx_ee_cpu.inc **** #endif
 314:Generated_Source\PSoC5/ErikaOS_cortex_mx_ee_cpu.inc **** 
 315:Generated_Source\PSoC5/ErikaOS_cortex_mx_ee_cpu.inc **** #ifdef __CCS__
 316:Generated_Source\PSoC5/ErikaOS_cortex_mx_ee_cpu.inc **** 	/* NVIC_INT_PRI_S = 5 */
 317:Generated_Source\PSoC5/ErikaOS_cortex_mx_ee_cpu.inc **** 	__ASM ("    MRS     R0, BASEPRI\n"
 318:Generated_Source\PSoC5/ErikaOS_cortex_mx_ee_cpu.inc **** 	       "    ASR     R0, #5\n"
 319:Generated_Source\PSoC5/ErikaOS_cortex_mx_ee_cpu.inc **** 	       "    BLX     LR\n");
 320:Generated_Source\PSoC5/ErikaOS_cortex_mx_ee_cpu.inc **** #else	/* __CCS__ */
 321:Generated_Source\PSoC5/ErikaOS_cortex_mx_ee_cpu.inc **** #ifdef __KEIL__
 322:Generated_Source\PSoC5/ErikaOS_cortex_mx_ee_cpu.inc **** 	prio = BASEPRI;
 323:Generated_Source\PSoC5/ErikaOS_cortex_mx_ee_cpu.inc **** #else	/* __KEIL__ */
 324:Generated_Source\PSoC5/ErikaOS_cortex_mx_ee_cpu.inc **** #ifdef __GNU__
 325:Generated_Source\PSoC5/ErikaOS_cortex_mx_ee_cpu.inc **** 	__ASM volatile("MRS %0, BASEPRI" : "=r" (prio) :: );
 144              		.loc 2 325 0
 145              		.syntax unified
 146              	@ 325 "Generated_Source\PSoC5/ErikaOS_cortex_mx_ee_cpu.inc" 1
 147 000c EFF31184 		MRS r4, BASEPRI
 148              	@ 0 "" 2
 149              	.LVL7:
 150              		.thumb
 151              		.syntax unified
 152              	.LBE53:
 153              	.LBE52:
 154              	.LBB54:
 155              	.LBB55:
 326:Generated_Source\PSoC5/ErikaOS_cortex_mx_ee_cpu.inc **** #else
 327:Generated_Source\PSoC5/ErikaOS_cortex_mx_ee_cpu.inc **** 	__ASM volatile("MRS %0, BASEPRI" :: "=r" (prio));
 328:Generated_Source\PSoC5/ErikaOS_cortex_mx_ee_cpu.inc **** #endif	/* !__GNU__ */
 329:Generated_Source\PSoC5/ErikaOS_cortex_mx_ee_cpu.inc **** #endif	/* !__KEIL__ */
 330:Generated_Source\PSoC5/ErikaOS_cortex_mx_ee_cpu.inc **** #endif	/* !__CCS__ */
ARM GAS  C:\Users\rbhar\AppData\Local\Temp\cckgNYUc.s 			page 11


 331:Generated_Source\PSoC5/ErikaOS_cortex_mx_ee_cpu.inc **** 
 332:Generated_Source\PSoC5/ErikaOS_cortex_mx_ee_cpu.inc **** #ifdef __CCS__
 333:Generated_Source\PSoC5/ErikaOS_cortex_mx_ee_cpu.inc **** 	return 0;
 334:Generated_Source\PSoC5/ErikaOS_cortex_mx_ee_cpu.inc **** #else
 335:Generated_Source\PSoC5/ErikaOS_cortex_mx_ee_cpu.inc **** 	return prio >> NVIC_INT_PRI_S;
 336:Generated_Source\PSoC5/ErikaOS_cortex_mx_ee_cpu.inc **** #endif
 337:Generated_Source\PSoC5/ErikaOS_cortex_mx_ee_cpu.inc **** 
 338:Generated_Source\PSoC5/ErikaOS_cortex_mx_ee_cpu.inc **** #else	/* __CORTEX_M4__ */
 339:Generated_Source\PSoC5/ErikaOS_cortex_mx_ee_cpu.inc **** 	return 0;
 340:Generated_Source\PSoC5/ErikaOS_cortex_mx_ee_cpu.inc **** #endif	/* !__CORTEX_M4__ */
 341:Generated_Source\PSoC5/ErikaOS_cortex_mx_ee_cpu.inc **** }
 342:Generated_Source\PSoC5/ErikaOS_cortex_mx_ee_cpu.inc **** 
 343:Generated_Source\PSoC5/ErikaOS_cortex_mx_ee_cpu.inc **** __INLINE__ void  EE_cortex_mx_set_int_prio(
 344:Generated_Source\PSoC5/ErikaOS_cortex_mx_ee_cpu.inc ****   EE_TYPEISR2PRIO prio
 345:Generated_Source\PSoC5/ErikaOS_cortex_mx_ee_cpu.inc **** )
 346:Generated_Source\PSoC5/ErikaOS_cortex_mx_ee_cpu.inc **** {
 347:Generated_Source\PSoC5/ErikaOS_cortex_mx_ee_cpu.inc **** #ifdef __CORTEX_M4__
 348:Generated_Source\PSoC5/ErikaOS_cortex_mx_ee_cpu.inc **** #ifdef __CCS__
 349:Generated_Source\PSoC5/ErikaOS_cortex_mx_ee_cpu.inc **** 	/* NVIC_INT_PRI_S = 5 */
 350:Generated_Source\PSoC5/ErikaOS_cortex_mx_ee_cpu.inc **** 	__ASM ("    LSL    R0, #5\n"
 351:Generated_Source\PSoC5/ErikaOS_cortex_mx_ee_cpu.inc **** 	       "    MSR    BASEPRI, R0\n");
 352:Generated_Source\PSoC5/ErikaOS_cortex_mx_ee_cpu.inc **** #else	/* __CCS__ */
 353:Generated_Source\PSoC5/ErikaOS_cortex_mx_ee_cpu.inc **** #ifdef __KEIL__
 354:Generated_Source\PSoC5/ErikaOS_cortex_mx_ee_cpu.inc **** 	register EE_FREG BASEPRI __ASM("basepri");
 355:Generated_Source\PSoC5/ErikaOS_cortex_mx_ee_cpu.inc **** 	BASEPRI = (prio << NVIC_INT_PRI_S);
 356:Generated_Source\PSoC5/ErikaOS_cortex_mx_ee_cpu.inc **** #else	/* __KEIL__ */
 357:Generated_Source\PSoC5/ErikaOS_cortex_mx_ee_cpu.inc **** #ifdef __GNU__
 358:Generated_Source\PSoC5/ErikaOS_cortex_mx_ee_cpu.inc **** 	__ASM volatile("MSR BASEPRI, %0" :: "r" (prio << NVIC_INT_PRI_S) : );
 359:Generated_Source\PSoC5/ErikaOS_cortex_mx_ee_cpu.inc **** #else
 360:Generated_Source\PSoC5/ErikaOS_cortex_mx_ee_cpu.inc **** 	__ASM volatile("MSR BASEPRI, %0" :: "r" (prio << NVIC_INT_PRI_S));
 361:Generated_Source\PSoC5/ErikaOS_cortex_mx_ee_cpu.inc **** #endif	/* !__GNU__ */
 362:Generated_Source\PSoC5/ErikaOS_cortex_mx_ee_cpu.inc **** #endif	/* !__KEIL__ */
 363:Generated_Source\PSoC5/ErikaOS_cortex_mx_ee_cpu.inc **** #endif	/* !__CCS__ */
 364:Generated_Source\PSoC5/ErikaOS_cortex_mx_ee_cpu.inc **** #endif	/* __CORTEX_M4__ */
 365:Generated_Source\PSoC5/ErikaOS_cortex_mx_ee_cpu.inc **** }
 366:Generated_Source\PSoC5/ErikaOS_cortex_mx_ee_cpu.inc **** 
 367:Generated_Source\PSoC5/ErikaOS_cortex_mx_ee_cpu.inc **** __INLINE__ EE_TYPEISR2PRIO  EE_cortex_mx_get_isr_prio(
 368:Generated_Source\PSoC5/ErikaOS_cortex_mx_ee_cpu.inc ****   void
 369:Generated_Source\PSoC5/ErikaOS_cortex_mx_ee_cpu.inc **** )
 370:Generated_Source\PSoC5/ErikaOS_cortex_mx_ee_cpu.inc **** {
 371:Generated_Source\PSoC5/ErikaOS_cortex_mx_ee_cpu.inc **** #ifdef __CORTEX_M4__
 372:Generated_Source\PSoC5/ErikaOS_cortex_mx_ee_cpu.inc ****   register EE_UREG vectact = NVIC_INT_CTRL_R & NVIC_INT_CTRL_VEC_ACT_M;
 156              		.loc 2 372 0
 157 0010 1E4B     		ldr	r3, .L15
 158 0012 1B68     		ldr	r3, [r3]
 159 0014 DBB2     		uxtb	r3, r3
 160              	.LVL8:
 373:Generated_Source\PSoC5/ErikaOS_cortex_mx_ee_cpu.inc ****   register EE_TYPEISR2PRIO prio = 0;
 374:Generated_Source\PSoC5/ErikaOS_cortex_mx_ee_cpu.inc **** 
 375:Generated_Source\PSoC5/ErikaOS_cortex_mx_ee_cpu.inc ****   if (vectact > EE_CORTEX_MX_SYSTICK_EXC_NUM) {
 161              		.loc 2 375 0
 162 0016 0F2B     		cmp	r3, #15
 163 0018 10D9     		bls	.L10
 376:Generated_Source\PSoC5/ErikaOS_cortex_mx_ee_cpu.inc ****     vectact -= EE_CORTEX_MX_SYSTICK_EXC_NUM + 1;
 164              		.loc 2 376 0
 165 001a 103B     		subs	r3, r3, #16
 166              	.LVL9:
ARM GAS  C:\Users\rbhar\AppData\Local\Temp\cckgNYUc.s 			page 12


 377:Generated_Source\PSoC5/ErikaOS_cortex_mx_ee_cpu.inc ****     prio = NVIC_GET_PRI(vectact);
 167              		.loc 2 377 0
 168 001c 23F00302 		bic	r2, r3, #3
 169 0020 02F16042 		add	r2, r2, #-536870912
 170 0024 02F56442 		add	r2, r2, #58368
 171 0028 1168     		ldr	r1, [r2]
 172 002a DB00     		lsls	r3, r3, #3
 173              	.LVL10:
 174 002c 03F01803 		and	r3, r3, #24
 175 0030 E022     		movs	r2, #224
 176 0032 9A40     		lsls	r2, r2, r3
 177 0034 0A40     		ands	r2, r2, r1
 178 0036 22FA03F3 		lsr	r3, r2, r3
 179              	.LVL11:
 180 003a 06E0     		b	.L11
 181              	.LVL12:
 182              	.L10:
 378:Generated_Source\PSoC5/ErikaOS_cortex_mx_ee_cpu.inc ****   }
 379:Generated_Source\PSoC5/ErikaOS_cortex_mx_ee_cpu.inc **** #ifdef	__USE_SYSTICK__
 380:Generated_Source\PSoC5/ErikaOS_cortex_mx_ee_cpu.inc ****   else if (vectact == EE_CORTEX_MX_SYSTICK_EXC_NUM) {
 183              		.loc 2 380 0
 184 003c 0F2B     		cmp	r3, #15
 185 003e 03D1     		bne	.L14
 381:Generated_Source\PSoC5/ErikaOS_cortex_mx_ee_cpu.inc ****     prio = NVIC_SYS_PRI3_R >> NVIC_SYS_PRI3_TICK_S;
 186              		.loc 2 381 0
 187 0040 134B     		ldr	r3, .L15+4
 188              	.LVL13:
 189 0042 1B68     		ldr	r3, [r3]
 190 0044 1B0E     		lsrs	r3, r3, #24
 191              	.LVL14:
 192 0046 00E0     		b	.L11
 193              	.LVL15:
 194              	.L14:
 373:Generated_Source\PSoC5/ErikaOS_cortex_mx_ee_cpu.inc **** 
 195              		.loc 2 373 0
 196 0048 0023     		movs	r3, #0
 197              	.LVL16:
 198              	.L11:
 199              	.LBE55:
 200              	.LBE54:
 201              	.LBB56:
 202              	.LBB57:
 358:Generated_Source\PSoC5/ErikaOS_cortex_mx_ee_cpu.inc **** #else
 203              		.loc 2 358 0
 204              		.syntax unified
 205              	@ 358 "Generated_Source\PSoC5/ErikaOS_cortex_mx_ee_cpu.inc" 1
 206 004a 83F31188 		MSR BASEPRI, r3
 207              	@ 0 "" 2
 208              		.thumb
 209              		.syntax unified
 210              	.LBE57:
 211              	.LBE56:
 212              	.LBB58:
 213              	.LBB59:
 214              		.file 3 "Generated_Source\\PSoC5/ErikaOS_common_ee_irqstub.inc"
   1:Generated_Source\PSoC5/ErikaOS_common_ee_irqstub.inc **** /* ###*B*###
   2:Generated_Source\PSoC5/ErikaOS_common_ee_irqstub.inc ****  * ERIKA Enterprise - a tiny RTOS for small microcontrollers
ARM GAS  C:\Users\rbhar\AppData\Local\Temp\cckgNYUc.s 			page 13


   3:Generated_Source\PSoC5/ErikaOS_common_ee_irqstub.inc ****  *
   4:Generated_Source\PSoC5/ErikaOS_common_ee_irqstub.inc ****  * Copyright (C) 2002-2010  Evidence Srl
   5:Generated_Source\PSoC5/ErikaOS_common_ee_irqstub.inc ****  *
   6:Generated_Source\PSoC5/ErikaOS_common_ee_irqstub.inc ****  * This file is part of ERIKA Enterprise.
   7:Generated_Source\PSoC5/ErikaOS_common_ee_irqstub.inc ****  *
   8:Generated_Source\PSoC5/ErikaOS_common_ee_irqstub.inc ****  * ERIKA Enterprise is free software; you can redistribute it
   9:Generated_Source\PSoC5/ErikaOS_common_ee_irqstub.inc ****  * and/or modify it under the terms of the GNU General Public License
  10:Generated_Source\PSoC5/ErikaOS_common_ee_irqstub.inc ****  * version 2 as published by the Free Software Foundation,
  11:Generated_Source\PSoC5/ErikaOS_common_ee_irqstub.inc ****  * (with a special exception described below).
  12:Generated_Source\PSoC5/ErikaOS_common_ee_irqstub.inc ****  *
  13:Generated_Source\PSoC5/ErikaOS_common_ee_irqstub.inc ****  * Linking this code statically or dynamically with other modules is
  14:Generated_Source\PSoC5/ErikaOS_common_ee_irqstub.inc ****  * making a combined work based on this code.  Thus, the terms and
  15:Generated_Source\PSoC5/ErikaOS_common_ee_irqstub.inc ****  * conditions of the GNU General Public License cover the whole
  16:Generated_Source\PSoC5/ErikaOS_common_ee_irqstub.inc ****  * combination.
  17:Generated_Source\PSoC5/ErikaOS_common_ee_irqstub.inc ****  *
  18:Generated_Source\PSoC5/ErikaOS_common_ee_irqstub.inc ****  * As a special exception, the copyright holders of this library give you
  19:Generated_Source\PSoC5/ErikaOS_common_ee_irqstub.inc ****  * permission to link this code with independent modules to produce an
  20:Generated_Source\PSoC5/ErikaOS_common_ee_irqstub.inc ****  * executable, regardless of the license terms of these independent
  21:Generated_Source\PSoC5/ErikaOS_common_ee_irqstub.inc ****  * modules, and to copy and distribute the resulting executable under
  22:Generated_Source\PSoC5/ErikaOS_common_ee_irqstub.inc ****  * terms of your choice, provided that you also meet, for each linked
  23:Generated_Source\PSoC5/ErikaOS_common_ee_irqstub.inc ****  * independent module, the terms and conditions of the license of that
  24:Generated_Source\PSoC5/ErikaOS_common_ee_irqstub.inc ****  * module.  An independent module is a module which is not derived from
  25:Generated_Source\PSoC5/ErikaOS_common_ee_irqstub.inc ****  * or based on this library.  If you modify this code, you may extend
  26:Generated_Source\PSoC5/ErikaOS_common_ee_irqstub.inc ****  * this exception to your version of the code, but you are not
  27:Generated_Source\PSoC5/ErikaOS_common_ee_irqstub.inc ****  * obligated to do so.  If you do not wish to do so, delete this
  28:Generated_Source\PSoC5/ErikaOS_common_ee_irqstub.inc ****  * exception statement from your version.
  29:Generated_Source\PSoC5/ErikaOS_common_ee_irqstub.inc ****  *
  30:Generated_Source\PSoC5/ErikaOS_common_ee_irqstub.inc ****  * ERIKA Enterprise is distributed in the hope that it will be
  31:Generated_Source\PSoC5/ErikaOS_common_ee_irqstub.inc ****  * useful, but WITHOUT ANY WARRANTY; without even the implied warranty
  32:Generated_Source\PSoC5/ErikaOS_common_ee_irqstub.inc ****  * of MERCHANTABILITY or FITNESS FOR A PARTICULAR PURPOSE.  See the
  33:Generated_Source\PSoC5/ErikaOS_common_ee_irqstub.inc ****  * GNU General Public License version 2 for more details.
  34:Generated_Source\PSoC5/ErikaOS_common_ee_irqstub.inc ****  *
  35:Generated_Source\PSoC5/ErikaOS_common_ee_irqstub.inc ****  * You should have received a copy of the GNU General Public License
  36:Generated_Source\PSoC5/ErikaOS_common_ee_irqstub.inc ****  * version 2 along with ERIKA Enterprise; if not, write to the
  37:Generated_Source\PSoC5/ErikaOS_common_ee_irqstub.inc ****  * Free Software Foundation, Inc., 51 Franklin Street, Fifth Floor,
  38:Generated_Source\PSoC5/ErikaOS_common_ee_irqstub.inc ****  * Boston, MA 02110-1301 USA.
  39:Generated_Source\PSoC5/ErikaOS_common_ee_irqstub.inc ****  * ###*E*### */
  40:Generated_Source\PSoC5/ErikaOS_common_ee_irqstub.inc **** 
  41:Generated_Source\PSoC5/ErikaOS_common_ee_irqstub.inc **** /*
  42:Generated_Source\PSoC5/ErikaOS_common_ee_irqstub.inc ****  * Some IRQ-related stuff.
  43:Generated_Source\PSoC5/ErikaOS_common_ee_irqstub.inc ****  * Author: 2009-2010,  Bernardo  Dal Seno
  44:Generated_Source\PSoC5/ErikaOS_common_ee_irqstub.inc ****  */
  45:Generated_Source\PSoC5/ErikaOS_common_ee_irqstub.inc **** 
  46:Generated_Source\PSoC5/ErikaOS_common_ee_irqstub.inc **** /*
  47:Generated_Source\PSoC5/ErikaOS_common_ee_irqstub.inc ****  * PSoC Port and API Generation
  48:Generated_Source\PSoC5/ErikaOS_common_ee_irqstub.inc ****  * Carlos Fernando Meier Martinez
  49:Generated_Source\PSoC5/ErikaOS_common_ee_irqstub.inc ****  * Hochschule Darmstadt, Germany. 2017.
  50:Generated_Source\PSoC5/ErikaOS_common_ee_irqstub.inc ****  */
  51:Generated_Source\PSoC5/ErikaOS_common_ee_irqstub.inc **** 
  52:Generated_Source\PSoC5/ErikaOS_common_ee_irqstub.inc **** /*******************************************************************************
  53:Generated_Source\PSoC5/ErikaOS_common_ee_irqstub.inc ****  *                        !!!WARNING!!!
  54:Generated_Source\PSoC5/ErikaOS_common_ee_irqstub.inc ****  * This header depends on "cpu/common/inc/ee_context.inc" or your own
  55:Generated_Source\PSoC5/ErikaOS_common_ee_irqstub.inc ****  * implementation of the same. You should include it file before including this
  56:Generated_Source\PSoC5/ErikaOS_common_ee_irqstub.inc ****  * file
  57:Generated_Source\PSoC5/ErikaOS_common_ee_irqstub.inc ****  ******************************************************************************/
  58:Generated_Source\PSoC5/ErikaOS_common_ee_irqstub.inc **** 
  59:Generated_Source\PSoC5/ErikaOS_common_ee_irqstub.inc **** #ifndef PKG_CPU_COMMON_INC_EE_IRQSTUB_H
ARM GAS  C:\Users\rbhar\AppData\Local\Temp\cckgNYUc.s 			page 14


  60:Generated_Source\PSoC5/ErikaOS_common_ee_irqstub.inc **** #define PKG_CPU_COMMON_INC_EE_IRQSTUB_H
  61:Generated_Source\PSoC5/ErikaOS_common_ee_irqstub.inc **** 
  62:Generated_Source\PSoC5/ErikaOS_common_ee_irqstub.inc **** /* this bring EE_IRQ_nesting_level definition */
  63:Generated_Source\PSoC5/ErikaOS_common_ee_irqstub.inc **** #include "ErikaOS_common_ee_primitives.inc"
  64:Generated_Source\PSoC5/ErikaOS_common_ee_irqstub.inc **** 
  65:Generated_Source\PSoC5/ErikaOS_common_ee_irqstub.inc **** /* True if we are inside an interrupt-serving routine */
  66:Generated_Source\PSoC5/ErikaOS_common_ee_irqstub.inc **** __INLINE__ EE_TYPEBOOL  EE_is_inside_ISR_call( void )
  67:Generated_Source\PSoC5/ErikaOS_common_ee_irqstub.inc **** {
  68:Generated_Source\PSoC5/ErikaOS_common_ee_irqstub.inc ****   return (EE_IRQ_nesting_level > 0U);
  69:Generated_Source\PSoC5/ErikaOS_common_ee_irqstub.inc **** }
  70:Generated_Source\PSoC5/ErikaOS_common_ee_irqstub.inc **** 
  71:Generated_Source\PSoC5/ErikaOS_common_ee_irqstub.inc **** 
  72:Generated_Source\PSoC5/ErikaOS_common_ee_irqstub.inc **** /* EE_decrement_IRQ_nesting_level() and EE_increment_IRQ_nesting_level() are
  73:Generated_Source\PSoC5/ErikaOS_common_ee_irqstub.inc ****  * used to keep track of the current IRQ nesting level.
  74:Generated_Source\PSoC5/ErikaOS_common_ee_irqstub.inc ****  * EE_std_enableIRQ_nested() and EE_std_disableIRQ_nested() are used to control
  75:Generated_Source\PSoC5/ErikaOS_common_ee_irqstub.inc ****  * when IRQ nesting is enabled.
  76:Generated_Source\PSoC5/ErikaOS_common_ee_irqstub.inc ****  */
  77:Generated_Source\PSoC5/ErikaOS_common_ee_irqstub.inc **** #if defined(__AS_SC4__)
  78:Generated_Source\PSoC5/ErikaOS_common_ee_irqstub.inc **** /* For SC4 the nesting level is updated inside the prestub and postub */
  79:Generated_Source\PSoC5/ErikaOS_common_ee_irqstub.inc **** __INLINE__ void  EE_decrement_IRQ_nesting_level(void) {}
  80:Generated_Source\PSoC5/ErikaOS_common_ee_irqstub.inc **** __INLINE__ void  EE_increment_IRQ_nesting_level(void) {}
  81:Generated_Source\PSoC5/ErikaOS_common_ee_irqstub.inc **** __INLINE__ void  EE_std_enableIRQ_nested(void) {}
  82:Generated_Source\PSoC5/ErikaOS_common_ee_irqstub.inc **** __INLINE__ void  EE_std_disableIRQ_nested(void) {}
  83:Generated_Source\PSoC5/ErikaOS_common_ee_irqstub.inc **** #elif defined(__ALLOW_NESTED_IRQ__)
  84:Generated_Source\PSoC5/ErikaOS_common_ee_irqstub.inc **** __INLINE__ void  EE_decrement_IRQ_nesting_level(void) { --EE_IRQ_nesting_level; }
  85:Generated_Source\PSoC5/ErikaOS_common_ee_irqstub.inc **** __INLINE__ void  EE_increment_IRQ_nesting_level(void) { ++EE_IRQ_nesting_level; }
 215              		.loc 3 85 0
 216 004e 114A     		ldr	r2, .L15+8
 217 0050 1368     		ldr	r3, [r2]
 218 0052 0133     		adds	r3, r3, #1
 219 0054 1360     		str	r3, [r2]
 220              	.LBE59:
 221              	.LBE58:
  81:source\asw/signal_handler.c **** {
 222              		.loc 1 81 0
 223 0056 012B     		cmp	r3, #1
 224 0058 01D1     		bne	.L12
  81:source\asw/signal_handler.c **** {
 225              		.loc 1 81 0 is_stmt 0 discriminator 1
 226 005a FFF7FEFF 		bl	EE_cortex_mx_change_IRQ_stack
 227              	.LVL17:
 228              	.L12:
 229              	.LBB60:
 230              	.LBB61:
 191:Generated_Source\PSoC5/ErikaOS_cortex_mx_ee_cpu.inc **** #endif	/* !__KEIL__ */
 231              		.loc 2 191 0 is_stmt 1 discriminator 3
 232              		.syntax unified
 233              	@ 191 "Generated_Source\PSoC5/ErikaOS_cortex_mx_ee_cpu.inc" 1
 234 005e 62B6     		cpsie i
 235              	@ 0 "" 2
 236              		.thumb
 237              		.syntax unified
 238              	.LBE61:
 239              	.LBE60:
  81:source\asw/signal_handler.c **** {
 240              		.loc 1 81 0 discriminator 3
 241 0060 FFF7FEFF 		bl	ISR2_isr_BUTTON
ARM GAS  C:\Users\rbhar\AppData\Local\Temp\cckgNYUc.s 			page 15


 242              	.LVL18:
 243              	.LBB62:
 244              	.LBB63:
 211:Generated_Source\PSoC5/ErikaOS_cortex_mx_ee_cpu.inc **** #endif	/* !__KEIL__ */
 245              		.loc 2 211 0 discriminator 3
 246              		.syntax unified
 247              	@ 211 "Generated_Source\PSoC5/ErikaOS_cortex_mx_ee_cpu.inc" 1
 248 0064 72B6     		cpsid i
 249              	@ 0 "" 2
 250              	.LVL19:
 251              		.thumb
 252              		.syntax unified
 253              	.LBE63:
 254              	.LBE62:
 255              	.LBB64:
 256              	.LBB65:
 358:Generated_Source\PSoC5/ErikaOS_cortex_mx_ee_cpu.inc **** #else
 257              		.loc 2 358 0 discriminator 3
 258              		.syntax unified
 259              	@ 358 "Generated_Source\PSoC5/ErikaOS_cortex_mx_ee_cpu.inc" 1
 260 0066 84F31188 		MSR BASEPRI, r4
 261              	@ 0 "" 2
 262              	.LVL20:
 263              		.thumb
 264              		.syntax unified
 265              	.LBE65:
 266              	.LBE64:
 267              	.LBB66:
 268              	.LBB67:
  86:Generated_Source\PSoC5/ErikaOS_common_ee_irqstub.inc **** /*  EE_std_enableIRQ_nested() and EE_std_disableIRQ_nested() must be defined in
  87:Generated_Source\PSoC5/ErikaOS_common_ee_irqstub.inc ****  *  the platform-dependent part, as they dependend on the particular way
  88:Generated_Source\PSoC5/ErikaOS_common_ee_irqstub.inc ****  *  interrupts are handled by the CPU. */
  89:Generated_Source\PSoC5/ErikaOS_common_ee_irqstub.inc **** #else
  90:Generated_Source\PSoC5/ErikaOS_common_ee_irqstub.inc **** __INLINE__ void  EE_decrement_IRQ_nesting_level(void) { EE_IRQ_nesting_level = 0U; }
  91:Generated_Source\PSoC5/ErikaOS_common_ee_irqstub.inc **** __INLINE__ void  EE_increment_IRQ_nesting_level(void) { EE_IRQ_nesting_level = 1U; }
  92:Generated_Source\PSoC5/ErikaOS_common_ee_irqstub.inc **** __INLINE__ void  EE_std_enableIRQ_nested(void) {}
  93:Generated_Source\PSoC5/ErikaOS_common_ee_irqstub.inc **** __INLINE__ void  EE_std_disableIRQ_nested(void) {}
  94:Generated_Source\PSoC5/ErikaOS_common_ee_irqstub.inc **** #endif
  95:Generated_Source\PSoC5/ErikaOS_common_ee_irqstub.inc **** 
  96:Generated_Source\PSoC5/ErikaOS_common_ee_irqstub.inc **** #if (defined(__OO_BCC1__)) || (defined(__OO_BCC2__)) || (defined(__OO_ECC1__)) \
  97:Generated_Source\PSoC5/ErikaOS_common_ee_irqstub.inc ****   || (defined(__OO_ECC2__)) || (defined(__AS_SC4__))
  98:Generated_Source\PSoC5/ErikaOS_common_ee_irqstub.inc **** /* Function to be called at the end of a function service interrupt, to execute
  99:Generated_Source\PSoC5/ErikaOS_common_ee_irqstub.inc ****    clean-up specifiend in Autosar standard */
 100:Generated_Source\PSoC5/ErikaOS_common_ee_irqstub.inc **** __INLINE__ void  EE_std_end_IRQ_post_stub(void)
 101:Generated_Source\PSoC5/ErikaOS_common_ee_irqstub.inc **** {
 102:Generated_Source\PSoC5/ErikaOS_common_ee_irqstub.inc ****   EE_IRQ_end_post_stub();
 269              		.loc 3 102 0 discriminator 3
 270 006a FFF7FEFF 		bl	EE_IRQ_end_post_stub
 271              	.LVL21:
 272              	.LBE67:
 273              	.LBE66:
 274              	.LBB68:
 275              	.LBB69:
  84:Generated_Source\PSoC5/ErikaOS_common_ee_irqstub.inc **** __INLINE__ void  EE_increment_IRQ_nesting_level(void) { ++EE_IRQ_nesting_level; }
 276              		.loc 3 84 0 discriminator 3
 277 006e 094A     		ldr	r2, .L15+8
 278 0070 1368     		ldr	r3, [r2]
ARM GAS  C:\Users\rbhar\AppData\Local\Temp\cckgNYUc.s 			page 16


 279 0072 013B     		subs	r3, r3, #1
 280 0074 1360     		str	r3, [r2]
 281              	.LBE69:
 282              	.LBE68:
  81:source\asw/signal_handler.c **** {
 283              		.loc 1 81 0 discriminator 3
 284 0076 1BB9     		cbnz	r3, .L13
  81:source\asw/signal_handler.c **** {
 285              		.loc 1 81 0 is_stmt 0 discriminator 4
 286 0078 FFF7FEFF 		bl	EE_cortex_mx_change_IRQ_stack_back
 287              	.LVL22:
 288              	.LBB70:
 289              	.LBB71:
 290              		.file 4 "Generated_Source\\PSoC5/ErikaOS_cortex_mx_ee_irq_cng_cont.inc"
   1:Generated_Source\PSoC5/ErikaOS_cortex_mx_ee_irq_cng_cont.inc **** /* ###*B*###
   2:Generated_Source\PSoC5/ErikaOS_cortex_mx_ee_irq_cng_cont.inc ****  * ERIKA Enterprise - a tiny RTOS for small microcontrollers
   3:Generated_Source\PSoC5/ErikaOS_cortex_mx_ee_irq_cng_cont.inc ****  *
   4:Generated_Source\PSoC5/ErikaOS_cortex_mx_ee_irq_cng_cont.inc ****  * Copyright (C) 2002-2011  Evidence Srl
   5:Generated_Source\PSoC5/ErikaOS_cortex_mx_ee_irq_cng_cont.inc ****  *
   6:Generated_Source\PSoC5/ErikaOS_cortex_mx_ee_irq_cng_cont.inc ****  * This file is part of ERIKA Enterprise.
   7:Generated_Source\PSoC5/ErikaOS_cortex_mx_ee_irq_cng_cont.inc ****  *
   8:Generated_Source\PSoC5/ErikaOS_cortex_mx_ee_irq_cng_cont.inc ****  * ERIKA Enterprise is free software; you can redistribute it
   9:Generated_Source\PSoC5/ErikaOS_cortex_mx_ee_irq_cng_cont.inc ****  * and/or modify it under the terms of the GNU General Public License
  10:Generated_Source\PSoC5/ErikaOS_cortex_mx_ee_irq_cng_cont.inc ****  * version 2 as published by the Free Software Foundation, 
  11:Generated_Source\PSoC5/ErikaOS_cortex_mx_ee_irq_cng_cont.inc ****  * (with a special exception described below).
  12:Generated_Source\PSoC5/ErikaOS_cortex_mx_ee_irq_cng_cont.inc ****  *
  13:Generated_Source\PSoC5/ErikaOS_cortex_mx_ee_irq_cng_cont.inc ****  * Linking this code statically or dynamically with other modules is
  14:Generated_Source\PSoC5/ErikaOS_cortex_mx_ee_irq_cng_cont.inc ****  * making a combined work based on this code.  Thus, the terms and
  15:Generated_Source\PSoC5/ErikaOS_cortex_mx_ee_irq_cng_cont.inc ****  * conditions of the GNU General Public License cover the whole
  16:Generated_Source\PSoC5/ErikaOS_cortex_mx_ee_irq_cng_cont.inc ****  * combination.
  17:Generated_Source\PSoC5/ErikaOS_cortex_mx_ee_irq_cng_cont.inc ****  *
  18:Generated_Source\PSoC5/ErikaOS_cortex_mx_ee_irq_cng_cont.inc ****  * As a special exception, the copyright holders of this library give you
  19:Generated_Source\PSoC5/ErikaOS_cortex_mx_ee_irq_cng_cont.inc ****  * permission to link this code with independent modules to produce an
  20:Generated_Source\PSoC5/ErikaOS_cortex_mx_ee_irq_cng_cont.inc ****  * executable, regardless of the license terms of these independent
  21:Generated_Source\PSoC5/ErikaOS_cortex_mx_ee_irq_cng_cont.inc ****  * modules, and to copy and distribute the resulting executable under
  22:Generated_Source\PSoC5/ErikaOS_cortex_mx_ee_irq_cng_cont.inc ****  * terms of your choice, provided that you also meet, for each linked
  23:Generated_Source\PSoC5/ErikaOS_cortex_mx_ee_irq_cng_cont.inc ****  * independent module, the terms and conditions of the license of that
  24:Generated_Source\PSoC5/ErikaOS_cortex_mx_ee_irq_cng_cont.inc ****  * module.  An independent module is a module which is not derived from
  25:Generated_Source\PSoC5/ErikaOS_cortex_mx_ee_irq_cng_cont.inc ****  * or based on this library.  If you modify this code, you may extend
  26:Generated_Source\PSoC5/ErikaOS_cortex_mx_ee_irq_cng_cont.inc ****  * this exception to your version of the code, but you are not
  27:Generated_Source\PSoC5/ErikaOS_cortex_mx_ee_irq_cng_cont.inc ****  * obligated to do so.  If you do not wish to do so, delete this
  28:Generated_Source\PSoC5/ErikaOS_cortex_mx_ee_irq_cng_cont.inc ****  * exception statement from your version.
  29:Generated_Source\PSoC5/ErikaOS_cortex_mx_ee_irq_cng_cont.inc ****  *
  30:Generated_Source\PSoC5/ErikaOS_cortex_mx_ee_irq_cng_cont.inc ****  * ERIKA Enterprise is distributed in the hope that it will be
  31:Generated_Source\PSoC5/ErikaOS_cortex_mx_ee_irq_cng_cont.inc ****  * useful, but WITHOUT ANY WARRANTY; without even the implied warranty
  32:Generated_Source\PSoC5/ErikaOS_cortex_mx_ee_irq_cng_cont.inc ****  * of MERCHANTABILITY or FITNESS FOR A PARTICULAR PURPOSE.  See the
  33:Generated_Source\PSoC5/ErikaOS_cortex_mx_ee_irq_cng_cont.inc ****  * GNU General Public License version 2 for more details.
  34:Generated_Source\PSoC5/ErikaOS_cortex_mx_ee_irq_cng_cont.inc ****  *
  35:Generated_Source\PSoC5/ErikaOS_cortex_mx_ee_irq_cng_cont.inc ****  * You should have received a copy of the GNU General Public License
  36:Generated_Source\PSoC5/ErikaOS_cortex_mx_ee_irq_cng_cont.inc ****  * version 2 along with ERIKA Enterprise; if not, write to the
  37:Generated_Source\PSoC5/ErikaOS_cortex_mx_ee_irq_cng_cont.inc ****  * Free Software Foundation, Inc., 51 Franklin Street, Fifth Floor,
  38:Generated_Source\PSoC5/ErikaOS_cortex_mx_ee_irq_cng_cont.inc ****  * Boston, MA 02110-1301 USA.
  39:Generated_Source\PSoC5/ErikaOS_cortex_mx_ee_irq_cng_cont.inc ****  * ###*E*### */
  40:Generated_Source\PSoC5/ErikaOS_cortex_mx_ee_irq_cng_cont.inc **** 
  41:Generated_Source\PSoC5/ErikaOS_cortex_mx_ee_irq_cng_cont.inc ****  /** 
  42:Generated_Source\PSoC5/ErikaOS_cortex_mx_ee_irq_cng_cont.inc **** 	
  43:Generated_Source\PSoC5/ErikaOS_cortex_mx_ee_irq_cng_cont.inc **** 	@file	ee_irq_cng_cont.h
ARM GAS  C:\Users\rbhar\AppData\Local\Temp\cckgNYUc.s 			page 17


  44:Generated_Source\PSoC5/ErikaOS_cortex_mx_ee_irq_cng_cont.inc **** 	@brief	Function active the context change interrupt
  45:Generated_Source\PSoC5/ErikaOS_cortex_mx_ee_irq_cng_cont.inc **** 	@author	Gianluca Franchino
  46:Generated_Source\PSoC5/ErikaOS_cortex_mx_ee_irq_cng_cont.inc **** 	@author	Giuseppe Serano
  47:Generated_Source\PSoC5/ErikaOS_cortex_mx_ee_irq_cng_cont.inc **** 	@date	2012
  48:Generated_Source\PSoC5/ErikaOS_cortex_mx_ee_irq_cng_cont.inc **** */ 
  49:Generated_Source\PSoC5/ErikaOS_cortex_mx_ee_irq_cng_cont.inc ****     
  50:Generated_Source\PSoC5/ErikaOS_cortex_mx_ee_irq_cng_cont.inc **** /*
  51:Generated_Source\PSoC5/ErikaOS_cortex_mx_ee_irq_cng_cont.inc ****  * PSoC Port and API Generation
  52:Generated_Source\PSoC5/ErikaOS_cortex_mx_ee_irq_cng_cont.inc ****  * Carlos Fernando Meier Martinez
  53:Generated_Source\PSoC5/ErikaOS_cortex_mx_ee_irq_cng_cont.inc ****  * Hochschule Darmstadt, Germany. 2017.
  54:Generated_Source\PSoC5/ErikaOS_cortex_mx_ee_irq_cng_cont.inc ****  */
  55:Generated_Source\PSoC5/ErikaOS_cortex_mx_ee_irq_cng_cont.inc **** 
  56:Generated_Source\PSoC5/ErikaOS_cortex_mx_ee_irq_cng_cont.inc **** #ifndef __INCLUDE_CORTEX_MX_IRQ_CNG_CONTEXT_H__
  57:Generated_Source\PSoC5/ErikaOS_cortex_mx_ee_irq_cng_cont.inc **** #define __INCLUDE_CORTEX_MX_IRQ_CNG_CONTEXT_H__
  58:Generated_Source\PSoC5/ErikaOS_cortex_mx_ee_irq_cng_cont.inc **** 
  59:Generated_Source\PSoC5/ErikaOS_cortex_mx_ee_irq_cng_cont.inc **** #ifdef __GNU__
  60:Generated_Source\PSoC5/ErikaOS_cortex_mx_ee_irq_cng_cont.inc **** #include "ErikaOS_common_ee_compiler_gcc.inc"
  61:Generated_Source\PSoC5/ErikaOS_cortex_mx_ee_irq_cng_cont.inc **** #endif
  62:Generated_Source\PSoC5/ErikaOS_cortex_mx_ee_irq_cng_cont.inc **** 
  63:Generated_Source\PSoC5/ErikaOS_cortex_mx_ee_irq_cng_cont.inc **** /* Implemented in ee_<compiler>_change_context_isr.s */
  64:Generated_Source\PSoC5/ErikaOS_cortex_mx_ee_irq_cng_cont.inc **** extern void EE_switch_context(void);
  65:Generated_Source\PSoC5/ErikaOS_cortex_mx_ee_irq_cng_cont.inc **** 
  66:Generated_Source\PSoC5/ErikaOS_cortex_mx_ee_irq_cng_cont.inc **** __INLINE__ void  EE_cortex_mx_IRQ_active_change_context(void)
  67:Generated_Source\PSoC5/ErikaOS_cortex_mx_ee_irq_cng_cont.inc **** {
  68:Generated_Source\PSoC5/ErikaOS_cortex_mx_ee_irq_cng_cont.inc **** 	EE_switch_context();
 291              		.loc 4 68 0 is_stmt 1 discriminator 4
 292 007c FFF7FEFF 		bl	EE_switch_context
 293              	.LVL23:
 294              	.L13:
 295              	.LBE71:
 296              	.LBE70:
 297              	.LBB72:
 298              	.LBB73:
 191:Generated_Source\PSoC5/ErikaOS_cortex_mx_ee_cpu.inc **** #endif	/* !__KEIL__ */
 299              		.loc 2 191 0 discriminator 6
 300              		.syntax unified
 301              	@ 191 "Generated_Source\PSoC5/ErikaOS_cortex_mx_ee_cpu.inc" 1
 302 0080 62B6     		cpsie i
 303              	@ 0 "" 2
 304              		.thumb
 305              		.syntax unified
 306              	.LBE73:
 307              	.LBE72:
  81:source\asw/signal_handler.c **** {
 308              		.loc 1 81 0 discriminator 6
 309 0082 BDE81940 		pop	{r0, r3, r4, lr}
 310              		.cfi_restore 14
 311              		.cfi_restore 4
 312              		.cfi_restore 3
 313              		.cfi_restore 0
 314              		.cfi_def_cfa_offset 0
 315 0086 8546     		mov	sp, r0
 316 0088 7047     		bx	lr
 317              	.L16:
 318 008a 00BF     		.align	2
 319              	.L15:
 320 008c 04ED00E0 		.word	-536810236
ARM GAS  C:\Users\rbhar\AppData\Local\Temp\cckgNYUc.s 			page 18


 321 0090 20ED00E0 		.word	-536810208
 322 0094 00000000 		.word	EE_IRQ_nesting_level
 323              		.cfi_endproc
 324              	.LFE112:
 325              		.size	isr_BUTTON, .-isr_BUTTON
 326              		.text
 327              	.Letext0:
 328              		.file 5 "d:\\installations\\cypress\\psoc creator\\4.2\\psoc creator\\import\\gnu\\arm\\5.4.1\\arm
 329              		.file 6 "d:\\installations\\cypress\\psoc creator\\4.2\\psoc creator\\import\\gnu\\arm\\5.4.1\\arm
 330              		.file 7 "Generated_Source\\PSoC5/ErikaOS_common_ee_types.inc"
 331              		.file 8 "Generated_Source\\PSoC5/ErikaOS_ee_oo_intfunc.inc"
 332              		.file 9 "Generated_Source\\PSoC5/ErikaOS_cortex_mx_ee_context.inc"
 333              		.file 10 "Generated_Source\\PSoC5/ErikaOS_common_ee_primitives.inc"
 334              		.file 11 "Generated_Source\\PSoC5/core_cm3.h"
 335              		.file 12 "Generated_Source\\PSoC5/ErikaOS_ee_oo_kernel.inc"
 336              		.file 13 ".\\source\\bsw/button.h"
 337              		.file 14 "Generated_Source\\PSoC5/ErikaOS_ee_oo_irq.inc"
 338              		.file 15 "Generated_Source\\PSoC5/ErikaOS_cortex_mx_ee_irq.inc"