ARM GAS  C:\Users\rbhar\AppData\Local\Temp\cc07KOtB.s 			page 1


   1              		.syntax unified
   2              		.cpu cortex-m3
   3              		.fpu softvfp
   4              		.eabi_attribute 20, 1
   5              		.eabi_attribute 21, 1
   6              		.eabi_attribute 23, 3
   7              		.eabi_attribute 24, 1
   8              		.eabi_attribute 25, 1
   9              		.eabi_attribute 26, 1
  10              		.eabi_attribute 30, 1
  11              		.eabi_attribute 34, 1
  12              		.eabi_attribute 18, 4
  13              		.thumb
  14              		.syntax unified
  15              		.file	"tsk_ArcadianLed.c"
  16              		.text
  17              	.Ltext0:
  18              		.cfi_sections	.debug_frame
  19              		.section	.text.ARCADIANLED__Fader,"ax",%progbits
  20              		.align	2
  21              		.thumb
  22              		.thumb_func
  23              		.type	ARCADIANLED__Fader, %function
  24              	ARCADIANLED__Fader:
  25              	.LFB110:
  26              		.file 1 "source\\asw\\tsk_ArcadianLed.c"
   1:source\asw/tsk_ArcadianLed.c **** /**
   2:source\asw/tsk_ArcadianLed.c **** * \file <tsk_ArcadianLed.c>
   3:source\asw/tsk_ArcadianLed.c **** * \author <Bharath Ramachandraiah>
   4:source\asw/tsk_ArcadianLed.c **** * \date <13/11/2018>
   5:source\asw/tsk_ArcadianLed.c **** *
   6:source\asw/tsk_ArcadianLed.c **** * \brief <Symbolic File name>
   7:source\asw/tsk_ArcadianLed.c **** *
   8:source\asw/tsk_ArcadianLed.c **** * \copyright Copyright ©2016
   9:source\asw/tsk_ArcadianLed.c **** * Department of electrical engineering and information technology, Hochschule Darmstadt - Universit
  10:source\asw/tsk_ArcadianLed.c **** * Permission to use, copy, modify, and distribute this software and its documentation for education
  11:source\asw/tsk_ArcadianLed.c **** * (unless permitted by h_da) and official h_da projects, is hereby granted for enrolled students of
  12:source\asw/tsk_ArcadianLed.c **** * this paragraph and the following paragraph appear in all copies, modifications, and distributions
  13:source\asw/tsk_ArcadianLed.c **** * Contact Prof.Dr.-Ing. Peter Fromm, peter.fromm@h-da.de, Birkenweg 8 64295 Darmstadt - GERMANY for
  14:source\asw/tsk_ArcadianLed.c **** *
  15:source\asw/tsk_ArcadianLed.c **** * \warning This software is a PROTOTYPE version and is not designed or intended for use in producti
  16:source\asw/tsk_ArcadianLed.c **** * The user represents and warrants that it will NOT use or redistribute the Software for such purpo
  17:source\asw/tsk_ArcadianLed.c **** * This prototype is for research purposes only. This software is provided "AS IS," without a warran
  18:source\asw/tsk_ArcadianLed.c **** */
  19:source\asw/tsk_ArcadianLed.c **** 
  20:source\asw/tsk_ArcadianLed.c **** /*****************************************************************************/
  21:source\asw/tsk_ArcadianLed.c **** /* Include files                                                             */
  22:source\asw/tsk_ArcadianLed.c **** /*****************************************************************************/
  23:source\asw/tsk_ArcadianLed.c **** #include "tsk_ArcadianLed.h"
  24:source\asw/tsk_ArcadianLed.c **** #include "pwm.h"
  25:source\asw/tsk_ArcadianLed.c **** 
  26:source\asw/tsk_ArcadianLed.c **** /*****************************************************************************/
  27:source\asw/tsk_ArcadianLed.c **** /* Local pre-processor symbols/macros ('#define')                            */
  28:source\asw/tsk_ArcadianLed.c **** /*****************************************************************************/
  29:source\asw/tsk_ArcadianLed.c **** #define ARCADIANLED__FADER_TIME_DURATION    100
  30:source\asw/tsk_ArcadianLed.c **** 
  31:source\asw/tsk_ArcadianLed.c **** /*****************************************************************************/
ARM GAS  C:\Users\rbhar\AppData\Local\Temp\cc07KOtB.s 			page 2


  32:source\asw/tsk_ArcadianLed.c **** /* Global variable definitions (declared in header file with 'extern')       */
  33:source\asw/tsk_ArcadianLed.c **** /*****************************************************************************/
  34:source\asw/tsk_ArcadianLed.c **** 
  35:source\asw/tsk_ArcadianLed.c **** /*****************************************************************************/
  36:source\asw/tsk_ArcadianLed.c **** /* Local type definitions ('typedef')                                        */
  37:source\asw/tsk_ArcadianLed.c **** /*****************************************************************************/
  38:source\asw/tsk_ArcadianLed.c **** 
  39:source\asw/tsk_ArcadianLed.c **** 
  40:source\asw/tsk_ArcadianLed.c **** /*****************************************************************************/
  41:source\asw/tsk_ArcadianLed.c **** /* Local variable definitions ('static')                                     */
  42:source\asw/tsk_ArcadianLed.c **** /*****************************************************************************/
  43:source\asw/tsk_ArcadianLed.c **** static const ARCADIANLED__Fader_t  Led_fadertable[] = {
  44:source\asw/tsk_ArcadianLed.c ****     
  45:source\asw/tsk_ArcadianLed.c ****     //Red    Yellow Green   TimeInMS
  46:source\asw/tsk_ArcadianLed.c ****     //{0,      0,     0,      ARCADIANLED__FADER_TIME_DURATION},
  47:source\asw/tsk_ArcadianLed.c ****     {127,    0,     0,      ARCADIANLED__FADER_TIME_DURATION},
  48:source\asw/tsk_ArcadianLed.c ****     {255,    0,     0,      ARCADIANLED__FADER_TIME_DURATION},
  49:source\asw/tsk_ArcadianLed.c ****     {127,    127,   0,      ARCADIANLED__FADER_TIME_DURATION},
  50:source\asw/tsk_ArcadianLed.c ****     {0,      255,   0,      ARCADIANLED__FADER_TIME_DURATION},
  51:source\asw/tsk_ArcadianLed.c ****     {0,      127,   127,    ARCADIANLED__FADER_TIME_DURATION},
  52:source\asw/tsk_ArcadianLed.c ****     {0,      0,     255,    ARCADIANLED__FADER_TIME_DURATION},
  53:source\asw/tsk_ArcadianLed.c ****     {0,      0,     127,    ARCADIANLED__FADER_TIME_DURATION},
  54:source\asw/tsk_ArcadianLed.c **** };
  55:source\asw/tsk_ArcadianLed.c **** 
  56:source\asw/tsk_ArcadianLed.c **** 
  57:source\asw/tsk_ArcadianLed.c **** static const ARCADIANLED__Glower_t RGB_glowtable[] = {
  58:source\asw/tsk_ArcadianLed.c ****     
  59:source\asw/tsk_ArcadianLed.c ****     //Red   Green   Blue    TimeInMS
  60:source\asw/tsk_ArcadianLed.c ****     {255,   0,      0,      500},
  61:source\asw/tsk_ArcadianLed.c ****     {0,     255,    0,      500},
  62:source\asw/tsk_ArcadianLed.c ****     {0,     0,      255,    500},
  63:source\asw/tsk_ArcadianLed.c ****     {0,     0,      0,      100},
  64:source\asw/tsk_ArcadianLed.c ****     {255,   255,    255,    100},
  65:source\asw/tsk_ArcadianLed.c ****     {0,     0,      0,      100},
  66:source\asw/tsk_ArcadianLed.c ****     {255,   255,    255,    100},
  67:source\asw/tsk_ArcadianLed.c ****     {0,     0,      0,      100},
  68:source\asw/tsk_ArcadianLed.c ****     {255,   255,    255,    100},
  69:source\asw/tsk_ArcadianLed.c **** };
  70:source\asw/tsk_ArcadianLed.c **** 
  71:source\asw/tsk_ArcadianLed.c **** /*****************************************************************************/
  72:source\asw/tsk_ArcadianLed.c **** /* Local function prototypes ('static')                                      */
  73:source\asw/tsk_ArcadianLed.c **** /*****************************************************************************/
  74:source\asw/tsk_ArcadianLed.c **** 
  75:source\asw/tsk_ArcadianLed.c **** 
  76:source\asw/tsk_ArcadianLed.c **** /*****************************************************************************/
  77:source\asw/tsk_ArcadianLed.c **** /* Function implementation - global ('extern') and local ('static')          */
  78:source\asw/tsk_ArcadianLed.c **** /*****************************************************************************/
  79:source\asw/tsk_ArcadianLed.c **** /**
  80:source\asw/tsk_ArcadianLed.c ****  * A function which provides the arcadian style fader functionality to the leds
  81:source\asw/tsk_ArcadianLed.c ****  * @param   void
  82:source\asw/tsk_ArcadianLed.c ****  * @return  RC_SUCCESS
  83:source\asw/tsk_ArcadianLed.c ****  */
  84:source\asw/tsk_ArcadianLed.c **** static RC_t ARCADIANLED__Fader(void)
  85:source\asw/tsk_ArcadianLed.c **** {
  27              		.loc 1 85 0
  28              		.cfi_startproc
  29              		@ args = 0, pretend = 0, frame = 0
ARM GAS  C:\Users\rbhar\AppData\Local\Temp\cc07KOtB.s 			page 3


  30              		@ frame_needed = 0, uses_anonymous_args = 0
  31 0000 38B5     		push	{r3, r4, r5, lr}
  32              		.cfi_def_cfa_offset 16
  33              		.cfi_offset 3, -16
  34              		.cfi_offset 4, -12
  35              		.cfi_offset 5, -8
  36              		.cfi_offset 14, -4
  86:source\asw/tsk_ArcadianLed.c ****     static uint8_t Index = 0, TimeCount = 0;
  87:source\asw/tsk_ArcadianLed.c ****     
  88:source\asw/tsk_ArcadianLed.c ****     if (Index < (sizeof(Led_fadertable) / sizeof(ARCADIANLED__Fader_t)))
  37              		.loc 1 88 0
  38 0002 1B4B     		ldr	r3, .L5
  39 0004 1B78     		ldrb	r3, [r3]	@ zero_extendqisi2
  40 0006 062B     		cmp	r3, #6
  41 0008 2BD8     		bhi	.L2
  89:source\asw/tsk_ArcadianLed.c ****     {
  90:source\asw/tsk_ArcadianLed.c ****         PWM_SetRed   (Led_fadertable[Index].rgb_R_pwm);
  42              		.loc 1 90 0
  43 000a 1A4D     		ldr	r5, .L5+4
  44 000c 03EB4303 		add	r3, r3, r3, lsl #1
  45 0010 5A00     		lsls	r2, r3, #1
  46 0012 A85C     		ldrb	r0, [r5, r2]	@ zero_extendqisi2
  47 0014 FFF7FEFF 		bl	PWM_SetRed
  48              	.LVL0:
  91:source\asw/tsk_ArcadianLed.c ****         PWM_SetYellow(Led_fadertable[Index].rgb_B_pwm);
  49              		.loc 1 91 0
  50 0018 154C     		ldr	r4, .L5
  51 001a 2378     		ldrb	r3, [r4]	@ zero_extendqisi2
  52 001c 03EB4303 		add	r3, r3, r3, lsl #1
  53 0020 5A00     		lsls	r2, r3, #1
  54 0022 2A44     		add	r2, r2, r5
  55 0024 5078     		ldrb	r0, [r2, #1]	@ zero_extendqisi2
  56 0026 FFF7FEFF 		bl	PWM_SetYellow
  57              	.LVL1:
  92:source\asw/tsk_ArcadianLed.c ****         PWM_SetGreen (Led_fadertable[Index].rgb_G_pwm);
  58              		.loc 1 92 0
  59 002a 2378     		ldrb	r3, [r4]	@ zero_extendqisi2
  60 002c 03EB4303 		add	r3, r3, r3, lsl #1
  61 0030 5A00     		lsls	r2, r3, #1
  62 0032 2A44     		add	r2, r2, r5
  63 0034 9078     		ldrb	r0, [r2, #2]	@ zero_extendqisi2
  64 0036 FFF7FEFF 		bl	PWM_SetGreen
  65              	.LVL2:
  93:source\asw/tsk_ArcadianLed.c ****         
  94:source\asw/tsk_ArcadianLed.c ****         // Has the time elapsed ?
  95:source\asw/tsk_ArcadianLed.c ****         if (Led_fadertable[Index].TimeDuration <= (++TimeCount * TSK_ARCADIANLED_CYCLIC_TIME))
  66              		.loc 1 95 0
  67 003a 2278     		ldrb	r2, [r4]	@ zero_extendqisi2
  68 003c 02EB4201 		add	r1, r2, r2, lsl #1
  69 0040 4B00     		lsls	r3, r1, #1
  70 0042 1D44     		add	r5, r5, r3
  71 0044 A888     		ldrh	r0, [r5, #4]
  72 0046 6378     		ldrb	r3, [r4, #1]	@ zero_extendqisi2
  73 0048 0133     		adds	r3, r3, #1
  74 004a DBB2     		uxtb	r3, r3
  75 004c 6370     		strb	r3, [r4, #1]
  76 004e 6421     		movs	r1, #100
ARM GAS  C:\Users\rbhar\AppData\Local\Temp\cc07KOtB.s 			page 4


  77 0050 01FB03F3 		mul	r3, r1, r3
  78 0054 9842     		cmp	r0, r3
  79 0056 08DC     		bgt	.L3
  96:source\asw/tsk_ArcadianLed.c ****         {
  97:source\asw/tsk_ArcadianLed.c ****             Index++;
  80              		.loc 1 97 0
  81 0058 0132     		adds	r2, r2, #1
  82 005a 2270     		strb	r2, [r4]
  98:source\asw/tsk_ArcadianLed.c ****             TimeCount = 0;
  83              		.loc 1 98 0
  84 005c 0022     		movs	r2, #0
  85 005e 6270     		strb	r2, [r4, #1]
  86 0060 03E0     		b	.L3
  87              	.L2:
  99:source\asw/tsk_ArcadianLed.c ****         }
 100:source\asw/tsk_ArcadianLed.c ****     }
 101:source\asw/tsk_ArcadianLed.c ****     else
 102:source\asw/tsk_ArcadianLed.c ****     {
 103:source\asw/tsk_ArcadianLed.c ****         Index       = 0;
  88              		.loc 1 103 0
  89 0062 034B     		ldr	r3, .L5
  90 0064 0022     		movs	r2, #0
  91 0066 1A70     		strb	r2, [r3]
 104:source\asw/tsk_ArcadianLed.c ****         TimeCount   = 0;
  92              		.loc 1 104 0
  93 0068 5A70     		strb	r2, [r3, #1]
  94              	.L3:
 105:source\asw/tsk_ArcadianLed.c ****     }
 106:source\asw/tsk_ArcadianLed.c ****     
 107:source\asw/tsk_ArcadianLed.c ****     return RC_SUCCESS;
 108:source\asw/tsk_ArcadianLed.c **** }
  95              		.loc 1 108 0
  96 006a 0020     		movs	r0, #0
  97 006c 38BD     		pop	{r3, r4, r5, pc}
  98              	.L6:
  99 006e 00BF     		.align	2
 100              	.L5:
 101 0070 00000000 		.word	.LANCHOR0
 102 0074 00000000 		.word	.LANCHOR1
 103              		.cfi_endproc
 104              	.LFE110:
 105              		.size	ARCADIANLED__Fader, .-ARCADIANLED__Fader
 106              		.section	.text.ARCADIANLED__Glower,"ax",%progbits
 107              		.align	2
 108              		.thumb
 109              		.thumb_func
 110              		.type	ARCADIANLED__Glower, %function
 111              	ARCADIANLED__Glower:
 112              	.LFB111:
 109:source\asw/tsk_ArcadianLed.c **** 
 110:source\asw/tsk_ArcadianLed.c **** 
 111:source\asw/tsk_ArcadianLed.c **** /**
 112:source\asw/tsk_ArcadianLed.c ****  * A function which provides the arcadian style glower functionality to the RGB led
 113:source\asw/tsk_ArcadianLed.c ****  * @param   void
 114:source\asw/tsk_ArcadianLed.c ****  * @return  RC_SUCCESS
 115:source\asw/tsk_ArcadianLed.c ****  */
 116:source\asw/tsk_ArcadianLed.c **** static RC_t ARCADIANLED__Glower(void)
ARM GAS  C:\Users\rbhar\AppData\Local\Temp\cc07KOtB.s 			page 5


 117:source\asw/tsk_ArcadianLed.c **** {
 113              		.loc 1 117 0
 114              		.cfi_startproc
 115              		@ args = 0, pretend = 0, frame = 0
 116              		@ frame_needed = 0, uses_anonymous_args = 0
 117 0000 38B5     		push	{r3, r4, r5, lr}
 118              		.cfi_def_cfa_offset 16
 119              		.cfi_offset 3, -16
 120              		.cfi_offset 4, -12
 121              		.cfi_offset 5, -8
 122              		.cfi_offset 14, -4
 118:source\asw/tsk_ArcadianLed.c ****     static uint8_t Index = 0, TimeCount = 0;
 119:source\asw/tsk_ArcadianLed.c ****     
 120:source\asw/tsk_ArcadianLed.c ****     if (Index < (sizeof(RGB_glowtable) / sizeof(ARCADIANLED__Glower_t)))
 123              		.loc 1 120 0
 124 0002 1C4B     		ldr	r3, .L11
 125 0004 9B78     		ldrb	r3, [r3, #2]	@ zero_extendqisi2
 126 0006 082B     		cmp	r3, #8
 127 0008 2ED8     		bhi	.L8
 121:source\asw/tsk_ArcadianLed.c ****     {
 122:source\asw/tsk_ArcadianLed.c ****         PWM_RGB_SetRed  (RGB_glowtable[Index].rgb_R_pwm);
 128              		.loc 1 122 0
 129 000a 1B4D     		ldr	r5, .L11+4
 130 000c 03EB4303 		add	r3, r3, r3, lsl #1
 131 0010 5A00     		lsls	r2, r3, #1
 132 0012 2A44     		add	r2, r2, r5
 133 0014 92F82C00 		ldrb	r0, [r2, #44]	@ zero_extendqisi2
 134 0018 FFF7FEFF 		bl	PWM_RGB_SetRed
 135              	.LVL3:
 123:source\asw/tsk_ArcadianLed.c ****         PWM_RGB_SetGreen(RGB_glowtable[Index].rgb_G_pwm);
 136              		.loc 1 123 0
 137 001c 154C     		ldr	r4, .L11
 138 001e A378     		ldrb	r3, [r4, #2]	@ zero_extendqisi2
 139 0020 03EB4303 		add	r3, r3, r3, lsl #1
 140 0024 5A00     		lsls	r2, r3, #1
 141 0026 2A44     		add	r2, r2, r5
 142 0028 92F82D00 		ldrb	r0, [r2, #45]	@ zero_extendqisi2
 143 002c FFF7FEFF 		bl	PWM_RGB_SetGreen
 144              	.LVL4:
 124:source\asw/tsk_ArcadianLed.c ****         PWM_RGB_SetBlue (RGB_glowtable[Index].rgb_B_pwm);
 145              		.loc 1 124 0
 146 0030 A378     		ldrb	r3, [r4, #2]	@ zero_extendqisi2
 147 0032 03EB4303 		add	r3, r3, r3, lsl #1
 148 0036 5A00     		lsls	r2, r3, #1
 149 0038 2A44     		add	r2, r2, r5
 150 003a 92F82E00 		ldrb	r0, [r2, #46]	@ zero_extendqisi2
 151 003e FFF7FEFF 		bl	PWM_RGB_SetBlue
 152              	.LVL5:
 125:source\asw/tsk_ArcadianLed.c ****         
 126:source\asw/tsk_ArcadianLed.c ****         // Has the time elapsed ?
 127:source\asw/tsk_ArcadianLed.c ****         if (RGB_glowtable[Index].TimeDuration <= (TimeCount++ * TSK_ARCADIANLED_CYCLIC_TIME))
 153              		.loc 1 127 0
 154 0042 A278     		ldrb	r2, [r4, #2]	@ zero_extendqisi2
 155 0044 02EB4201 		add	r1, r2, r2, lsl #1
 156 0048 4B00     		lsls	r3, r1, #1
 157 004a 1D44     		add	r5, r5, r3
 158 004c 288E     		ldrh	r0, [r5, #48]
ARM GAS  C:\Users\rbhar\AppData\Local\Temp\cc07KOtB.s 			page 6


 159 004e E178     		ldrb	r1, [r4, #3]	@ zero_extendqisi2
 160 0050 4B1C     		adds	r3, r1, #1
 161 0052 E370     		strb	r3, [r4, #3]
 162 0054 6423     		movs	r3, #100
 163 0056 03FB01F3 		mul	r3, r3, r1
 164 005a 9842     		cmp	r0, r3
 165 005c 08DC     		bgt	.L9
 128:source\asw/tsk_ArcadianLed.c ****         {
 129:source\asw/tsk_ArcadianLed.c ****             Index++;
 166              		.loc 1 129 0
 167 005e 0132     		adds	r2, r2, #1
 168 0060 A270     		strb	r2, [r4, #2]
 130:source\asw/tsk_ArcadianLed.c ****             TimeCount = 0;
 169              		.loc 1 130 0
 170 0062 0022     		movs	r2, #0
 171 0064 E270     		strb	r2, [r4, #3]
 172 0066 03E0     		b	.L9
 173              	.L8:
 131:source\asw/tsk_ArcadianLed.c ****         }
 132:source\asw/tsk_ArcadianLed.c ****     }
 133:source\asw/tsk_ArcadianLed.c ****     else
 134:source\asw/tsk_ArcadianLed.c ****     {
 135:source\asw/tsk_ArcadianLed.c ****         Index       = 0;
 174              		.loc 1 135 0
 175 0068 024B     		ldr	r3, .L11
 176 006a 0022     		movs	r2, #0
 177 006c 9A70     		strb	r2, [r3, #2]
 136:source\asw/tsk_ArcadianLed.c ****         TimeCount   = 0;
 178              		.loc 1 136 0
 179 006e DA70     		strb	r2, [r3, #3]
 180              	.L9:
 137:source\asw/tsk_ArcadianLed.c ****     }
 138:source\asw/tsk_ArcadianLed.c ****     
 139:source\asw/tsk_ArcadianLed.c ****     return RC_SUCCESS;
 140:source\asw/tsk_ArcadianLed.c **** }
 181              		.loc 1 140 0
 182 0070 0020     		movs	r0, #0
 183 0072 38BD     		pop	{r3, r4, r5, pc}
 184              	.L12:
 185              		.align	2
 186              	.L11:
 187 0074 00000000 		.word	.LANCHOR0
 188 0078 00000000 		.word	.LANCHOR1
 189              		.cfi_endproc
 190              	.LFE111:
 191              		.size	ARCADIANLED__Glower, .-ARCADIANLED__Glower
 192              		.section	.text.Functsk_ArcadianLed,"ax",%progbits
 193              		.align	2
 194              		.global	Functsk_ArcadianLed
 195              		.thumb
 196              		.thumb_func
 197              		.type	Functsk_ArcadianLed, %function
 198              	Functsk_ArcadianLed:
 199              	.LFB112:
 141:source\asw/tsk_ArcadianLed.c **** 
 142:source\asw/tsk_ArcadianLed.c **** 
 143:source\asw/tsk_ArcadianLed.c **** /**
ARM GAS  C:\Users\rbhar\AppData\Local\Temp\cc07KOtB.s 			page 7


 144:source\asw/tsk_ArcadianLed.c ****  * The Task definition
 145:source\asw/tsk_ArcadianLed.c ****  * The tsk_ArcadianLed is a cyclic task which is activated every 100ms.
 146:source\asw/tsk_ArcadianLed.c ****  * The task is activated via an alarm.
 147:source\asw/tsk_ArcadianLed.c ****  */
 148:source\asw/tsk_ArcadianLed.c **** TASK(tsk_ArcadianLed)
 149:source\asw/tsk_ArcadianLed.c **** {
 200              		.loc 1 149 0
 201              		.cfi_startproc
 202              		@ args = 0, pretend = 0, frame = 0
 203              		@ frame_needed = 0, uses_anonymous_args = 0
 204 0000 08B5     		push	{r3, lr}
 205              		.cfi_def_cfa_offset 8
 206              		.cfi_offset 3, -8
 207              		.cfi_offset 14, -4
 150:source\asw/tsk_ArcadianLed.c ****     // call fader
 151:source\asw/tsk_ArcadianLed.c ****     ARCADIANLED__Fader();
 208              		.loc 1 151 0
 209 0002 FFF7FEFF 		bl	ARCADIANLED__Fader
 210              	.LVL6:
 152:source\asw/tsk_ArcadianLed.c ****     
 153:source\asw/tsk_ArcadianLed.c ****     // call glower
 154:source\asw/tsk_ArcadianLed.c ****     ARCADIANLED__Glower();
 211              		.loc 1 154 0
 212 0006 FFF7FEFF 		bl	ARCADIANLED__Glower
 213              	.LVL7:
 155:source\asw/tsk_ArcadianLed.c ****     
 156:source\asw/tsk_ArcadianLed.c ****     // Terminate the init task and let the schedular do its thing!
 157:source\asw/tsk_ArcadianLed.c ****     TerminateTask();
 214              		.loc 1 157 0
 215 000a FFF7FEFF 		bl	EE_oo_TerminateTask
 216              	.LVL8:
 217 000e 08BD     		pop	{r3, pc}
 218              		.cfi_endproc
 219              	.LFE112:
 220              		.size	Functsk_ArcadianLed, .-Functsk_ArcadianLed
 221              		.section	.rodata
 222              		.align	2
 223              		.set	.LANCHOR1,. + 0
 224              		.type	Led_fadertable, %object
 225              		.size	Led_fadertable, 42
 226              	Led_fadertable:
 227 0000 7F       		.byte	127
 228 0001 00       		.byte	0
 229 0002 00       		.byte	0
 230 0003 00       		.space	1
 231 0004 6400     		.short	100
 232 0006 FF       		.byte	-1
 233 0007 00       		.byte	0
 234 0008 00       		.byte	0
 235 0009 00       		.space	1
 236 000a 6400     		.short	100
 237 000c 7F       		.byte	127
 238 000d 7F       		.byte	127
 239 000e 00       		.byte	0
 240 000f 00       		.space	1
 241 0010 6400     		.short	100
 242 0012 00       		.byte	0
ARM GAS  C:\Users\rbhar\AppData\Local\Temp\cc07KOtB.s 			page 8


 243 0013 FF       		.byte	-1
 244 0014 00       		.byte	0
 245 0015 00       		.space	1
 246 0016 6400     		.short	100
 247 0018 00       		.byte	0
 248 0019 7F       		.byte	127
 249 001a 7F       		.byte	127
 250 001b 00       		.space	1
 251 001c 6400     		.short	100
 252 001e 00       		.byte	0
 253 001f 00       		.byte	0
 254 0020 FF       		.byte	-1
 255 0021 00       		.space	1
 256 0022 6400     		.short	100
 257 0024 00       		.byte	0
 258 0025 00       		.byte	0
 259 0026 7F       		.byte	127
 260 0027 00       		.space	1
 261 0028 6400     		.short	100
 262 002a 0000     		.space	2
 263              		.type	RGB_glowtable, %object
 264              		.size	RGB_glowtable, 54
 265              	RGB_glowtable:
 266 002c FF       		.byte	-1
 267 002d 00       		.byte	0
 268 002e 00       		.byte	0
 269 002f 00       		.space	1
 270 0030 F401     		.short	500
 271 0032 00       		.byte	0
 272 0033 FF       		.byte	-1
 273 0034 00       		.byte	0
 274 0035 00       		.space	1
 275 0036 F401     		.short	500
 276 0038 00       		.byte	0
 277 0039 00       		.byte	0
 278 003a FF       		.byte	-1
 279 003b 00       		.space	1
 280 003c F401     		.short	500
 281 003e 00       		.byte	0
 282 003f 00       		.byte	0
 283 0040 00       		.byte	0
 284 0041 00       		.space	1
 285 0042 6400     		.short	100
 286 0044 FF       		.byte	-1
 287 0045 FF       		.byte	-1
 288 0046 FF       		.byte	-1
 289 0047 00       		.space	1
 290 0048 6400     		.short	100
 291 004a 00       		.byte	0
 292 004b 00       		.byte	0
 293 004c 00       		.byte	0
 294 004d 00       		.space	1
 295 004e 6400     		.short	100
 296 0050 FF       		.byte	-1
 297 0051 FF       		.byte	-1
 298 0052 FF       		.byte	-1
 299 0053 00       		.space	1
ARM GAS  C:\Users\rbhar\AppData\Local\Temp\cc07KOtB.s 			page 9


 300 0054 6400     		.short	100
 301 0056 00       		.byte	0
 302 0057 00       		.byte	0
 303 0058 00       		.byte	0
 304 0059 00       		.space	1
 305 005a 6400     		.short	100
 306 005c FF       		.byte	-1
 307 005d FF       		.byte	-1
 308 005e FF       		.byte	-1
 309 005f 00       		.space	1
 310 0060 6400     		.short	100
 311              		.bss
 312              		.set	.LANCHOR0,. + 0
 313              		.type	Index.6553, %object
 314              		.size	Index.6553, 1
 315              	Index.6553:
 316 0000 00       		.space	1
 317              		.type	TimeCount.6554, %object
 318              		.size	TimeCount.6554, 1
 319              	TimeCount.6554:
 320 0001 00       		.space	1
 321              		.type	Index.6558, %object
 322              		.size	Index.6558, 1
 323              	Index.6558:
 324 0002 00       		.space	1
 325              		.type	TimeCount.6559, %object
 326              		.size	TimeCount.6559, 1
 327              	TimeCount.6559:
 328 0003 00       		.space	1
 329              		.text
 330              	.Letext0:
 331              		.file 2 "d:\\installations\\cypress\\psoc creator\\4.2\\psoc creator\\import\\gnu\\arm\\5.4.1\\arm
 332              		.file 3 "d:\\installations\\cypress\\psoc creator\\4.2\\psoc creator\\import\\gnu\\arm\\5.4.1\\arm
 333              		.file 4 "Generated_Source\\PSoC5/ErikaOS_common_ee_types.inc"
 334              		.file 5 "Generated_Source\\PSoC5/ErikaOS_cortex_mx_ee_cpu.inc"
 335              		.file 6 ".\\source\\bsw/global.h"
 336              		.file 7 "source\\asw\\tsk_ArcadianLed.h"
 337              		.file 8 "Generated_Source\\PSoC5/ErikaOS_ee_oo_intfunc.inc"
 338              		.file 9 "Generated_Source\\PSoC5/ErikaOS_cortex_mx_ee_context.inc"
 339              		.file 10 "Generated_Source\\PSoC5/ErikaOS_common_ee_primitives.inc"
 340              		.file 11 "Generated_Source\\PSoC5/core_cm3.h"
 341              		.file 12 ".\\source\\bsw/pwm.h"
 342              		.file 13 "Generated_Source\\PSoC5/ErikaOS_ee_oo_kernel.inc"