ARM GAS  C:\Users\rbhar\AppData\Local\Temp\ccI96Kth.s 			page 1


   1              		.syntax unified
   2              		.cpu cortex-m3
   3              		.fpu softvfp
   4              		.eabi_attribute 20, 1
   5              		.eabi_attribute 21, 1
   6              		.eabi_attribute 23, 3
   7              		.eabi_attribute 24, 1
   8              		.eabi_attribute 25, 1
   9              		.eabi_attribute 26, 1
  10              		.eabi_attribute 30, 1
  11              		.eabi_attribute 34, 1
  12              		.eabi_attribute 18, 4
  13              		.thumb
  14              		.syntax unified
  15              		.file	"tsk_ReactionGame.c"
  16              		.text
  17              	.Ltext0:
  18              		.cfi_sections	.debug_frame
  19              		.section	.text.REACTIONGAME__WelcomeScreen,"ax",%progbits
  20              		.align	2
  21              		.thumb
  22              		.thumb_func
  23              		.type	REACTIONGAME__WelcomeScreen, %function
  24              	REACTIONGAME__WelcomeScreen:
  25              	.LFB111:
  26              		.file 1 "source\\asw\\tsk_ReactionGame.c"
   1:source\asw/tsk_ReactionGame.c **** /**
   2:source\asw/tsk_ReactionGame.c **** * \file <tsk_ReactionGame.c>
   3:source\asw/tsk_ReactionGame.c **** * \author <Bharath Ramachandraiah>
   4:source\asw/tsk_ReactionGame.c **** * \date <13/11/2018>
   5:source\asw/tsk_ReactionGame.c **** *
   6:source\asw/tsk_ReactionGame.c **** * \brief <Symbolic File name>
   7:source\asw/tsk_ReactionGame.c **** *
   8:source\asw/tsk_ReactionGame.c **** * \copyright Copyright ©2016
   9:source\asw/tsk_ReactionGame.c **** * Department of electrical engineering and information technology, Hochschule Darmstadt - Universit
  10:source\asw/tsk_ReactionGame.c **** * Permission to use, copy, modify, and distribute this software and its documentation for education
  11:source\asw/tsk_ReactionGame.c **** * (unless permitted by h_da) and official h_da projects, is hereby granted for enrolled students of
  12:source\asw/tsk_ReactionGame.c **** * this paragraph and the following paragraph appear in all copies, modifications, and distributions
  13:source\asw/tsk_ReactionGame.c **** * Contact Prof.Dr.-Ing. Peter Fromm, peter.fromm@h-da.de, Birkenweg 8 64295 Darmstadt - GERMANY for
  14:source\asw/tsk_ReactionGame.c **** *
  15:source\asw/tsk_ReactionGame.c **** * \warning This software is a PROTOTYPE version and is not designed or intended for use in producti
  16:source\asw/tsk_ReactionGame.c **** * The user represents and warrants that it will NOT use or redistribute the Software for such purpo
  17:source\asw/tsk_ReactionGame.c **** * This prototype is for research purposes only. This software is provided "AS IS," without a warran
  18:source\asw/tsk_ReactionGame.c **** */
  19:source\asw/tsk_ReactionGame.c **** 
  20:source\asw/tsk_ReactionGame.c **** /*****************************************************************************/
  21:source\asw/tsk_ReactionGame.c **** /* Include files                                                             */
  22:source\asw/tsk_ReactionGame.c **** /*****************************************************************************/
  23:source\asw/tsk_ReactionGame.c **** #include "global.h"
  24:source\asw/tsk_ReactionGame.c **** #include "seven.h"
  25:source\asw/tsk_ReactionGame.c **** #include "console.h"
  26:source\asw/tsk_ReactionGame.c **** #include "button.h"
  27:source\asw/tsk_ReactionGame.c **** #include "tsk_Timer.h"
  28:source\asw/tsk_ReactionGame.c **** #include "tsk_ReactionGame.h"
  29:source\asw/tsk_ReactionGame.c **** #include <stdlib.h>
  30:source\asw/tsk_ReactionGame.c **** 
  31:source\asw/tsk_ReactionGame.c **** /*****************************************************************************/
ARM GAS  C:\Users\rbhar\AppData\Local\Temp\ccI96Kth.s 			page 2


  32:source\asw/tsk_ReactionGame.c **** /* Local pre-processor symbols/macros ('#define')                            */
  33:source\asw/tsk_ReactionGame.c **** /*****************************************************************************/
  34:source\asw/tsk_ReactionGame.c **** #define MAX_TIMEOUT                 1
  35:source\asw/tsk_ReactionGame.c **** #define GAME_TIMEOUT                10
  36:source\asw/tsk_ReactionGame.c **** #define MAX_RANDOM_NUMBER           2
  37:source\asw/tsk_ReactionGame.c **** #define MAX_RANDOM_SECONDS          3
  38:source\asw/tsk_ReactionGame.c **** #define MAX_ROUNDS_IN_GAME          5
  39:source\asw/tsk_ReactionGame.c **** 
  40:source\asw/tsk_ReactionGame.c **** /*****************************************************************************/
  41:source\asw/tsk_ReactionGame.c **** /* Global variable definitions (declared in header file with 'extern')       */
  42:source\asw/tsk_ReactionGame.c **** /*****************************************************************************/
  43:source\asw/tsk_ReactionGame.c **** 
  44:source\asw/tsk_ReactionGame.c **** /*****************************************************************************/
  45:source\asw/tsk_ReactionGame.c **** /* Local type definitions ('typedef')                                        */
  46:source\asw/tsk_ReactionGame.c **** /*****************************************************************************/
  47:source\asw/tsk_ReactionGame.c **** 
  48:source\asw/tsk_ReactionGame.c **** 
  49:source\asw/tsk_ReactionGame.c **** /*****************************************************************************/
  50:source\asw/tsk_ReactionGame.c **** /* Local variable definitions ('static')                                     */
  51:source\asw/tsk_ReactionGame.c **** /*****************************************************************************/
  52:source\asw/tsk_ReactionGame.c **** 
  53:source\asw/tsk_ReactionGame.c **** 
  54:source\asw/tsk_ReactionGame.c **** /*****************************************************************************/
  55:source\asw/tsk_ReactionGame.c **** /* Local function prototypes ('static')                                      */
  56:source\asw/tsk_ReactionGame.c **** /*****************************************************************************/
  57:source\asw/tsk_ReactionGame.c **** 
  58:source\asw/tsk_ReactionGame.c **** 
  59:source\asw/tsk_ReactionGame.c **** /*****************************************************************************/
  60:source\asw/tsk_ReactionGame.c **** /* Function implementation - global ('extern') and local ('static')          */
  61:source\asw/tsk_ReactionGame.c **** /*****************************************************************************/
  62:source\asw/tsk_ReactionGame.c **** /**
  63:source\asw/tsk_ReactionGame.c ****  * A function to generate a random number.
  64:source\asw/tsk_ReactionGame.c ****  * @param uint8_t NumRange      : IN Maximum value of a random number
  65:source\asw/tsk_ReactionGame.c ****  * @return a random value.
  66:source\asw/tsk_ReactionGame.c ****  */
  67:source\asw/tsk_ReactionGame.c **** static uint8_t GetRandomNumber(uint8_t NumberRange)
  68:source\asw/tsk_ReactionGame.c **** {
  69:source\asw/tsk_ReactionGame.c ****     uint32_t Num = 0;
  70:source\asw/tsk_ReactionGame.c ****     
  71:source\asw/tsk_ReactionGame.c ****     Num = rand();
  72:source\asw/tsk_ReactionGame.c **** 
  73:source\asw/tsk_ReactionGame.c ****     Num %= NumberRange;
  74:source\asw/tsk_ReactionGame.c ****         
  75:source\asw/tsk_ReactionGame.c ****     return Num;
  76:source\asw/tsk_ReactionGame.c **** }
  77:source\asw/tsk_ReactionGame.c **** 
  78:source\asw/tsk_ReactionGame.c **** 
  79:source\asw/tsk_ReactionGame.c **** static RC_t REACTIONGAME__WelcomeScreen(REACTIONGAME_t *Game)
  80:source\asw/tsk_ReactionGame.c **** {
  27              		.loc 1 80 0
  28              		.cfi_startproc
  29              		@ args = 0, pretend = 0, frame = 0
  30              		@ frame_needed = 0, uses_anonymous_args = 0
  31              	.LVL0:
  32 0000 10B5     		push	{r4, lr}
  33              		.cfi_def_cfa_offset 8
  34              		.cfi_offset 4, -8
ARM GAS  C:\Users\rbhar\AppData\Local\Temp\ccI96Kth.s 			page 3


  35              		.cfi_offset 14, -4
  36 0002 0446     		mov	r4, r0
  81:source\asw/tsk_ReactionGame.c ****     CONSOLE_Write("=========================================================\n");
  37              		.loc 1 81 0
  38 0004 0D48     		ldr	r0, .L3
  39              	.LVL1:
  40 0006 FFF7FEFF 		bl	CONSOLE_Write
  41              	.LVL2:
  82:source\asw/tsk_ReactionGame.c ****     CONSOLE_Write("Welcome to The Reaction Game!\n");
  42              		.loc 1 82 0
  43 000a 0D48     		ldr	r0, .L3+4
  44 000c FFF7FEFF 		bl	CONSOLE_Write
  45              	.LVL3:
  83:source\asw/tsk_ReactionGame.c ****     CONSOLE_Write("=========================================================\n\n");
  46              		.loc 1 83 0
  47 0010 0C48     		ldr	r0, .L3+8
  48 0012 FFF7FEFF 		bl	CONSOLE_Write
  49              	.LVL4:
  84:source\asw/tsk_ReactionGame.c ****     CONSOLE_Write("Press any button to start the game...\n\n");
  50              		.loc 1 84 0
  51 0016 0C48     		ldr	r0, .L3+12
  52 0018 FFF7FEFF 		bl	CONSOLE_Write
  53              	.LVL5:
  85:source\asw/tsk_ReactionGame.c ****     
  86:source\asw/tsk_ReactionGame.c ****     // Wait for the any button to be pressed
  87:source\asw/tsk_ReactionGame.c ****     WaitEvent(ev_Button1 | ev_Button2 | ev_Timeout);
  54              		.loc 1 87 0
  55 001c 0720     		movs	r0, #7
  56 001e FFF7FEFF 		bl	EE_oo_WaitEvent
  57              	.LVL6:
  88:source\asw/tsk_ReactionGame.c ****     GetEvent(tsk_ReactionGame, &Game->Event);
  58              		.loc 1 88 0
  59 0022 04F10C01 		add	r1, r4, #12
  60 0026 0220     		movs	r0, #2
  61 0028 FFF7FEFF 		bl	EE_oo_GetEvent
  62              	.LVL7:
  89:source\asw/tsk_ReactionGame.c ****     ClearEvent(Game->Event);
  63              		.loc 1 89 0
  64 002c E068     		ldr	r0, [r4, #12]
  65 002e FFF7FEFF 		bl	EE_oo_ClearEvent
  66              	.LVL8:
  90:source\asw/tsk_ReactionGame.c ****     
  91:source\asw/tsk_ReactionGame.c ****     Game->Status = RG__STATUS_START;
  67              		.loc 1 91 0
  68 0032 0123     		movs	r3, #1
  69 0034 A374     		strb	r3, [r4, #18]
  92:source\asw/tsk_ReactionGame.c ****     
  93:source\asw/tsk_ReactionGame.c ****     return RC_SUCCESS;
  94:source\asw/tsk_ReactionGame.c **** }
  70              		.loc 1 94 0
  71 0036 0020     		movs	r0, #0
  72 0038 10BD     		pop	{r4, pc}
  73              	.LVL9:
  74              	.L4:
  75 003a 00BF     		.align	2
  76              	.L3:
  77 003c 00000000 		.word	.LC0
ARM GAS  C:\Users\rbhar\AppData\Local\Temp\ccI96Kth.s 			page 4


  78 0040 3C000000 		.word	.LC1
  79 0044 5C000000 		.word	.LC2
  80 0048 98000000 		.word	.LC3
  81              		.cfi_endproc
  82              	.LFE111:
  83              		.size	REACTIONGAME__WelcomeScreen, .-REACTIONGAME__WelcomeScreen
  84              		.section	.text.REACTIONGAME__ProcessReaction,"ax",%progbits
  85              		.align	2
  86              		.thumb
  87              		.thumb_func
  88              		.type	REACTIONGAME__ProcessReaction, %function
  89              	REACTIONGAME__ProcessReaction:
  90              	.LFB113:
  95:source\asw/tsk_ReactionGame.c **** 
  96:source\asw/tsk_ReactionGame.c **** 
  97:source\asw/tsk_ReactionGame.c **** static RC_t REACTIONGAME__GetUserReaction(REACTIONGAME_t *Game)
  98:source\asw/tsk_ReactionGame.c **** {
  99:source\asw/tsk_ReactionGame.c ****     // Start a timeout for 1 second to read the user reaction
 100:source\asw/tsk_ReactionGame.c ****     SetRelAlarm(alrm_Timeout, MAX_TIMEOUT * MILLISECONDS, 0);
 101:source\asw/tsk_ReactionGame.c ****     
 102:source\asw/tsk_ReactionGame.c ****     // Start Time measurement
 103:source\asw/tsk_ReactionGame.c ****     TIMER_StartTimeMeasurement();
 104:source\asw/tsk_ReactionGame.c ****     
 105:source\asw/tsk_ReactionGame.c ****     // Wait until the user's reaction or timeout
 106:source\asw/tsk_ReactionGame.c ****     WaitEvent(ev_Button1 | ev_Button2 | ev_Timeout);
 107:source\asw/tsk_ReactionGame.c ****     
 108:source\asw/tsk_ReactionGame.c ****     // Cancel the Alarm and Clear event
 109:source\asw/tsk_ReactionGame.c ****     CancelAlarm(alrm_Timeout);
 110:source\asw/tsk_ReactionGame.c ****     GetEvent(tsk_ReactionGame, &Game->Event);
 111:source\asw/tsk_ReactionGame.c ****     ClearEvent(Game->Event);
 112:source\asw/tsk_ReactionGame.c ****     
 113:source\asw/tsk_ReactionGame.c ****     // Get the elapsed time
 114:source\asw/tsk_ReactionGame.c ****     TIMER_ElapsedTimeMeasurement(&Game->MeasureReactionTime);
 115:source\asw/tsk_ReactionGame.c ****     
 116:source\asw/tsk_ReactionGame.c ****     return RC_SUCCESS;
 117:source\asw/tsk_ReactionGame.c **** }
 118:source\asw/tsk_ReactionGame.c **** 
 119:source\asw/tsk_ReactionGame.c **** 
 120:source\asw/tsk_ReactionGame.c **** static RC_t REACTIONGAME__ProcessReaction(REACTIONGAME_t *Game, uint8_t RandomNumber)
 121:source\asw/tsk_ReactionGame.c **** {
  91              		.loc 1 121 0
  92              		.cfi_startproc
  93              		@ args = 0, pretend = 0, frame = 0
  94              		@ frame_needed = 0, uses_anonymous_args = 0
  95              	.LVL10:
  96 0000 10B5     		push	{r4, lr}
  97              		.cfi_def_cfa_offset 8
  98              		.cfi_offset 4, -8
  99              		.cfi_offset 14, -4
 100 0002 0446     		mov	r4, r0
 122:source\asw/tsk_ReactionGame.c ****     /**
 123:source\asw/tsk_ReactionGame.c ****     * Outcome:
 124:source\asw/tsk_ReactionGame.c ****     * 1. Timeout - Missed the button press
 125:source\asw/tsk_ReactionGame.c ****     * 2. Valid button press
 126:source\asw/tsk_ReactionGame.c ****     * 3. Invalid button press
 127:source\asw/tsk_ReactionGame.c ****     */
 128:source\asw/tsk_ReactionGame.c ****     
ARM GAS  C:\Users\rbhar\AppData\Local\Temp\ccI96Kth.s 			page 5


 129:source\asw/tsk_ReactionGame.c ****     if (Game->Event & ev_Timeout)
 101              		.loc 1 129 0
 102 0004 C368     		ldr	r3, [r0, #12]
 103 0006 13F0040F 		tst	r3, #4
 104 000a 06D0     		beq	.L6
 130:source\asw/tsk_ReactionGame.c ****     {
 131:source\asw/tsk_ReactionGame.c ****         // Missed the button press
 132:source\asw/tsk_ReactionGame.c ****         CONSOLE_Write("Too slow\n\n");
 105              		.loc 1 132 0
 106 000c 1448     		ldr	r0, .L12
 107              	.LVL11:
 108 000e FFF7FEFF 		bl	CONSOLE_Write
 109              	.LVL12:
 133:source\asw/tsk_ReactionGame.c ****         
 134:source\asw/tsk_ReactionGame.c ****         Game->MissedPresses++;
 110              		.loc 1 134 0
 111 0012 E378     		ldrb	r3, [r4, #3]	@ zero_extendqisi2
 112 0014 0133     		adds	r3, r3, #1
 113 0016 E370     		strb	r3, [r4, #3]
 114 0018 20E0     		b	.L7
 115              	.LVL13:
 116              	.L6:
 135:source\asw/tsk_ReactionGame.c ****     }
 136:source\asw/tsk_ReactionGame.c ****     else
 137:source\asw/tsk_ReactionGame.c ****     {
 138:source\asw/tsk_ReactionGame.c ****         // Some button pressed; check valid button pressed or not
 139:source\asw/tsk_ReactionGame.c ****         if (((Game->Event & ev_Button1) && (RandomNumber == BUTTON_1)) ||
 117              		.loc 1 139 0
 118 001a 13F0010F 		tst	r3, #1
 119 001e 01D0     		beq	.L8
 120              		.loc 1 139 0 is_stmt 0 discriminator 1
 121 0020 0129     		cmp	r1, #1
 122 0022 04D0     		beq	.L9
 123              	.L8:
 124              		.loc 1 139 0 discriminator 3
 125 0024 13F0020F 		tst	r3, #2
 126 0028 12D0     		beq	.L10
 140:source\asw/tsk_ReactionGame.c ****             ((Game->Event & ev_Button2) && (RandomNumber == BUTTON_2)))
 127              		.loc 1 140 0 is_stmt 1
 128 002a 0229     		cmp	r1, #2
 129 002c 10D1     		bne	.L10
 130              	.L9:
 141:source\asw/tsk_ReactionGame.c ****         {
 142:source\asw/tsk_ReactionGame.c ****             // Valid button pressed
 143:source\asw/tsk_ReactionGame.c ****             CONSOLE_Write("Correct button pressed | Reaction Time is ");
 131              		.loc 1 143 0
 132 002e 0D48     		ldr	r0, .L12+4
 133              	.LVL14:
 134 0030 FFF7FEFF 		bl	CONSOLE_Write
 135              	.LVL15:
 144:source\asw/tsk_ReactionGame.c ****             CONSOLE_WriteNumber(Game->MeasureReactionTime);
 136              		.loc 1 144 0
 137 0034 A068     		ldr	r0, [r4, #8]
 138 0036 FFF7FEFF 		bl	CONSOLE_WriteNumber
 139              	.LVL16:
 145:source\asw/tsk_ReactionGame.c ****             CONSOLE_Write("ms\n\n");
 140              		.loc 1 145 0
ARM GAS  C:\Users\rbhar\AppData\Local\Temp\ccI96Kth.s 			page 6


 141 003a 0B48     		ldr	r0, .L12+8
 142 003c FFF7FEFF 		bl	CONSOLE_Write
 143              	.LVL17:
 146:source\asw/tsk_ReactionGame.c ****             
 147:source\asw/tsk_ReactionGame.c ****             Game->CorrectButtonPresses++;
 144              		.loc 1 147 0
 145 0040 6378     		ldrb	r3, [r4, #1]	@ zero_extendqisi2
 146 0042 0133     		adds	r3, r3, #1
 147 0044 6370     		strb	r3, [r4, #1]
 148:source\asw/tsk_ReactionGame.c ****             Game->AvgReactionTime += Game->MeasureReactionTime;
 148              		.loc 1 148 0
 149 0046 A368     		ldr	r3, [r4, #8]
 150 0048 6268     		ldr	r2, [r4, #4]
 151 004a 1344     		add	r3, r3, r2
 152 004c 6360     		str	r3, [r4, #4]
 153 004e 05E0     		b	.L7
 154              	.LVL18:
 155              	.L10:
 149:source\asw/tsk_ReactionGame.c ****         }
 150:source\asw/tsk_ReactionGame.c ****         else
 151:source\asw/tsk_ReactionGame.c ****         {
 152:source\asw/tsk_ReactionGame.c ****             // Invalid button pressed
 153:source\asw/tsk_ReactionGame.c ****             CONSOLE_Write("Wrong button pressed\n\n");
 156              		.loc 1 153 0
 157 0050 0648     		ldr	r0, .L12+12
 158              	.LVL19:
 159 0052 FFF7FEFF 		bl	CONSOLE_Write
 160              	.LVL20:
 154:source\asw/tsk_ReactionGame.c ****             
 155:source\asw/tsk_ReactionGame.c ****             Game->IncorrectButtonPresses++;
 161              		.loc 1 155 0
 162 0056 A378     		ldrb	r3, [r4, #2]	@ zero_extendqisi2
 163 0058 0133     		adds	r3, r3, #1
 164 005a A370     		strb	r3, [r4, #2]
 165              	.L7:
 156:source\asw/tsk_ReactionGame.c ****         }
 157:source\asw/tsk_ReactionGame.c ****     }
 158:source\asw/tsk_ReactionGame.c ****     
 159:source\asw/tsk_ReactionGame.c ****     return RC_SUCCESS;
 160:source\asw/tsk_ReactionGame.c **** }
 166              		.loc 1 160 0
 167 005c 0020     		movs	r0, #0
 168 005e 10BD     		pop	{r4, pc}
 169              	.LVL21:
 170              	.L13:
 171              		.align	2
 172              	.L12:
 173 0060 C0000000 		.word	.LC4
 174 0064 CC000000 		.word	.LC5
 175 0068 F8000000 		.word	.LC6
 176 006c 00010000 		.word	.LC7
 177              		.cfi_endproc
 178              	.LFE113:
 179              		.size	REACTIONGAME__ProcessReaction, .-REACTIONGAME__ProcessReaction
 180              		.section	.text.REACTIONGAME__Summary,"ax",%progbits
 181              		.align	2
 182              		.thumb
ARM GAS  C:\Users\rbhar\AppData\Local\Temp\ccI96Kth.s 			page 7


 183              		.thumb_func
 184              		.type	REACTIONGAME__Summary, %function
 185              	REACTIONGAME__Summary:
 186              	.LFB114:
 161:source\asw/tsk_ReactionGame.c **** 
 162:source\asw/tsk_ReactionGame.c **** 
 163:source\asw/tsk_ReactionGame.c **** static RC_t REACTIONGAME__Summary(REACTIONGAME_t *Game)
 164:source\asw/tsk_ReactionGame.c **** {
 187              		.loc 1 164 0
 188              		.cfi_startproc
 189              		@ args = 0, pretend = 0, frame = 0
 190              		@ frame_needed = 0, uses_anonymous_args = 0
 191              	.LVL22:
 192 0000 38B5     		push	{r3, r4, r5, lr}
 193              		.cfi_def_cfa_offset 16
 194              		.cfi_offset 3, -16
 195              		.cfi_offset 4, -12
 196              		.cfi_offset 5, -8
 197              		.cfi_offset 14, -4
 198 0002 0446     		mov	r4, r0
 165:source\asw/tsk_ReactionGame.c ****     CONSOLE_Write("=========================================================\n");
 199              		.loc 1 165 0
 200 0004 2048     		ldr	r0, .L17
 201              	.LVL23:
 202 0006 FFF7FEFF 		bl	CONSOLE_Write
 203              	.LVL24:
 166:source\asw/tsk_ReactionGame.c ****     CONSOLE_Write("Game Summary:\n");
 204              		.loc 1 166 0
 205 000a 2048     		ldr	r0, .L17+4
 206 000c FFF7FEFF 		bl	CONSOLE_Write
 207              	.LVL25:
 167:source\asw/tsk_ReactionGame.c ****     if (Game->Status == RG__STATUS_TIMEOUT)
 208              		.loc 1 167 0
 209 0010 A37C     		ldrb	r3, [r4, #18]	@ zero_extendqisi2
 210 0012 042B     		cmp	r3, #4
 211 0014 02D1     		bne	.L15
 168:source\asw/tsk_ReactionGame.c ****     {
 169:source\asw/tsk_ReactionGame.c ****         CONSOLE_Write("Timeout!\n");    
 212              		.loc 1 169 0
 213 0016 1E48     		ldr	r0, .L17+8
 214 0018 FFF7FEFF 		bl	CONSOLE_Write
 215              	.LVL26:
 216              	.L15:
 170:source\asw/tsk_ReactionGame.c ****     }
 171:source\asw/tsk_ReactionGame.c ****     CONSOLE_Write("Correct button presses : ");
 217              		.loc 1 171 0
 218 001c 1D48     		ldr	r0, .L17+12
 219 001e FFF7FEFF 		bl	CONSOLE_Write
 220              	.LVL27:
 172:source\asw/tsk_ReactionGame.c ****     CONSOLE_WriteNumber(Game->CorrectButtonPresses);
 221              		.loc 1 172 0
 222 0022 6078     		ldrb	r0, [r4, #1]	@ zero_extendqisi2
 223 0024 FFF7FEFF 		bl	CONSOLE_WriteNumber
 224              	.LVL28:
 173:source\asw/tsk_ReactionGame.c ****     CONSOLE_Write("\n");
 225              		.loc 1 173 0
 226 0028 1B4D     		ldr	r5, .L17+16
ARM GAS  C:\Users\rbhar\AppData\Local\Temp\ccI96Kth.s 			page 8


 227 002a 2846     		mov	r0, r5
 228 002c FFF7FEFF 		bl	CONSOLE_Write
 229              	.LVL29:
 174:source\asw/tsk_ReactionGame.c ****     CONSOLE_Write("Wrong   button presses : ");
 230              		.loc 1 174 0
 231 0030 1A48     		ldr	r0, .L17+20
 232 0032 FFF7FEFF 		bl	CONSOLE_Write
 233              	.LVL30:
 175:source\asw/tsk_ReactionGame.c ****     CONSOLE_WriteNumber(Game->IncorrectButtonPresses);
 234              		.loc 1 175 0
 235 0036 A078     		ldrb	r0, [r4, #2]	@ zero_extendqisi2
 236 0038 FFF7FEFF 		bl	CONSOLE_WriteNumber
 237              	.LVL31:
 176:source\asw/tsk_ReactionGame.c ****     CONSOLE_Write("\n");
 238              		.loc 1 176 0
 239 003c 2846     		mov	r0, r5
 240 003e FFF7FEFF 		bl	CONSOLE_Write
 241              	.LVL32:
 177:source\asw/tsk_ReactionGame.c ****     CONSOLE_Write("Missed  button presses : ");
 242              		.loc 1 177 0
 243 0042 1748     		ldr	r0, .L17+24
 244 0044 FFF7FEFF 		bl	CONSOLE_Write
 245              	.LVL33:
 178:source\asw/tsk_ReactionGame.c ****     CONSOLE_WriteNumber(Game->MissedPresses);
 246              		.loc 1 178 0
 247 0048 E078     		ldrb	r0, [r4, #3]	@ zero_extendqisi2
 248 004a FFF7FEFF 		bl	CONSOLE_WriteNumber
 249              	.LVL34:
 179:source\asw/tsk_ReactionGame.c ****     CONSOLE_Write("\n");
 250              		.loc 1 179 0
 251 004e 2846     		mov	r0, r5
 252 0050 FFF7FEFF 		bl	CONSOLE_Write
 253              	.LVL35:
 180:source\asw/tsk_ReactionGame.c ****     CONSOLE_Write("Average  Reaction Time : ");
 254              		.loc 1 180 0
 255 0054 1348     		ldr	r0, .L17+28
 256 0056 FFF7FEFF 		bl	CONSOLE_Write
 257              	.LVL36:
 181:source\asw/tsk_ReactionGame.c ****     CONSOLE_WriteNumber(Game->AvgReactionTime / Game->CorrectButtonPresses);
 258              		.loc 1 181 0
 259 005a 6068     		ldr	r0, [r4, #4]
 260 005c 6378     		ldrb	r3, [r4, #1]	@ zero_extendqisi2
 261 005e B0FBF3F0 		udiv	r0, r0, r3
 262 0062 FFF7FEFF 		bl	CONSOLE_WriteNumber
 263              	.LVL37:
 182:source\asw/tsk_ReactionGame.c ****     CONSOLE_Write("ms\n");
 264              		.loc 1 182 0
 265 0066 1048     		ldr	r0, .L17+32
 266 0068 FFF7FEFF 		bl	CONSOLE_Write
 267              	.LVL38:
 183:source\asw/tsk_ReactionGame.c ****     CONSOLE_Write("=========================================================\n\n\n");
 268              		.loc 1 183 0
 269 006c 0F48     		ldr	r0, .L17+36
 270 006e FFF7FEFF 		bl	CONSOLE_Write
 271              	.LVL39:
 184:source\asw/tsk_ReactionGame.c ****     
 185:source\asw/tsk_ReactionGame.c ****     // Reset Game parameters
ARM GAS  C:\Users\rbhar\AppData\Local\Temp\ccI96Kth.s 			page 9


 186:source\asw/tsk_ReactionGame.c ****     Game->Rounds                 = 0;
 272              		.loc 1 186 0
 273 0072 0020     		movs	r0, #0
 274 0074 2070     		strb	r0, [r4]
 187:source\asw/tsk_ReactionGame.c ****     Game->AvgReactionTime        = 0;
 275              		.loc 1 187 0
 276 0076 6060     		str	r0, [r4, #4]
 188:source\asw/tsk_ReactionGame.c ****     Game->MeasureReactionTime    = 0;
 277              		.loc 1 188 0
 278 0078 A060     		str	r0, [r4, #8]
 189:source\asw/tsk_ReactionGame.c ****     Game->MissedPresses          = 0;
 279              		.loc 1 189 0
 280 007a E070     		strb	r0, [r4, #3]
 190:source\asw/tsk_ReactionGame.c ****     Game->CorrectButtonPresses   = 0;
 281              		.loc 1 190 0
 282 007c 6070     		strb	r0, [r4, #1]
 191:source\asw/tsk_ReactionGame.c ****     Game->IncorrectButtonPresses = 0;
 283              		.loc 1 191 0
 284 007e A070     		strb	r0, [r4, #2]
 192:source\asw/tsk_ReactionGame.c ****     Game->Status                 = RG__STATUS_END;
 285              		.loc 1 192 0
 286 0080 0323     		movs	r3, #3
 287 0082 A374     		strb	r3, [r4, #18]
 193:source\asw/tsk_ReactionGame.c ****     
 194:source\asw/tsk_ReactionGame.c ****     return RC_SUCCESS;
 195:source\asw/tsk_ReactionGame.c **** }
 288              		.loc 1 195 0
 289 0084 38BD     		pop	{r3, r4, r5, pc}
 290              	.LVL40:
 291              	.L18:
 292 0086 00BF     		.align	2
 293              	.L17:
 294 0088 00000000 		.word	.LC0
 295 008c 18010000 		.word	.LC8
 296 0090 28010000 		.word	.LC9
 297 0094 34010000 		.word	.LC10
 298 0098 50010000 		.word	.LC11
 299 009c 54010000 		.word	.LC12
 300 00a0 70010000 		.word	.LC13
 301 00a4 8C010000 		.word	.LC14
 302 00a8 A8010000 		.word	.LC15
 303 00ac AC010000 		.word	.LC16
 304              		.cfi_endproc
 305              	.LFE114:
 306              		.size	REACTIONGAME__Summary, .-REACTIONGAME__Summary
 307              		.section	.text.REACTIONGAME__EndRound,"ax",%progbits
 308              		.align	2
 309              		.thumb
 310              		.thumb_func
 311              		.type	REACTIONGAME__EndRound, %function
 312              	REACTIONGAME__EndRound:
 313              	.LFB115:
 196:source\asw/tsk_ReactionGame.c **** 
 197:source\asw/tsk_ReactionGame.c **** 
 198:source\asw/tsk_ReactionGame.c **** static RC_t REACTIONGAME__EndRound(REACTIONGAME_t *Game)
 199:source\asw/tsk_ReactionGame.c **** {
 314              		.loc 1 199 0
ARM GAS  C:\Users\rbhar\AppData\Local\Temp\ccI96Kth.s 			page 10


 315              		.cfi_startproc
 316              		@ args = 0, pretend = 0, frame = 0
 317              		@ frame_needed = 0, uses_anonymous_args = 0
 318              	.LVL41:
 319 0000 10B5     		push	{r4, lr}
 320              		.cfi_def_cfa_offset 8
 321              		.cfi_offset 4, -8
 322              		.cfi_offset 14, -4
 323 0002 0446     		mov	r4, r0
 200:source\asw/tsk_ReactionGame.c ****     // Game ended, cleanup
 201:source\asw/tsk_ReactionGame.c ****     // Clear the Display
 202:source\asw/tsk_ReactionGame.c ****     S7D_Clear();
 324              		.loc 1 202 0
 325 0004 FFF7FEFF 		bl	S7D_Clear
 326              	.LVL42:
 203:source\asw/tsk_ReactionGame.c **** 
 204:source\asw/tsk_ReactionGame.c ****     // Summary of the Game
 205:source\asw/tsk_ReactionGame.c ****     REACTIONGAME__Summary(Game);
 327              		.loc 1 205 0
 328 0008 2046     		mov	r0, r4
 329 000a FFF7FEFF 		bl	REACTIONGAME__Summary
 330              	.LVL43:
 206:source\asw/tsk_ReactionGame.c **** 
 207:source\asw/tsk_ReactionGame.c ****     CONSOLE_Write("press one of the two buttons to exit!\n\n");
 331              		.loc 1 207 0
 332 000e 0848     		ldr	r0, .L21
 333 0010 FFF7FEFF 		bl	CONSOLE_Write
 334              	.LVL44:
 208:source\asw/tsk_ReactionGame.c **** 
 209:source\asw/tsk_ReactionGame.c ****     // Wait for the any button to be pressed
 210:source\asw/tsk_ReactionGame.c ****     WaitEvent(ev_Button1 | ev_Button2);
 335              		.loc 1 210 0
 336 0014 0320     		movs	r0, #3
 337 0016 FFF7FEFF 		bl	EE_oo_WaitEvent
 338              	.LVL45:
 211:source\asw/tsk_ReactionGame.c ****     GetEvent(tsk_ReactionGame, &Game->Event);
 339              		.loc 1 211 0
 340 001a 04F10C01 		add	r1, r4, #12
 341 001e 0220     		movs	r0, #2
 342 0020 FFF7FEFF 		bl	EE_oo_GetEvent
 343              	.LVL46:
 212:source\asw/tsk_ReactionGame.c ****     ClearEvent(Game->Event);
 344              		.loc 1 212 0
 345 0024 E068     		ldr	r0, [r4, #12]
 346 0026 FFF7FEFF 		bl	EE_oo_ClearEvent
 347              	.LVL47:
 213:source\asw/tsk_ReactionGame.c ****     
 214:source\asw/tsk_ReactionGame.c ****     Game->Status = RG__STATUS_IDLE;
 348              		.loc 1 214 0
 349 002a 0020     		movs	r0, #0
 350 002c A074     		strb	r0, [r4, #18]
 215:source\asw/tsk_ReactionGame.c ****     
 216:source\asw/tsk_ReactionGame.c ****     return RC_SUCCESS;
 217:source\asw/tsk_ReactionGame.c **** }
 351              		.loc 1 217 0
 352 002e 10BD     		pop	{r4, pc}
 353              	.LVL48:
ARM GAS  C:\Users\rbhar\AppData\Local\Temp\ccI96Kth.s 			page 11


 354              	.L22:
 355              		.align	2
 356              	.L21:
 357 0030 EC010000 		.word	.LC17
 358              		.cfi_endproc
 359              	.LFE115:
 360              		.size	REACTIONGAME__EndRound, .-REACTIONGAME__EndRound
 361              		.section	.text.GetRandomNumber,"ax",%progbits
 362              		.align	2
 363              		.thumb
 364              		.thumb_func
 365              		.type	GetRandomNumber, %function
 366              	GetRandomNumber:
 367              	.LFB110:
  68:source\asw/tsk_ReactionGame.c ****     uint32_t Num = 0;
 368              		.loc 1 68 0
 369              		.cfi_startproc
 370              		@ args = 0, pretend = 0, frame = 0
 371              		@ frame_needed = 0, uses_anonymous_args = 0
 372              	.LVL49:
 373 0000 10B5     		push	{r4, lr}
 374              		.cfi_def_cfa_offset 8
 375              		.cfi_offset 4, -8
 376              		.cfi_offset 14, -4
 377 0002 0446     		mov	r4, r0
 378              	.LVL50:
  71:source\asw/tsk_ReactionGame.c **** 
 379              		.loc 1 71 0
 380 0004 FFF7FEFF 		bl	rand
 381              	.LVL51:
  73:source\asw/tsk_ReactionGame.c ****         
 382              		.loc 1 73 0
 383 0008 B0FBF4F3 		udiv	r3, r0, r4
 384 000c 04FB1300 		mls	r0, r4, r3, r0
 385              	.LVL52:
  76:source\asw/tsk_ReactionGame.c **** 
 386              		.loc 1 76 0
 387 0010 C0B2     		uxtb	r0, r0
 388              	.LVL53:
 389 0012 10BD     		pop	{r4, pc}
 390              		.cfi_endproc
 391              	.LFE110:
 392              		.size	GetRandomNumber, .-GetRandomNumber
 393              		.section	.text.REACTIONGAME__GameRound,"ax",%progbits
 394              		.align	2
 395              		.thumb
 396              		.thumb_func
 397              		.type	REACTIONGAME__GameRound, %function
 398              	REACTIONGAME__GameRound:
 399              	.LFB116:
 218:source\asw/tsk_ReactionGame.c **** 
 219:source\asw/tsk_ReactionGame.c **** 
 220:source\asw/tsk_ReactionGame.c **** static RC_t REACTIONGAME__GameRound(REACTIONGAME_t *Game)
 221:source\asw/tsk_ReactionGame.c **** {
 400              		.loc 1 221 0
 401              		.cfi_startproc
 402              		@ args = 0, pretend = 0, frame = 0
ARM GAS  C:\Users\rbhar\AppData\Local\Temp\ccI96Kth.s 			page 12


 403              		@ frame_needed = 0, uses_anonymous_args = 0
 404              	.LVL54:
 405 0000 70B5     		push	{r4, r5, r6, lr}
 406              		.cfi_def_cfa_offset 16
 407              		.cfi_offset 4, -16
 408              		.cfi_offset 5, -12
 409              		.cfi_offset 6, -8
 410              		.cfi_offset 14, -4
 411 0002 0446     		mov	r4, r0
 412              	.LVL55:
 222:source\asw/tsk_ReactionGame.c ****     uint8_t RandomNumber = 0;
 223:source\asw/tsk_ReactionGame.c ****     
 224:source\asw/tsk_ReactionGame.c ****     CONSOLE_Write("Reaction Game - Round ");
 413              		.loc 1 224 0
 414 0004 2B48     		ldr	r0, .L29
 415              	.LVL56:
 416 0006 FFF7FEFF 		bl	CONSOLE_Write
 417              	.LVL57:
 225:source\asw/tsk_ReactionGame.c ****     CONSOLE_WriteNumber(Game->Rounds + 1);
 418              		.loc 1 225 0
 419 000a 2078     		ldrb	r0, [r4]	@ zero_extendqisi2
 420 000c 0130     		adds	r0, r0, #1
 421 000e FFF7FEFF 		bl	CONSOLE_WriteNumber
 422              	.LVL58:
 226:source\asw/tsk_ReactionGame.c ****     CONSOLE_Write("\n");
 423              		.loc 1 226 0
 424 0012 2948     		ldr	r0, .L29+4
 425 0014 FFF7FEFF 		bl	CONSOLE_Write
 426              	.LVL59:
 227:source\asw/tsk_ReactionGame.c ****     CONSOLE_Write("press one of the two buttons to start...\n");
 427              		.loc 1 227 0
 428 0018 2848     		ldr	r0, .L29+8
 429 001a FFF7FEFF 		bl	CONSOLE_Write
 430              	.LVL60:
 228:source\asw/tsk_ReactionGame.c ****     
 229:source\asw/tsk_ReactionGame.c ****     Game->Status = RG__STATUS_RUNNING;
 431              		.loc 1 229 0
 432 001e 0225     		movs	r5, #2
 433 0020 A574     		strb	r5, [r4, #18]
 230:source\asw/tsk_ReactionGame.c ****     
 231:source\asw/tsk_ReactionGame.c ****     // Clear all the alarms and events before we start the round
 232:source\asw/tsk_ReactionGame.c ****     CancelAlarm(alrm_Timeout);
 434              		.loc 1 232 0
 435 0022 0120     		movs	r0, #1
 436 0024 FFF7FEFF 		bl	EE_oo_CancelAlarm
 437              	.LVL61:
 233:source\asw/tsk_ReactionGame.c ****     GetEvent(tsk_ReactionGame, &Game->Event);
 438              		.loc 1 233 0
 439 0028 04F10C06 		add	r6, r4, #12
 440 002c 3146     		mov	r1, r6
 441 002e 2846     		mov	r0, r5
 442 0030 FFF7FEFF 		bl	EE_oo_GetEvent
 443              	.LVL62:
 234:source\asw/tsk_ReactionGame.c ****     ClearEvent(Game->Event);
 444              		.loc 1 234 0
 445 0034 E068     		ldr	r0, [r4, #12]
 446 0036 FFF7FEFF 		bl	EE_oo_ClearEvent
ARM GAS  C:\Users\rbhar\AppData\Local\Temp\ccI96Kth.s 			page 13


 447              	.LVL63:
 235:source\asw/tsk_ReactionGame.c ****     
 236:source\asw/tsk_ReactionGame.c ****     // Set an alarm for a timeout 
 237:source\asw/tsk_ReactionGame.c ****     SetRelAlarm(alrm_Timeout, GAME_TIMEOUT * MILLISECONDS, 0);
 448              		.loc 1 237 0
 449 003a 0022     		movs	r2, #0
 450 003c 42F21071 		movw	r1, #10000
 451 0040 0120     		movs	r0, #1
 452 0042 FFF7FEFF 		bl	EE_oo_SetRelAlarm
 453              	.LVL64:
 238:source\asw/tsk_ReactionGame.c ****     
 239:source\asw/tsk_ReactionGame.c ****     // Wait for the any button to be pressed
 240:source\asw/tsk_ReactionGame.c ****     WaitEvent(ev_Button1 | ev_Button2 | ev_Timeout);
 454              		.loc 1 240 0
 455 0046 0720     		movs	r0, #7
 456 0048 FFF7FEFF 		bl	EE_oo_WaitEvent
 457              	.LVL65:
 241:source\asw/tsk_ReactionGame.c ****     
 242:source\asw/tsk_ReactionGame.c ****     // Cancel the alarm - maybe the user is still playing!
 243:source\asw/tsk_ReactionGame.c ****     CancelAlarm(alrm_Timeout);
 458              		.loc 1 243 0
 459 004c 0120     		movs	r0, #1
 460 004e FFF7FEFF 		bl	EE_oo_CancelAlarm
 461              	.LVL66:
 244:source\asw/tsk_ReactionGame.c ****     GetEvent(tsk_ReactionGame, &Game->Event);
 462              		.loc 1 244 0
 463 0052 3146     		mov	r1, r6
 464 0054 2846     		mov	r0, r5
 465 0056 FFF7FEFF 		bl	EE_oo_GetEvent
 466              	.LVL67:
 245:source\asw/tsk_ReactionGame.c ****     ClearEvent(Game->Event);
 467              		.loc 1 245 0
 468 005a E068     		ldr	r0, [r4, #12]
 469 005c FFF7FEFF 		bl	EE_oo_ClearEvent
 470              	.LVL68:
 246:source\asw/tsk_ReactionGame.c ****     
 247:source\asw/tsk_ReactionGame.c ****     if (Game->Event & ev_Timeout)
 471              		.loc 1 247 0
 472 0060 E368     		ldr	r3, [r4, #12]
 473 0062 13F0040F 		tst	r3, #4
 474 0066 07D0     		beq	.L26
 248:source\asw/tsk_ReactionGame.c ****     {
 249:source\asw/tsk_ReactionGame.c ****         // User has left in middle of the game, cleanup
 250:source\asw/tsk_ReactionGame.c ****         Game->Status = RG__STATUS_TIMEOUT;
 475              		.loc 1 250 0
 476 0068 0423     		movs	r3, #4
 477 006a A374     		strb	r3, [r4, #18]
 251:source\asw/tsk_ReactionGame.c ****         
 252:source\asw/tsk_ReactionGame.c ****         REACTIONGAME__EndRound(Game);
 478              		.loc 1 252 0
 479 006c 2046     		mov	r0, r4
 480 006e FFF7FEFF 		bl	REACTIONGAME__EndRound
 481              	.LVL69:
 253:source\asw/tsk_ReactionGame.c ****         
 254:source\asw/tsk_ReactionGame.c ****         // change the state 
 255:source\asw/tsk_ReactionGame.c ****         Game->NextState = RG__STATE_STANDBY;
 482              		.loc 1 255 0
ARM GAS  C:\Users\rbhar\AppData\Local\Temp\ccI96Kth.s 			page 14


 483 0072 0023     		movs	r3, #0
 484 0074 6374     		strb	r3, [r4, #17]
 485 0076 1AE0     		b	.L27
 486              	.L26:
 256:source\asw/tsk_ReactionGame.c ****     }
 257:source\asw/tsk_ReactionGame.c ****     else
 258:source\asw/tsk_ReactionGame.c ****     {
 259:source\asw/tsk_ReactionGame.c ****         // User is still playing, cancel the alarm before timeout
 260:source\asw/tsk_ReactionGame.c ****         // Display dot to indicate the game is in progress
 261:source\asw/tsk_ReactionGame.c ****         S7D_SetDot();
 487              		.loc 1 261 0
 488 0078 FFF7FEFF 		bl	S7D_SetDot
 489              	.LVL70:
 262:source\asw/tsk_ReactionGame.c ****         
 263:source\asw/tsk_ReactionGame.c ****         // Set a timer alarm for random time and wait until it expires
 264:source\asw/tsk_ReactionGame.c ****         RandomNumber = GetRandomNumber(MAX_RANDOM_SECONDS) + 1;
 490              		.loc 1 264 0
 491 007c 0320     		movs	r0, #3
 492 007e FFF7FEFF 		bl	GetRandomNumber
 493              	.LVL71:
 494 0082 0130     		adds	r0, r0, #1
 495 0084 C0B2     		uxtb	r0, r0
 496              	.LVL72:
 265:source\asw/tsk_ReactionGame.c ****         SetRelAlarm(alrm_Timeout, RandomNumber * MILLISECONDS, 0);
 497              		.loc 1 265 0
 498 0086 0022     		movs	r2, #0
 499 0088 4FF47A71 		mov	r1, #1000
 500 008c 01FB00F1 		mul	r1, r1, r0
 501 0090 0120     		movs	r0, #1
 502              	.LVL73:
 503 0092 FFF7FEFF 		bl	EE_oo_SetRelAlarm
 504              	.LVL74:
 266:source\asw/tsk_ReactionGame.c ****         
 267:source\asw/tsk_ReactionGame.c ****         WaitEvent(ev_Timeout);
 505              		.loc 1 267 0
 506 0096 0420     		movs	r0, #4
 507 0098 FFF7FEFF 		bl	EE_oo_WaitEvent
 508              	.LVL75:
 268:source\asw/tsk_ReactionGame.c ****         
 269:source\asw/tsk_ReactionGame.c ****         // During this time a button might be pressed as well, so clear all the events
 270:source\asw/tsk_ReactionGame.c ****         // Since we are waiting for time expiry, no need to explicitly cancel the alarm
 271:source\asw/tsk_ReactionGame.c ****         GetEvent(tsk_ReactionGame, &Game->Event);
 509              		.loc 1 271 0
 510 009c 3146     		mov	r1, r6
 511 009e 0220     		movs	r0, #2
 512 00a0 FFF7FEFF 		bl	EE_oo_GetEvent
 513              	.LVL76:
 272:source\asw/tsk_ReactionGame.c ****         ClearEvent(Game->Event);
 514              		.loc 1 272 0
 515 00a4 E068     		ldr	r0, [r4, #12]
 516 00a6 FFF7FEFF 		bl	EE_oo_ClearEvent
 517              	.LVL77:
 273:source\asw/tsk_ReactionGame.c ****         
 274:source\asw/tsk_ReactionGame.c ****         // change the state 
 275:source\asw/tsk_ReactionGame.c ****         Game->NextState = RG__STATE_DISPLAY_NUMBER;
 518              		.loc 1 275 0
 519 00aa 0123     		movs	r3, #1
ARM GAS  C:\Users\rbhar\AppData\Local\Temp\ccI96Kth.s 			page 15


 520 00ac 6374     		strb	r3, [r4, #17]
 521              	.L27:
 276:source\asw/tsk_ReactionGame.c ****     }
 277:source\asw/tsk_ReactionGame.c ****     
 278:source\asw/tsk_ReactionGame.c ****     return RC_SUCCESS;
 279:source\asw/tsk_ReactionGame.c **** }
 522              		.loc 1 279 0
 523 00ae 0020     		movs	r0, #0
 524 00b0 70BD     		pop	{r4, r5, r6, pc}
 525              	.LVL78:
 526              	.L30:
 527 00b2 00BF     		.align	2
 528              	.L29:
 529 00b4 14020000 		.word	.LC18
 530 00b8 50010000 		.word	.LC11
 531 00bc 2C020000 		.word	.LC19
 532              		.cfi_endproc
 533              	.LFE116:
 534              		.size	REACTIONGAME__GameRound, .-REACTIONGAME__GameRound
 535              		.section	.text.REACTIONGAME__GetUserReaction,"ax",%progbits
 536              		.align	2
 537              		.thumb
 538              		.thumb_func
 539              		.type	REACTIONGAME__GetUserReaction, %function
 540              	REACTIONGAME__GetUserReaction:
 541              	.LFB112:
  98:source\asw/tsk_ReactionGame.c ****     // Start a timeout for 1 second to read the user reaction
 542              		.loc 1 98 0
 543              		.cfi_startproc
 544              		@ args = 0, pretend = 0, frame = 0
 545              		@ frame_needed = 0, uses_anonymous_args = 0
 546              	.LVL79:
 547 0000 10B5     		push	{r4, lr}
 548              		.cfi_def_cfa_offset 8
 549              		.cfi_offset 4, -8
 550              		.cfi_offset 14, -4
 551 0002 0446     		mov	r4, r0
 100:source\asw/tsk_ReactionGame.c ****     
 552              		.loc 1 100 0
 553 0004 0022     		movs	r2, #0
 554 0006 4FF47A71 		mov	r1, #1000
 555 000a 0120     		movs	r0, #1
 556              	.LVL80:
 557 000c FFF7FEFF 		bl	EE_oo_SetRelAlarm
 558              	.LVL81:
 103:source\asw/tsk_ReactionGame.c ****     
 559              		.loc 1 103 0
 560 0010 FFF7FEFF 		bl	TIMER_StartTimeMeasurement
 561              	.LVL82:
 106:source\asw/tsk_ReactionGame.c ****     
 562              		.loc 1 106 0
 563 0014 0720     		movs	r0, #7
 564 0016 FFF7FEFF 		bl	EE_oo_WaitEvent
 565              	.LVL83:
 109:source\asw/tsk_ReactionGame.c ****     GetEvent(tsk_ReactionGame, &Game->Event);
 566              		.loc 1 109 0
 567 001a 0120     		movs	r0, #1
ARM GAS  C:\Users\rbhar\AppData\Local\Temp\ccI96Kth.s 			page 16


 568 001c FFF7FEFF 		bl	EE_oo_CancelAlarm
 569              	.LVL84:
 110:source\asw/tsk_ReactionGame.c ****     ClearEvent(Game->Event);
 570              		.loc 1 110 0
 571 0020 04F10C01 		add	r1, r4, #12
 572 0024 0220     		movs	r0, #2
 573 0026 FFF7FEFF 		bl	EE_oo_GetEvent
 574              	.LVL85:
 111:source\asw/tsk_ReactionGame.c ****     
 575              		.loc 1 111 0
 576 002a E068     		ldr	r0, [r4, #12]
 577 002c FFF7FEFF 		bl	EE_oo_ClearEvent
 578              	.LVL86:
 114:source\asw/tsk_ReactionGame.c ****     
 579              		.loc 1 114 0
 580 0030 04F10800 		add	r0, r4, #8
 581 0034 FFF7FEFF 		bl	TIMER_ElapsedTimeMeasurement
 582              	.LVL87:
 117:source\asw/tsk_ReactionGame.c **** 
 583              		.loc 1 117 0
 584 0038 0020     		movs	r0, #0
 585 003a 10BD     		pop	{r4, pc}
 586              		.cfi_endproc
 587              	.LFE112:
 588              		.size	REACTIONGAME__GetUserReaction, .-REACTIONGAME__GetUserReaction
 589              		.section	.text.Functsk_ReactionGame,"ax",%progbits
 590              		.align	2
 591              		.global	Functsk_ReactionGame
 592              		.thumb
 593              		.thumb_func
 594              		.type	Functsk_ReactionGame, %function
 595              	Functsk_ReactionGame:
 596              	.LFB117:
 280:source\asw/tsk_ReactionGame.c **** 
 281:source\asw/tsk_ReactionGame.c **** 
 282:source\asw/tsk_ReactionGame.c **** /**
 283:source\asw/tsk_ReactionGame.c ****  * The tsk_ReactionGame is an extended task which is used to implement the game
 284:source\asw/tsk_ReactionGame.c ****  * The priority must be highest in the system.
 285:source\asw/tsk_ReactionGame.c ****  */
 286:source\asw/tsk_ReactionGame.c **** TASK(tsk_ReactionGame)
 287:source\asw/tsk_ReactionGame.c **** {
 597              		.loc 1 287 0
 598              		.cfi_startproc
 599              		@ args = 0, pretend = 0, frame = 24
 600              		@ frame_needed = 0, uses_anonymous_args = 0
 601 0000 10B5     		push	{r4, lr}
 602              		.cfi_def_cfa_offset 8
 603              		.cfi_offset 4, -8
 604              		.cfi_offset 14, -4
 605 0002 86B0     		sub	sp, sp, #24
 606              		.cfi_def_cfa_offset 32
 607              	.LVL88:
 288:source\asw/tsk_ReactionGame.c ****     uint8_t RandomNumber = 0;
 289:source\asw/tsk_ReactionGame.c ****     
 290:source\asw/tsk_ReactionGame.c ****     REACTIONGAME_t Game = {
 608              		.loc 1 290 0
 609 0004 0024     		movs	r4, #0
ARM GAS  C:\Users\rbhar\AppData\Local\Temp\ccI96Kth.s 			page 17


 610 0006 0194     		str	r4, [sp, #4]
 611 0008 0294     		str	r4, [sp, #8]
 612 000a 0394     		str	r4, [sp, #12]
 613 000c 0494     		str	r4, [sp, #16]
 614 000e 0594     		str	r4, [sp, #20]
 615              	.LVL89:
 616              	.L41:
 291:source\asw/tsk_ReactionGame.c ****         .Rounds                 = 0,
 292:source\asw/tsk_ReactionGame.c ****         .CorrectButtonPresses   = 0,
 293:source\asw/tsk_ReactionGame.c ****         .IncorrectButtonPresses = 0,
 294:source\asw/tsk_ReactionGame.c ****         .MissedPresses          = 0,
 295:source\asw/tsk_ReactionGame.c ****         .AvgReactionTime        = 0,
 296:source\asw/tsk_ReactionGame.c ****         .MeasureReactionTime    = 0,
 297:source\asw/tsk_ReactionGame.c ****         .Event                  = 0,
 298:source\asw/tsk_ReactionGame.c ****         .CurrentState           = RG__STATE_STANDBY, 
 299:source\asw/tsk_ReactionGame.c ****         .NextState              = RG__STATE_STANDBY,
 300:source\asw/tsk_ReactionGame.c ****         .Status                 = RG__STATUS_IDLE,
 301:source\asw/tsk_ReactionGame.c ****     };
 302:source\asw/tsk_ReactionGame.c ****     
 303:source\asw/tsk_ReactionGame.c ****     while (1)
 304:source\asw/tsk_ReactionGame.c ****     {
 305:source\asw/tsk_ReactionGame.c ****         switch (Game.CurrentState)
 617              		.loc 1 305 0
 618 0010 9DF81430 		ldrb	r3, [sp, #20]	@ zero_extendqisi2
 619 0014 012B     		cmp	r3, #1
 620 0016 0FD0     		beq	.L35
 621 0018 13B1     		cbz	r3, .L36
 622 001a 022B     		cmp	r3, #2
 623 001c 1BD0     		beq	.L37
 624 001e 30E0     		b	.L34
 625              	.L36:
 306:source\asw/tsk_ReactionGame.c ****         {
 307:source\asw/tsk_ReactionGame.c ****             case RG__STATE_STANDBY:
 308:source\asw/tsk_ReactionGame.c ****                 
 309:source\asw/tsk_ReactionGame.c ****                 // Clear the Display
 310:source\asw/tsk_ReactionGame.c ****                 S7D_Clear();
 626              		.loc 1 310 0
 627 0020 FFF7FEFF 		bl	S7D_Clear
 628              	.LVL90:
 311:source\asw/tsk_ReactionGame.c ****                 
 312:source\asw/tsk_ReactionGame.c ****                 // check if it is the begining of new game
 313:source\asw/tsk_ReactionGame.c ****                 if (!Game.Rounds)
 629              		.loc 1 313 0
 630 0024 9DF80430 		ldrb	r3, [sp, #4]	@ zero_extendqisi2
 631 0028 13B9     		cbnz	r3, .L38
 314:source\asw/tsk_ReactionGame.c ****                 {
 315:source\asw/tsk_ReactionGame.c ****                     REACTIONGAME__WelcomeScreen(&Game);
 632              		.loc 1 315 0
 633 002a 01A8     		add	r0, sp, #4
 634 002c FFF7FEFF 		bl	REACTIONGAME__WelcomeScreen
 635              	.LVL91:
 636              	.L38:
 316:source\asw/tsk_ReactionGame.c ****                 }
 317:source\asw/tsk_ReactionGame.c ****                 
 318:source\asw/tsk_ReactionGame.c ****                 // Start the a Game Round
 319:source\asw/tsk_ReactionGame.c ****                 REACTIONGAME__GameRound(&Game);
 637              		.loc 1 319 0
ARM GAS  C:\Users\rbhar\AppData\Local\Temp\ccI96Kth.s 			page 18


 638 0030 01A8     		add	r0, sp, #4
 639 0032 FFF7FEFF 		bl	REACTIONGAME__GameRound
 640              	.LVL92:
 320:source\asw/tsk_ReactionGame.c ****                 
 321:source\asw/tsk_ReactionGame.c ****             break;
 641              		.loc 1 321 0
 642 0036 24E0     		b	.L34
 643              	.L35:
 322:source\asw/tsk_ReactionGame.c ****             
 323:source\asw/tsk_ReactionGame.c ****             case RG__STATE_DISPLAY_NUMBER:
 324:source\asw/tsk_ReactionGame.c ****                 
 325:source\asw/tsk_ReactionGame.c ****                 // Generate Random number and update it on Display 
 326:source\asw/tsk_ReactionGame.c ****                 RandomNumber = GetRandomNumber(MAX_RANDOM_NUMBER) + 1;
 644              		.loc 1 326 0
 645 0038 0220     		movs	r0, #2
 646 003a FFF7FEFF 		bl	GetRandomNumber
 647              	.LVL93:
 648 003e 0130     		adds	r0, r0, #1
 649 0040 C4B2     		uxtb	r4, r0
 650              	.LVL94:
 327:source\asw/tsk_ReactionGame.c ****                 S7D_IdenticalWrite(RandomNumber);
 651              		.loc 1 327 0
 652 0042 2046     		mov	r0, r4
 653 0044 FFF7FEFF 		bl	S7D_IdenticalWrite
 654              	.LVL95:
 328:source\asw/tsk_ReactionGame.c ****                 
 329:source\asw/tsk_ReactionGame.c ****                 REACTIONGAME__GetUserReaction(&Game);
 655              		.loc 1 329 0
 656 0048 01A8     		add	r0, sp, #4
 657 004a FFF7FEFF 		bl	REACTIONGAME__GetUserReaction
 658              	.LVL96:
 330:source\asw/tsk_ReactionGame.c ****                 
 331:source\asw/tsk_ReactionGame.c ****                 // change the state 
 332:source\asw/tsk_ReactionGame.c ****                 Game.NextState = RG__STATE_PROCESS_REACTION;
 659              		.loc 1 332 0
 660 004e 0223     		movs	r3, #2
 661 0050 8DF81530 		strb	r3, [sp, #21]
 333:source\asw/tsk_ReactionGame.c ****                 
 334:source\asw/tsk_ReactionGame.c ****             break;
 662              		.loc 1 334 0
 663 0054 15E0     		b	.L34
 664              	.L37:
 335:source\asw/tsk_ReactionGame.c ****             
 336:source\asw/tsk_ReactionGame.c ****             case RG__STATE_PROCESS_REACTION:
 337:source\asw/tsk_ReactionGame.c ****                 
 338:source\asw/tsk_ReactionGame.c ****                 // Process the events
 339:source\asw/tsk_ReactionGame.c ****                 REACTIONGAME__ProcessReaction(&Game, RandomNumber);
 665              		.loc 1 339 0
 666 0056 2146     		mov	r1, r4
 667 0058 01A8     		add	r0, sp, #4
 668 005a FFF7FEFF 		bl	REACTIONGAME__ProcessReaction
 669              	.LVL97:
 340:source\asw/tsk_ReactionGame.c ****                 
 341:source\asw/tsk_ReactionGame.c ****                 // Game ended ?
 342:source\asw/tsk_ReactionGame.c ****                 if (++Game.Rounds >= MAX_ROUNDS_IN_GAME)
 670              		.loc 1 342 0
 671 005e 9DF80430 		ldrb	r3, [sp, #4]	@ zero_extendqisi2
ARM GAS  C:\Users\rbhar\AppData\Local\Temp\ccI96Kth.s 			page 19


 672 0062 0133     		adds	r3, r3, #1
 673 0064 DBB2     		uxtb	r3, r3
 674 0066 8DF80430 		strb	r3, [sp, #4]
 675 006a 042B     		cmp	r3, #4
 676 006c 03D9     		bls	.L39
 343:source\asw/tsk_ReactionGame.c ****                 {
 344:source\asw/tsk_ReactionGame.c ****                     REACTIONGAME__EndRound(&Game);
 677              		.loc 1 344 0
 678 006e 01A8     		add	r0, sp, #4
 679 0070 FFF7FEFF 		bl	REACTIONGAME__EndRound
 680              	.LVL98:
 681 0074 02E0     		b	.L40
 682              	.L39:
 345:source\asw/tsk_ReactionGame.c ****                 }
 346:source\asw/tsk_ReactionGame.c ****                 else
 347:source\asw/tsk_ReactionGame.c ****                 {
 348:source\asw/tsk_ReactionGame.c ****                     Game.Status = RG__STATUS_IDLE;
 683              		.loc 1 348 0
 684 0076 0023     		movs	r3, #0
 685 0078 8DF81630 		strb	r3, [sp, #22]
 686              	.L40:
 349:source\asw/tsk_ReactionGame.c ****                 }
 350:source\asw/tsk_ReactionGame.c ****                 
 351:source\asw/tsk_ReactionGame.c ****                 Game.NextState = RG__STATE_STANDBY;
 687              		.loc 1 351 0
 688 007c 0023     		movs	r3, #0
 689 007e 8DF81530 		strb	r3, [sp, #21]
 690              	.L34:
 352:source\asw/tsk_ReactionGame.c ****                 
 353:source\asw/tsk_ReactionGame.c ****             break;
 354:source\asw/tsk_ReactionGame.c ****                 
 355:source\asw/tsk_ReactionGame.c ****             default:
 356:source\asw/tsk_ReactionGame.c ****                 
 357:source\asw/tsk_ReactionGame.c ****                 // nothing to do here
 358:source\asw/tsk_ReactionGame.c ****                 
 359:source\asw/tsk_ReactionGame.c ****             break;
 360:source\asw/tsk_ReactionGame.c ****         }
 361:source\asw/tsk_ReactionGame.c ****         
 362:source\asw/tsk_ReactionGame.c ****         Game.CurrentState = Game.NextState;
 691              		.loc 1 362 0
 692 0082 9DF81530 		ldrb	r3, [sp, #21]	@ zero_extendqisi2
 693 0086 8DF81430 		strb	r3, [sp, #20]
 363:source\asw/tsk_ReactionGame.c ****     }
 694              		.loc 1 363 0
 695 008a C1E7     		b	.L41
 696              		.cfi_endproc
 697              	.LFE117:
 698              		.size	Functsk_ReactionGame, .-Functsk_ReactionGame
 699              		.section	.rodata.str1.4,"aMS",%progbits,1
 700              		.align	2
 701              	.LC0:
 702 0000 3D3D3D3D 		.ascii	"==================================================="
 702      3D3D3D3D 
 702      3D3D3D3D 
 702      3D3D3D3D 
 702      3D3D3D3D 
 703 0033 3D3D3D3D 		.ascii	"======\012\000"
ARM GAS  C:\Users\rbhar\AppData\Local\Temp\ccI96Kth.s 			page 20


 703      3D3D0A00 
 704 003b 00       		.space	1
 705              	.LC1:
 706 003c 57656C63 		.ascii	"Welcome to The Reaction Game!\012\000"
 706      6F6D6520 
 706      746F2054 
 706      68652052 
 706      65616374 
 707 005b 00       		.space	1
 708              	.LC2:
 709 005c 3D3D3D3D 		.ascii	"==================================================="
 709      3D3D3D3D 
 709      3D3D3D3D 
 709      3D3D3D3D 
 709      3D3D3D3D 
 710 008f 3D3D3D3D 		.ascii	"======\012\012\000"
 710      3D3D0A0A 
 710      00
 711              	.LC3:
 712 0098 50726573 		.ascii	"Press any button to start the game...\012\012\000"
 712      7320616E 
 712      79206275 
 712      74746F6E 
 712      20746F20 
 713              	.LC4:
 714 00c0 546F6F20 		.ascii	"Too slow\012\012\000"
 714      736C6F77 
 714      0A0A00
 715 00cb 00       		.space	1
 716              	.LC5:
 717 00cc 436F7272 		.ascii	"Correct button pressed | Reaction Time is \000"
 717      65637420 
 717      62757474 
 717      6F6E2070 
 717      72657373 
 718 00f7 00       		.space	1
 719              	.LC6:
 720 00f8 6D730A0A 		.ascii	"ms\012\012\000"
 720      00
 721 00fd 000000   		.space	3
 722              	.LC7:
 723 0100 57726F6E 		.ascii	"Wrong button pressed\012\012\000"
 723      67206275 
 723      74746F6E 
 723      20707265 
 723      73736564 
 724 0117 00       		.space	1
 725              	.LC8:
 726 0118 47616D65 		.ascii	"Game Summary:\012\000"
 726      2053756D 
 726      6D617279 
 726      3A0A00
 727 0127 00       		.space	1
 728              	.LC9:
 729 0128 54696D65 		.ascii	"Timeout!\012\000"
 729      6F757421 
 729      0A00
ARM GAS  C:\Users\rbhar\AppData\Local\Temp\ccI96Kth.s 			page 21


 730 0132 0000     		.space	2
 731              	.LC10:
 732 0134 436F7272 		.ascii	"Correct button presses : \000"
 732      65637420 
 732      62757474 
 732      6F6E2070 
 732      72657373 
 733 014e 0000     		.space	2
 734              	.LC11:
 735 0150 0A00     		.ascii	"\012\000"
 736 0152 0000     		.space	2
 737              	.LC12:
 738 0154 57726F6E 		.ascii	"Wrong   button presses : \000"
 738      67202020 
 738      62757474 
 738      6F6E2070 
 738      72657373 
 739 016e 0000     		.space	2
 740              	.LC13:
 741 0170 4D697373 		.ascii	"Missed  button presses : \000"
 741      65642020 
 741      62757474 
 741      6F6E2070 
 741      72657373 
 742 018a 0000     		.space	2
 743              	.LC14:
 744 018c 41766572 		.ascii	"Average  Reaction Time : \000"
 744      61676520 
 744      20526561 
 744      6374696F 
 744      6E205469 
 745 01a6 0000     		.space	2
 746              	.LC15:
 747 01a8 6D730A00 		.ascii	"ms\012\000"
 748              	.LC16:
 749 01ac 3D3D3D3D 		.ascii	"==================================================="
 749      3D3D3D3D 
 749      3D3D3D3D 
 749      3D3D3D3D 
 749      3D3D3D3D 
 750 01df 3D3D3D3D 		.ascii	"======\012\012\012\000"
 750      3D3D0A0A 
 750      0A00
 751 01e9 000000   		.space	3
 752              	.LC17:
 753 01ec 70726573 		.ascii	"press one of the two buttons to exit!\012\012\000"
 753      73206F6E 
 753      65206F66 
 753      20746865 
 753      2074776F 
 754              	.LC18:
 755 0214 52656163 		.ascii	"Reaction Game - Round \000"
 755      74696F6E 
 755      2047616D 
 755      65202D20 
 755      526F756E 
 756 022b 00       		.space	1
ARM GAS  C:\Users\rbhar\AppData\Local\Temp\ccI96Kth.s 			page 22


 757              	.LC19:
 758 022c 70726573 		.ascii	"press one of the two buttons to start...\012\000"
 758      73206F6E 
 758      65206F66 
 758      20746865 
 758      2074776F 
 759              		.text
 760              	.Letext0:
 761              		.file 2 "d:\\installations\\cypress\\psoc creator\\4.2\\psoc creator\\import\\gnu\\arm\\5.4.1\\arm
 762              		.file 3 "d:\\installations\\cypress\\psoc creator\\4.2\\psoc creator\\import\\gnu\\arm\\5.4.1\\arm
 763              		.file 4 "Generated_Source\\PSoC5/ErikaOS_common_ee_types.inc"
 764              		.file 5 "Generated_Source\\PSoC5/ErikaOS_cortex_mx_ee_cpu.inc"
 765              		.file 6 "Generated_Source\\PSoC5/ErikaOS_ee_oo_common.inc"
 766              		.file 7 ".\\source\\bsw/global.h"
 767              		.file 8 ".\\source\\bsw/button.h"
 768              		.file 9 "source\\asw\\tsk_ReactionGame.h"
 769              		.file 10 "Generated_Source\\PSoC5/ErikaOS_ee_oo_intfunc.inc"
 770              		.file 11 "Generated_Source\\PSoC5/ErikaOS_cortex_mx_ee_context.inc"
 771              		.file 12 "Generated_Source\\PSoC5/ErikaOS_common_ee_primitives.inc"
 772              		.file 13 "Generated_Source\\PSoC5/core_cm3.h"
 773              		.file 14 ".\\source\\bsw/console.h"
 774              		.file 15 "Generated_Source\\PSoC5/ErikaOS_ee_oo_kernel.inc"
 775              		.file 16 ".\\source\\bsw/seven.h"
 776              		.file 17 "d:\\installations\\cypress\\psoc creator\\4.2\\psoc creator\\import\\gnu\\arm\\5.4.1\\ar
 777              		.file 18 "source\\asw\\tsk_Timer.h"