ARM GAS  C:\Users\rbhar\AppData\Local\Temp\ccaqTdDy.s 			page 1


   1              		.syntax unified
   2              		.cpu cortex-m3
   3              		.fpu softvfp
   4              		.eabi_attribute 20, 1
   5              		.eabi_attribute 21, 1
   6              		.eabi_attribute 23, 3
   7              		.eabi_attribute 24, 1
   8              		.eabi_attribute 25, 1
   9              		.eabi_attribute 26, 1
  10              		.eabi_attribute 30, 1
  11              		.eabi_attribute 34, 1
  12              		.eabi_attribute 18, 4
  13              		.thumb
  14              		.syntax unified
  15              		.file	"UART_LOG.c"
  16              		.text
  17              	.Ltext0:
  18              		.cfi_sections	.debug_frame
  19              		.section	.text.UART_LOG_Init,"ax",%progbits
  20              		.align	2
  21              		.global	UART_LOG_Init
  22              		.thumb
  23              		.thumb_func
  24              		.type	UART_LOG_Init, %function
  25              	UART_LOG_Init:
  26              	.LFB1:
  27              		.file 1 "Generated_Source\\PSoC5\\UART_LOG.c"
   1:Generated_Source\PSoC5/UART_LOG.c **** /*******************************************************************************
   2:Generated_Source\PSoC5/UART_LOG.c **** * File Name: UART_LOG.c
   3:Generated_Source\PSoC5/UART_LOG.c **** * Version 2.50
   4:Generated_Source\PSoC5/UART_LOG.c **** *
   5:Generated_Source\PSoC5/UART_LOG.c **** * Description:
   6:Generated_Source\PSoC5/UART_LOG.c **** *  This file provides all API functionality of the UART component
   7:Generated_Source\PSoC5/UART_LOG.c **** *
   8:Generated_Source\PSoC5/UART_LOG.c **** * Note:
   9:Generated_Source\PSoC5/UART_LOG.c **** *
  10:Generated_Source\PSoC5/UART_LOG.c **** ********************************************************************************
  11:Generated_Source\PSoC5/UART_LOG.c **** * Copyright 2008-2015, Cypress Semiconductor Corporation.  All rights reserved.
  12:Generated_Source\PSoC5/UART_LOG.c **** * You may use this file only in accordance with the license, terms, conditions,
  13:Generated_Source\PSoC5/UART_LOG.c **** * disclaimers, and limitations in the end user license agreement accompanying
  14:Generated_Source\PSoC5/UART_LOG.c **** * the software package with which this file was provided.
  15:Generated_Source\PSoC5/UART_LOG.c **** *******************************************************************************/
  16:Generated_Source\PSoC5/UART_LOG.c **** 
  17:Generated_Source\PSoC5/UART_LOG.c **** #include "UART_LOG.h"
  18:Generated_Source\PSoC5/UART_LOG.c **** #if (UART_LOG_INTERNAL_CLOCK_USED)
  19:Generated_Source\PSoC5/UART_LOG.c ****     #include "UART_LOG_IntClock.h"
  20:Generated_Source\PSoC5/UART_LOG.c **** #endif /* End UART_LOG_INTERNAL_CLOCK_USED */
  21:Generated_Source\PSoC5/UART_LOG.c **** 
  22:Generated_Source\PSoC5/UART_LOG.c **** 
  23:Generated_Source\PSoC5/UART_LOG.c **** /***************************************
  24:Generated_Source\PSoC5/UART_LOG.c **** * Global data allocation
  25:Generated_Source\PSoC5/UART_LOG.c **** ***************************************/
  26:Generated_Source\PSoC5/UART_LOG.c **** 
  27:Generated_Source\PSoC5/UART_LOG.c **** uint8 UART_LOG_initVar = 0u;
  28:Generated_Source\PSoC5/UART_LOG.c **** 
  29:Generated_Source\PSoC5/UART_LOG.c **** #if (UART_LOG_TX_INTERRUPT_ENABLED && UART_LOG_TX_ENABLED)
  30:Generated_Source\PSoC5/UART_LOG.c ****     volatile uint8 UART_LOG_txBuffer[UART_LOG_TX_BUFFER_SIZE];
ARM GAS  C:\Users\rbhar\AppData\Local\Temp\ccaqTdDy.s 			page 2


  31:Generated_Source\PSoC5/UART_LOG.c ****     volatile uint8 UART_LOG_txBufferRead = 0u;
  32:Generated_Source\PSoC5/UART_LOG.c ****     uint8 UART_LOG_txBufferWrite = 0u;
  33:Generated_Source\PSoC5/UART_LOG.c **** #endif /* (UART_LOG_TX_INTERRUPT_ENABLED && UART_LOG_TX_ENABLED) */
  34:Generated_Source\PSoC5/UART_LOG.c **** 
  35:Generated_Source\PSoC5/UART_LOG.c **** #if (UART_LOG_RX_INTERRUPT_ENABLED && (UART_LOG_RX_ENABLED || UART_LOG_HD_ENABLED))
  36:Generated_Source\PSoC5/UART_LOG.c ****     uint8 UART_LOG_errorStatus = 0u;
  37:Generated_Source\PSoC5/UART_LOG.c ****     volatile uint8 UART_LOG_rxBuffer[UART_LOG_RX_BUFFER_SIZE];
  38:Generated_Source\PSoC5/UART_LOG.c ****     volatile uint8 UART_LOG_rxBufferRead  = 0u;
  39:Generated_Source\PSoC5/UART_LOG.c ****     volatile uint8 UART_LOG_rxBufferWrite = 0u;
  40:Generated_Source\PSoC5/UART_LOG.c ****     volatile uint8 UART_LOG_rxBufferLoopDetect = 0u;
  41:Generated_Source\PSoC5/UART_LOG.c ****     volatile uint8 UART_LOG_rxBufferOverflow   = 0u;
  42:Generated_Source\PSoC5/UART_LOG.c ****     #if (UART_LOG_RXHW_ADDRESS_ENABLED)
  43:Generated_Source\PSoC5/UART_LOG.c ****         volatile uint8 UART_LOG_rxAddressMode = UART_LOG_RX_ADDRESS_MODE;
  44:Generated_Source\PSoC5/UART_LOG.c ****         volatile uint8 UART_LOG_rxAddressDetected = 0u;
  45:Generated_Source\PSoC5/UART_LOG.c ****     #endif /* (UART_LOG_RXHW_ADDRESS_ENABLED) */
  46:Generated_Source\PSoC5/UART_LOG.c **** #endif /* (UART_LOG_RX_INTERRUPT_ENABLED && (UART_LOG_RX_ENABLED || UART_LOG_HD_ENABLED)) */
  47:Generated_Source\PSoC5/UART_LOG.c **** 
  48:Generated_Source\PSoC5/UART_LOG.c **** 
  49:Generated_Source\PSoC5/UART_LOG.c **** /*******************************************************************************
  50:Generated_Source\PSoC5/UART_LOG.c **** * Function Name: UART_LOG_Start
  51:Generated_Source\PSoC5/UART_LOG.c **** ********************************************************************************
  52:Generated_Source\PSoC5/UART_LOG.c **** *
  53:Generated_Source\PSoC5/UART_LOG.c **** * Summary:
  54:Generated_Source\PSoC5/UART_LOG.c **** *  This is the preferred method to begin component operation.
  55:Generated_Source\PSoC5/UART_LOG.c **** *  UART_LOG_Start() sets the initVar variable, calls the
  56:Generated_Source\PSoC5/UART_LOG.c **** *  UART_LOG_Init() function, and then calls the
  57:Generated_Source\PSoC5/UART_LOG.c **** *  UART_LOG_Enable() function.
  58:Generated_Source\PSoC5/UART_LOG.c **** *
  59:Generated_Source\PSoC5/UART_LOG.c **** * Parameters:
  60:Generated_Source\PSoC5/UART_LOG.c **** *  None.
  61:Generated_Source\PSoC5/UART_LOG.c **** *
  62:Generated_Source\PSoC5/UART_LOG.c **** * Return:
  63:Generated_Source\PSoC5/UART_LOG.c **** *  None.
  64:Generated_Source\PSoC5/UART_LOG.c **** *
  65:Generated_Source\PSoC5/UART_LOG.c **** * Global variables:
  66:Generated_Source\PSoC5/UART_LOG.c **** *  The UART_LOG_intiVar variable is used to indicate initial
  67:Generated_Source\PSoC5/UART_LOG.c **** *  configuration of this component. The variable is initialized to zero (0u)
  68:Generated_Source\PSoC5/UART_LOG.c **** *  and set to one (1u) the first time UART_LOG_Start() is called. This
  69:Generated_Source\PSoC5/UART_LOG.c **** *  allows for component initialization without re-initialization in all
  70:Generated_Source\PSoC5/UART_LOG.c **** *  subsequent calls to the UART_LOG_Start() routine.
  71:Generated_Source\PSoC5/UART_LOG.c **** *
  72:Generated_Source\PSoC5/UART_LOG.c **** * Reentrant:
  73:Generated_Source\PSoC5/UART_LOG.c **** *  No.
  74:Generated_Source\PSoC5/UART_LOG.c **** *
  75:Generated_Source\PSoC5/UART_LOG.c **** *******************************************************************************/
  76:Generated_Source\PSoC5/UART_LOG.c **** void UART_LOG_Start(void) 
  77:Generated_Source\PSoC5/UART_LOG.c **** {
  78:Generated_Source\PSoC5/UART_LOG.c ****     /* If not initialized then initialize all required hardware and software */
  79:Generated_Source\PSoC5/UART_LOG.c ****     if(UART_LOG_initVar == 0u)
  80:Generated_Source\PSoC5/UART_LOG.c ****     {
  81:Generated_Source\PSoC5/UART_LOG.c ****         UART_LOG_Init();
  82:Generated_Source\PSoC5/UART_LOG.c ****         UART_LOG_initVar = 1u;
  83:Generated_Source\PSoC5/UART_LOG.c ****     }
  84:Generated_Source\PSoC5/UART_LOG.c **** 
  85:Generated_Source\PSoC5/UART_LOG.c ****     UART_LOG_Enable();
  86:Generated_Source\PSoC5/UART_LOG.c **** }
  87:Generated_Source\PSoC5/UART_LOG.c **** 
ARM GAS  C:\Users\rbhar\AppData\Local\Temp\ccaqTdDy.s 			page 3


  88:Generated_Source\PSoC5/UART_LOG.c **** 
  89:Generated_Source\PSoC5/UART_LOG.c **** /*******************************************************************************
  90:Generated_Source\PSoC5/UART_LOG.c **** * Function Name: UART_LOG_Init
  91:Generated_Source\PSoC5/UART_LOG.c **** ********************************************************************************
  92:Generated_Source\PSoC5/UART_LOG.c **** *
  93:Generated_Source\PSoC5/UART_LOG.c **** * Summary:
  94:Generated_Source\PSoC5/UART_LOG.c **** *  Initializes or restores the component according to the customizer Configure
  95:Generated_Source\PSoC5/UART_LOG.c **** *  dialog settings. It is not necessary to call UART_LOG_Init() because
  96:Generated_Source\PSoC5/UART_LOG.c **** *  the UART_LOG_Start() API calls this function and is the preferred
  97:Generated_Source\PSoC5/UART_LOG.c **** *  method to begin component operation.
  98:Generated_Source\PSoC5/UART_LOG.c **** *
  99:Generated_Source\PSoC5/UART_LOG.c **** * Parameters:
 100:Generated_Source\PSoC5/UART_LOG.c **** *  None.
 101:Generated_Source\PSoC5/UART_LOG.c **** *
 102:Generated_Source\PSoC5/UART_LOG.c **** * Return:
 103:Generated_Source\PSoC5/UART_LOG.c **** *  None.
 104:Generated_Source\PSoC5/UART_LOG.c **** *
 105:Generated_Source\PSoC5/UART_LOG.c **** *******************************************************************************/
 106:Generated_Source\PSoC5/UART_LOG.c **** void UART_LOG_Init(void) 
 107:Generated_Source\PSoC5/UART_LOG.c **** {
  28              		.loc 1 107 0
  29              		.cfi_startproc
  30              		@ args = 0, pretend = 0, frame = 0
  31              		@ frame_needed = 0, uses_anonymous_args = 0
  32 0000 08B5     		push	{r3, lr}
  33              		.cfi_def_cfa_offset 8
  34              		.cfi_offset 3, -8
  35              		.cfi_offset 14, -4
 108:Generated_Source\PSoC5/UART_LOG.c ****     #if(UART_LOG_RX_ENABLED || UART_LOG_HD_ENABLED)
 109:Generated_Source\PSoC5/UART_LOG.c **** 
 110:Generated_Source\PSoC5/UART_LOG.c ****         #if (UART_LOG_RX_INTERRUPT_ENABLED)
 111:Generated_Source\PSoC5/UART_LOG.c ****             /* Set RX interrupt vector and priority */
 112:Generated_Source\PSoC5/UART_LOG.c ****             (void) CyIntSetVector(UART_LOG_RX_VECT_NUM, &UART_LOG_RXISR);
 113:Generated_Source\PSoC5/UART_LOG.c ****             CyIntSetPriority(UART_LOG_RX_VECT_NUM, UART_LOG_RX_PRIOR_NUM);
 114:Generated_Source\PSoC5/UART_LOG.c ****             UART_LOG_errorStatus = 0u;
 115:Generated_Source\PSoC5/UART_LOG.c ****         #endif /* (UART_LOG_RX_INTERRUPT_ENABLED) */
 116:Generated_Source\PSoC5/UART_LOG.c **** 
 117:Generated_Source\PSoC5/UART_LOG.c ****         #if (UART_LOG_RXHW_ADDRESS_ENABLED)
 118:Generated_Source\PSoC5/UART_LOG.c ****             UART_LOG_SetRxAddressMode(UART_LOG_RX_ADDRESS_MODE);
 119:Generated_Source\PSoC5/UART_LOG.c ****             UART_LOG_SetRxAddress1(UART_LOG_RX_HW_ADDRESS1);
 120:Generated_Source\PSoC5/UART_LOG.c ****             UART_LOG_SetRxAddress2(UART_LOG_RX_HW_ADDRESS2);
 121:Generated_Source\PSoC5/UART_LOG.c ****         #endif /* End UART_LOG_RXHW_ADDRESS_ENABLED */
 122:Generated_Source\PSoC5/UART_LOG.c **** 
 123:Generated_Source\PSoC5/UART_LOG.c ****         /* Init Count7 period */
 124:Generated_Source\PSoC5/UART_LOG.c ****         UART_LOG_RXBITCTR_PERIOD_REG = UART_LOG_RXBITCTR_INIT;
  36              		.loc 1 124 0
  37 0002 7222     		movs	r2, #114
  38 0004 0B4B     		ldr	r3, .L3
  39 0006 1A70     		strb	r2, [r3]
 125:Generated_Source\PSoC5/UART_LOG.c ****         /* Configure the Initial RX interrupt mask */
 126:Generated_Source\PSoC5/UART_LOG.c ****         UART_LOG_RXSTATUS_MASK_REG  = UART_LOG_INIT_RX_INTERRUPTS_MASK;
  40              		.loc 1 126 0
  41 0008 2022     		movs	r2, #32
  42 000a 043B     		subs	r3, r3, #4
  43 000c 1A70     		strb	r2, [r3]
 127:Generated_Source\PSoC5/UART_LOG.c ****     #endif /* End UART_LOG_RX_ENABLED || UART_LOG_HD_ENABLED*/
 128:Generated_Source\PSoC5/UART_LOG.c **** 
ARM GAS  C:\Users\rbhar\AppData\Local\Temp\ccaqTdDy.s 			page 4


 129:Generated_Source\PSoC5/UART_LOG.c ****     #if(UART_LOG_TX_ENABLED)
 130:Generated_Source\PSoC5/UART_LOG.c ****         #if (UART_LOG_TX_INTERRUPT_ENABLED)
 131:Generated_Source\PSoC5/UART_LOG.c ****             /* Set TX interrupt vector and priority */
 132:Generated_Source\PSoC5/UART_LOG.c ****             (void) CyIntSetVector(UART_LOG_TX_VECT_NUM, &UART_LOG_TXISR);
  44              		.loc 1 132 0
  45 000e 0A49     		ldr	r1, .L3+4
  46 0010 0020     		movs	r0, #0
  47 0012 FFF7FEFF 		bl	CyIntSetVector
  48              	.LVL0:
 133:Generated_Source\PSoC5/UART_LOG.c ****             CyIntSetPriority(UART_LOG_TX_VECT_NUM, UART_LOG_TX_PRIOR_NUM);
  49              		.loc 1 133 0
  50 0016 0721     		movs	r1, #7
  51 0018 0020     		movs	r0, #0
  52 001a FFF7FEFF 		bl	CyIntSetPriority
  53              	.LVL1:
 134:Generated_Source\PSoC5/UART_LOG.c ****         #endif /* (UART_LOG_TX_INTERRUPT_ENABLED) */
 135:Generated_Source\PSoC5/UART_LOG.c **** 
 136:Generated_Source\PSoC5/UART_LOG.c ****         /* Write Counter Value for TX Bit Clk Generator*/
 137:Generated_Source\PSoC5/UART_LOG.c ****         #if (UART_LOG_TXCLKGEN_DP)
 138:Generated_Source\PSoC5/UART_LOG.c ****             UART_LOG_TXBITCLKGEN_CTR_REG = UART_LOG_BIT_CENTER;
  54              		.loc 1 138 0
  55 001e 0622     		movs	r2, #6
  56 0020 064B     		ldr	r3, .L3+8
  57 0022 1A70     		strb	r2, [r3]
 139:Generated_Source\PSoC5/UART_LOG.c ****             UART_LOG_TXBITCLKTX_COMPLETE_REG = ((UART_LOG_NUMBER_OF_DATA_BITS +
  58              		.loc 1 139 0
  59 0024 4722     		movs	r2, #71
  60 0026 1033     		adds	r3, r3, #16
  61 0028 1A70     		strb	r2, [r3]
 140:Generated_Source\PSoC5/UART_LOG.c ****                         UART_LOG_NUMBER_OF_START_BIT) * UART_LOG_OVER_SAMPLE_COUNT) - 1u;
 141:Generated_Source\PSoC5/UART_LOG.c ****         #else
 142:Generated_Source\PSoC5/UART_LOG.c ****             UART_LOG_TXBITCTR_PERIOD_REG = ((UART_LOG_NUMBER_OF_DATA_BITS +
 143:Generated_Source\PSoC5/UART_LOG.c ****                         UART_LOG_NUMBER_OF_START_BIT) * UART_LOG_OVER_SAMPLE_8) - 1u;
 144:Generated_Source\PSoC5/UART_LOG.c ****         #endif /* End UART_LOG_TXCLKGEN_DP */
 145:Generated_Source\PSoC5/UART_LOG.c **** 
 146:Generated_Source\PSoC5/UART_LOG.c ****         /* Configure the Initial TX interrupt mask */
 147:Generated_Source\PSoC5/UART_LOG.c ****         #if (UART_LOG_TX_INTERRUPT_ENABLED)
 148:Generated_Source\PSoC5/UART_LOG.c ****             UART_LOG_TXSTATUS_MASK_REG = UART_LOG_TX_STS_FIFO_EMPTY;
  62              		.loc 1 148 0
  63 002a 0222     		movs	r2, #2
  64 002c 5033     		adds	r3, r3, #80
  65 002e 1A70     		strb	r2, [r3]
  66 0030 08BD     		pop	{r3, pc}
  67              	.L4:
  68 0032 00BF     		.align	2
  69              	.L3:
  70 0034 85640040 		.word	1073767557
  71 0038 00000000 		.word	UART_LOG_TXISR
  72 003c 23640040 		.word	1073767459
  73              		.cfi_endproc
  74              	.LFE1:
  75              		.size	UART_LOG_Init, .-UART_LOG_Init
  76              		.section	.text.UART_LOG_Enable,"ax",%progbits
  77              		.align	2
  78              		.global	UART_LOG_Enable
  79              		.thumb
  80              		.thumb_func
ARM GAS  C:\Users\rbhar\AppData\Local\Temp\ccaqTdDy.s 			page 5


  81              		.type	UART_LOG_Enable, %function
  82              	UART_LOG_Enable:
  83              	.LFB2:
 149:Generated_Source\PSoC5/UART_LOG.c ****         #else
 150:Generated_Source\PSoC5/UART_LOG.c ****             UART_LOG_TXSTATUS_MASK_REG = UART_LOG_INIT_TX_INTERRUPTS_MASK;
 151:Generated_Source\PSoC5/UART_LOG.c ****         #endif /*End UART_LOG_TX_INTERRUPT_ENABLED*/
 152:Generated_Source\PSoC5/UART_LOG.c **** 
 153:Generated_Source\PSoC5/UART_LOG.c ****     #endif /* End UART_LOG_TX_ENABLED */
 154:Generated_Source\PSoC5/UART_LOG.c **** 
 155:Generated_Source\PSoC5/UART_LOG.c ****     #if(UART_LOG_PARITY_TYPE_SW)  /* Write Parity to Control Register */
 156:Generated_Source\PSoC5/UART_LOG.c ****         UART_LOG_WriteControlRegister( \
 157:Generated_Source\PSoC5/UART_LOG.c ****             (UART_LOG_ReadControlRegister() & (uint8)~UART_LOG_CTRL_PARITY_TYPE_MASK) | \
 158:Generated_Source\PSoC5/UART_LOG.c ****             (uint8)(UART_LOG_PARITY_TYPE << UART_LOG_CTRL_PARITY_TYPE0_SHIFT) );
 159:Generated_Source\PSoC5/UART_LOG.c ****     #endif /* End UART_LOG_PARITY_TYPE_SW */
 160:Generated_Source\PSoC5/UART_LOG.c **** }
 161:Generated_Source\PSoC5/UART_LOG.c **** 
 162:Generated_Source\PSoC5/UART_LOG.c **** 
 163:Generated_Source\PSoC5/UART_LOG.c **** /*******************************************************************************
 164:Generated_Source\PSoC5/UART_LOG.c **** * Function Name: UART_LOG_Enable
 165:Generated_Source\PSoC5/UART_LOG.c **** ********************************************************************************
 166:Generated_Source\PSoC5/UART_LOG.c **** *
 167:Generated_Source\PSoC5/UART_LOG.c **** * Summary:
 168:Generated_Source\PSoC5/UART_LOG.c **** *  Activates the hardware and begins component operation. It is not necessary
 169:Generated_Source\PSoC5/UART_LOG.c **** *  to call UART_LOG_Enable() because the UART_LOG_Start() API
 170:Generated_Source\PSoC5/UART_LOG.c **** *  calls this function, which is the preferred method to begin component
 171:Generated_Source\PSoC5/UART_LOG.c **** *  operation.
 172:Generated_Source\PSoC5/UART_LOG.c **** 
 173:Generated_Source\PSoC5/UART_LOG.c **** * Parameters:
 174:Generated_Source\PSoC5/UART_LOG.c **** *  None.
 175:Generated_Source\PSoC5/UART_LOG.c **** *
 176:Generated_Source\PSoC5/UART_LOG.c **** * Return:
 177:Generated_Source\PSoC5/UART_LOG.c **** *  None.
 178:Generated_Source\PSoC5/UART_LOG.c **** *
 179:Generated_Source\PSoC5/UART_LOG.c **** * Global Variables:
 180:Generated_Source\PSoC5/UART_LOG.c **** *  UART_LOG_rxAddressDetected - set to initial state (0).
 181:Generated_Source\PSoC5/UART_LOG.c **** *
 182:Generated_Source\PSoC5/UART_LOG.c **** *******************************************************************************/
 183:Generated_Source\PSoC5/UART_LOG.c **** void UART_LOG_Enable(void) 
 184:Generated_Source\PSoC5/UART_LOG.c **** {
  84              		.loc 1 184 0
  85              		.cfi_startproc
  86              		@ args = 0, pretend = 0, frame = 0
  87              		@ frame_needed = 0, uses_anonymous_args = 0
  88 0000 10B5     		push	{r4, lr}
  89              		.cfi_def_cfa_offset 8
  90              		.cfi_offset 4, -8
  91              		.cfi_offset 14, -4
 185:Generated_Source\PSoC5/UART_LOG.c ****     uint8 enableInterrupts;
 186:Generated_Source\PSoC5/UART_LOG.c ****     enableInterrupts = CyEnterCriticalSection();
  92              		.loc 1 186 0
  93 0002 FFF7FEFF 		bl	CyEnterCriticalSection
  94              	.LVL2:
  95 0006 0446     		mov	r4, r0
  96              	.LVL3:
 187:Generated_Source\PSoC5/UART_LOG.c **** 
 188:Generated_Source\PSoC5/UART_LOG.c ****     #if (UART_LOG_RX_ENABLED || UART_LOG_HD_ENABLED)
 189:Generated_Source\PSoC5/UART_LOG.c ****         /* RX Counter (Count7) Enable */
ARM GAS  C:\Users\rbhar\AppData\Local\Temp\ccaqTdDy.s 			page 6


 190:Generated_Source\PSoC5/UART_LOG.c ****         UART_LOG_RXBITCTR_CONTROL_REG |= UART_LOG_CNTR_ENABLE;
  97              		.loc 1 190 0
  98 0008 0D4A     		ldr	r2, .L7
  99 000a 1378     		ldrb	r3, [r2]	@ zero_extendqisi2
 100 000c 43F02003 		orr	r3, r3, #32
 101 0010 1370     		strb	r3, [r2]
 191:Generated_Source\PSoC5/UART_LOG.c **** 
 192:Generated_Source\PSoC5/UART_LOG.c ****         /* Enable the RX Interrupt */
 193:Generated_Source\PSoC5/UART_LOG.c ****         UART_LOG_RXSTATUS_ACTL_REG  |= UART_LOG_INT_ENABLE;
 102              		.loc 1 193 0
 103 0012 043A     		subs	r2, r2, #4
 104 0014 1378     		ldrb	r3, [r2]	@ zero_extendqisi2
 105 0016 43F01003 		orr	r3, r3, #16
 106 001a 1370     		strb	r3, [r2]
 194:Generated_Source\PSoC5/UART_LOG.c **** 
 195:Generated_Source\PSoC5/UART_LOG.c ****         #if (UART_LOG_RX_INTERRUPT_ENABLED)
 196:Generated_Source\PSoC5/UART_LOG.c ****             UART_LOG_EnableRxInt();
 197:Generated_Source\PSoC5/UART_LOG.c **** 
 198:Generated_Source\PSoC5/UART_LOG.c ****             #if (UART_LOG_RXHW_ADDRESS_ENABLED)
 199:Generated_Source\PSoC5/UART_LOG.c ****                 UART_LOG_rxAddressDetected = 0u;
 200:Generated_Source\PSoC5/UART_LOG.c ****             #endif /* (UART_LOG_RXHW_ADDRESS_ENABLED) */
 201:Generated_Source\PSoC5/UART_LOG.c ****         #endif /* (UART_LOG_RX_INTERRUPT_ENABLED) */
 202:Generated_Source\PSoC5/UART_LOG.c ****     #endif /* (UART_LOG_RX_ENABLED || UART_LOG_HD_ENABLED) */
 203:Generated_Source\PSoC5/UART_LOG.c **** 
 204:Generated_Source\PSoC5/UART_LOG.c ****     #if(UART_LOG_TX_ENABLED)
 205:Generated_Source\PSoC5/UART_LOG.c ****         /* TX Counter (DP/Count7) Enable */
 206:Generated_Source\PSoC5/UART_LOG.c ****         #if(!UART_LOG_TXCLKGEN_DP)
 207:Generated_Source\PSoC5/UART_LOG.c ****             UART_LOG_TXBITCTR_CONTROL_REG |= UART_LOG_CNTR_ENABLE;
 208:Generated_Source\PSoC5/UART_LOG.c ****         #endif /* End UART_LOG_TXCLKGEN_DP */
 209:Generated_Source\PSoC5/UART_LOG.c **** 
 210:Generated_Source\PSoC5/UART_LOG.c ****         /* Enable the TX Interrupt */
 211:Generated_Source\PSoC5/UART_LOG.c ****         UART_LOG_TXSTATUS_ACTL_REG |= UART_LOG_INT_ENABLE;
 107              		.loc 1 211 0
 108 001c 0232     		adds	r2, r2, #2
 109 001e 1378     		ldrb	r3, [r2]	@ zero_extendqisi2
 110 0020 43F01003 		orr	r3, r3, #16
 111 0024 1370     		strb	r3, [r2]
 212:Generated_Source\PSoC5/UART_LOG.c ****         #if (UART_LOG_TX_INTERRUPT_ENABLED)
 213:Generated_Source\PSoC5/UART_LOG.c ****             UART_LOG_ClearPendingTxInt(); /* Clear history of TX_NOT_EMPTY */
 112              		.loc 1 213 0
 113 0026 0123     		movs	r3, #1
 114 0028 064A     		ldr	r2, .L7+4
 115 002a 1360     		str	r3, [r2]
 214:Generated_Source\PSoC5/UART_LOG.c ****             UART_LOG_EnableTxInt();
 116              		.loc 1 214 0
 117 002c A2F5C072 		sub	r2, r2, #384
 118 0030 1360     		str	r3, [r2]
 215:Generated_Source\PSoC5/UART_LOG.c ****         #endif /* (UART_LOG_TX_INTERRUPT_ENABLED) */
 216:Generated_Source\PSoC5/UART_LOG.c ****      #endif /* (UART_LOG_TX_INTERRUPT_ENABLED) */
 217:Generated_Source\PSoC5/UART_LOG.c **** 
 218:Generated_Source\PSoC5/UART_LOG.c ****     #if (UART_LOG_INTERNAL_CLOCK_USED)
 219:Generated_Source\PSoC5/UART_LOG.c ****         UART_LOG_IntClock_Start();  /* Enable the clock */
 119              		.loc 1 219 0
 120 0032 FFF7FEFF 		bl	UART_LOG_IntClock_Start
 121              	.LVL4:
 220:Generated_Source\PSoC5/UART_LOG.c ****     #endif /* (UART_LOG_INTERNAL_CLOCK_USED) */
 221:Generated_Source\PSoC5/UART_LOG.c **** 
ARM GAS  C:\Users\rbhar\AppData\Local\Temp\ccaqTdDy.s 			page 7


 222:Generated_Source\PSoC5/UART_LOG.c ****     CyExitCriticalSection(enableInterrupts);
 122              		.loc 1 222 0
 123 0036 2046     		mov	r0, r4
 124 0038 FFF7FEFF 		bl	CyExitCriticalSection
 125              	.LVL5:
 126 003c 10BD     		pop	{r4, pc}
 127              	.LVL6:
 128              	.L8:
 129 003e 00BF     		.align	2
 130              	.L7:
 131 0040 95640040 		.word	1073767573
 132 0044 80E200E0 		.word	-536812928
 133              		.cfi_endproc
 134              	.LFE2:
 135              		.size	UART_LOG_Enable, .-UART_LOG_Enable
 136              		.section	.text.UART_LOG_Start,"ax",%progbits
 137              		.align	2
 138              		.global	UART_LOG_Start
 139              		.thumb
 140              		.thumb_func
 141              		.type	UART_LOG_Start, %function
 142              	UART_LOG_Start:
 143              	.LFB0:
  77:Generated_Source\PSoC5/UART_LOG.c ****     /* If not initialized then initialize all required hardware and software */
 144              		.loc 1 77 0
 145              		.cfi_startproc
 146              		@ args = 0, pretend = 0, frame = 0
 147              		@ frame_needed = 0, uses_anonymous_args = 0
 148 0000 08B5     		push	{r3, lr}
 149              		.cfi_def_cfa_offset 8
 150              		.cfi_offset 3, -8
 151              		.cfi_offset 14, -4
  79:Generated_Source\PSoC5/UART_LOG.c ****     {
 152              		.loc 1 79 0
 153 0002 054B     		ldr	r3, .L12
 154 0004 1B78     		ldrb	r3, [r3]	@ zero_extendqisi2
 155 0006 23B9     		cbnz	r3, .L10
  81:Generated_Source\PSoC5/UART_LOG.c ****         UART_LOG_initVar = 1u;
 156              		.loc 1 81 0
 157 0008 FFF7FEFF 		bl	UART_LOG_Init
 158              	.LVL7:
  82:Generated_Source\PSoC5/UART_LOG.c ****     }
 159              		.loc 1 82 0
 160 000c 0122     		movs	r2, #1
 161 000e 024B     		ldr	r3, .L12
 162 0010 1A70     		strb	r2, [r3]
 163              	.L10:
  85:Generated_Source\PSoC5/UART_LOG.c **** }
 164              		.loc 1 85 0
 165 0012 FFF7FEFF 		bl	UART_LOG_Enable
 166              	.LVL8:
 167 0016 08BD     		pop	{r3, pc}
 168              	.L13:
 169              		.align	2
 170              	.L12:
 171 0018 00000000 		.word	.LANCHOR0
 172              		.cfi_endproc
ARM GAS  C:\Users\rbhar\AppData\Local\Temp\ccaqTdDy.s 			page 8


 173              	.LFE0:
 174              		.size	UART_LOG_Start, .-UART_LOG_Start
 175              		.section	.text.UART_LOG_Stop,"ax",%progbits
 176              		.align	2
 177              		.global	UART_LOG_Stop
 178              		.thumb
 179              		.thumb_func
 180              		.type	UART_LOG_Stop, %function
 181              	UART_LOG_Stop:
 182              	.LFB3:
 223:Generated_Source\PSoC5/UART_LOG.c **** }
 224:Generated_Source\PSoC5/UART_LOG.c **** 
 225:Generated_Source\PSoC5/UART_LOG.c **** 
 226:Generated_Source\PSoC5/UART_LOG.c **** /*******************************************************************************
 227:Generated_Source\PSoC5/UART_LOG.c **** * Function Name: UART_LOG_Stop
 228:Generated_Source\PSoC5/UART_LOG.c **** ********************************************************************************
 229:Generated_Source\PSoC5/UART_LOG.c **** *
 230:Generated_Source\PSoC5/UART_LOG.c **** * Summary:
 231:Generated_Source\PSoC5/UART_LOG.c **** *  Disables the UART operation.
 232:Generated_Source\PSoC5/UART_LOG.c **** *
 233:Generated_Source\PSoC5/UART_LOG.c **** * Parameters:
 234:Generated_Source\PSoC5/UART_LOG.c **** *  None.
 235:Generated_Source\PSoC5/UART_LOG.c **** *
 236:Generated_Source\PSoC5/UART_LOG.c **** * Return:
 237:Generated_Source\PSoC5/UART_LOG.c **** *  None.
 238:Generated_Source\PSoC5/UART_LOG.c **** *
 239:Generated_Source\PSoC5/UART_LOG.c **** *******************************************************************************/
 240:Generated_Source\PSoC5/UART_LOG.c **** void UART_LOG_Stop(void) 
 241:Generated_Source\PSoC5/UART_LOG.c **** {
 183              		.loc 1 241 0
 184              		.cfi_startproc
 185              		@ args = 0, pretend = 0, frame = 0
 186              		@ frame_needed = 0, uses_anonymous_args = 0
 187 0000 10B5     		push	{r4, lr}
 188              		.cfi_def_cfa_offset 8
 189              		.cfi_offset 4, -8
 190              		.cfi_offset 14, -4
 242:Generated_Source\PSoC5/UART_LOG.c ****     uint8 enableInterrupts;
 243:Generated_Source\PSoC5/UART_LOG.c ****     enableInterrupts = CyEnterCriticalSection();
 191              		.loc 1 243 0
 192 0002 FFF7FEFF 		bl	CyEnterCriticalSection
 193              	.LVL9:
 194 0006 0446     		mov	r4, r0
 195              	.LVL10:
 244:Generated_Source\PSoC5/UART_LOG.c **** 
 245:Generated_Source\PSoC5/UART_LOG.c ****     /* Write Bit Counter Disable */
 246:Generated_Source\PSoC5/UART_LOG.c ****     #if (UART_LOG_RX_ENABLED || UART_LOG_HD_ENABLED)
 247:Generated_Source\PSoC5/UART_LOG.c ****         UART_LOG_RXBITCTR_CONTROL_REG &= (uint8) ~UART_LOG_CNTR_ENABLE;
 196              		.loc 1 247 0
 197 0008 0B4A     		ldr	r2, .L16
 198 000a 1378     		ldrb	r3, [r2]	@ zero_extendqisi2
 199 000c 03F0DF03 		and	r3, r3, #223
 200 0010 1370     		strb	r3, [r2]
 248:Generated_Source\PSoC5/UART_LOG.c ****     #endif /* (UART_LOG_RX_ENABLED || UART_LOG_HD_ENABLED) */
 249:Generated_Source\PSoC5/UART_LOG.c **** 
 250:Generated_Source\PSoC5/UART_LOG.c ****     #if (UART_LOG_TX_ENABLED)
 251:Generated_Source\PSoC5/UART_LOG.c ****         #if(!UART_LOG_TXCLKGEN_DP)
ARM GAS  C:\Users\rbhar\AppData\Local\Temp\ccaqTdDy.s 			page 9


 252:Generated_Source\PSoC5/UART_LOG.c ****             UART_LOG_TXBITCTR_CONTROL_REG &= (uint8) ~UART_LOG_CNTR_ENABLE;
 253:Generated_Source\PSoC5/UART_LOG.c ****         #endif /* (!UART_LOG_TXCLKGEN_DP) */
 254:Generated_Source\PSoC5/UART_LOG.c ****     #endif /* (UART_LOG_TX_ENABLED) */
 255:Generated_Source\PSoC5/UART_LOG.c **** 
 256:Generated_Source\PSoC5/UART_LOG.c ****     #if (UART_LOG_INTERNAL_CLOCK_USED)
 257:Generated_Source\PSoC5/UART_LOG.c ****         UART_LOG_IntClock_Stop();   /* Disable the clock */
 201              		.loc 1 257 0
 202 0012 FFF7FEFF 		bl	UART_LOG_IntClock_Stop
 203              	.LVL11:
 258:Generated_Source\PSoC5/UART_LOG.c ****     #endif /* (UART_LOG_INTERNAL_CLOCK_USED) */
 259:Generated_Source\PSoC5/UART_LOG.c **** 
 260:Generated_Source\PSoC5/UART_LOG.c ****     /* Disable internal interrupt component */
 261:Generated_Source\PSoC5/UART_LOG.c ****     #if (UART_LOG_RX_ENABLED || UART_LOG_HD_ENABLED)
 262:Generated_Source\PSoC5/UART_LOG.c ****         UART_LOG_RXSTATUS_ACTL_REG  &= (uint8) ~UART_LOG_INT_ENABLE;
 204              		.loc 1 262 0
 205 0016 094A     		ldr	r2, .L16+4
 206 0018 1378     		ldrb	r3, [r2]	@ zero_extendqisi2
 207 001a 03F0EF03 		and	r3, r3, #239
 208 001e 1370     		strb	r3, [r2]
 263:Generated_Source\PSoC5/UART_LOG.c **** 
 264:Generated_Source\PSoC5/UART_LOG.c ****         #if (UART_LOG_RX_INTERRUPT_ENABLED)
 265:Generated_Source\PSoC5/UART_LOG.c ****             UART_LOG_DisableRxInt();
 266:Generated_Source\PSoC5/UART_LOG.c ****         #endif /* (UART_LOG_RX_INTERRUPT_ENABLED) */
 267:Generated_Source\PSoC5/UART_LOG.c ****     #endif /* (UART_LOG_RX_ENABLED || UART_LOG_HD_ENABLED) */
 268:Generated_Source\PSoC5/UART_LOG.c **** 
 269:Generated_Source\PSoC5/UART_LOG.c ****     #if (UART_LOG_TX_ENABLED)
 270:Generated_Source\PSoC5/UART_LOG.c ****         UART_LOG_TXSTATUS_ACTL_REG &= (uint8) ~UART_LOG_INT_ENABLE;
 209              		.loc 1 270 0
 210 0020 0232     		adds	r2, r2, #2
 211 0022 1378     		ldrb	r3, [r2]	@ zero_extendqisi2
 212 0024 03F0EF03 		and	r3, r3, #239
 213 0028 1370     		strb	r3, [r2]
 271:Generated_Source\PSoC5/UART_LOG.c **** 
 272:Generated_Source\PSoC5/UART_LOG.c ****         #if (UART_LOG_TX_INTERRUPT_ENABLED)
 273:Generated_Source\PSoC5/UART_LOG.c ****             UART_LOG_DisableTxInt();
 214              		.loc 1 273 0
 215 002a 0122     		movs	r2, #1
 216 002c 044B     		ldr	r3, .L16+8
 217 002e 1A60     		str	r2, [r3]
 274:Generated_Source\PSoC5/UART_LOG.c ****         #endif /* (UART_LOG_TX_INTERRUPT_ENABLED) */
 275:Generated_Source\PSoC5/UART_LOG.c ****     #endif /* (UART_LOG_TX_ENABLED) */
 276:Generated_Source\PSoC5/UART_LOG.c **** 
 277:Generated_Source\PSoC5/UART_LOG.c ****     CyExitCriticalSection(enableInterrupts);
 218              		.loc 1 277 0
 219 0030 2046     		mov	r0, r4
 220 0032 FFF7FEFF 		bl	CyExitCriticalSection
 221              	.LVL12:
 222 0036 10BD     		pop	{r4, pc}
 223              	.LVL13:
 224              	.L17:
 225              		.align	2
 226              	.L16:
 227 0038 95640040 		.word	1073767573
 228 003c 91640040 		.word	1073767569
 229 0040 80E100E0 		.word	-536813184
 230              		.cfi_endproc
 231              	.LFE3:
ARM GAS  C:\Users\rbhar\AppData\Local\Temp\ccaqTdDy.s 			page 10


 232              		.size	UART_LOG_Stop, .-UART_LOG_Stop
 233              		.section	.text.UART_LOG_ReadControlRegister,"ax",%progbits
 234              		.align	2
 235              		.global	UART_LOG_ReadControlRegister
 236              		.thumb
 237              		.thumb_func
 238              		.type	UART_LOG_ReadControlRegister, %function
 239              	UART_LOG_ReadControlRegister:
 240              	.LFB4:
 278:Generated_Source\PSoC5/UART_LOG.c **** }
 279:Generated_Source\PSoC5/UART_LOG.c **** 
 280:Generated_Source\PSoC5/UART_LOG.c **** 
 281:Generated_Source\PSoC5/UART_LOG.c **** /*******************************************************************************
 282:Generated_Source\PSoC5/UART_LOG.c **** * Function Name: UART_LOG_ReadControlRegister
 283:Generated_Source\PSoC5/UART_LOG.c **** ********************************************************************************
 284:Generated_Source\PSoC5/UART_LOG.c **** *
 285:Generated_Source\PSoC5/UART_LOG.c **** * Summary:
 286:Generated_Source\PSoC5/UART_LOG.c **** *  Returns the current value of the control register.
 287:Generated_Source\PSoC5/UART_LOG.c **** *
 288:Generated_Source\PSoC5/UART_LOG.c **** * Parameters:
 289:Generated_Source\PSoC5/UART_LOG.c **** *  None.
 290:Generated_Source\PSoC5/UART_LOG.c **** *
 291:Generated_Source\PSoC5/UART_LOG.c **** * Return:
 292:Generated_Source\PSoC5/UART_LOG.c **** *  Contents of the control register.
 293:Generated_Source\PSoC5/UART_LOG.c **** *
 294:Generated_Source\PSoC5/UART_LOG.c **** *******************************************************************************/
 295:Generated_Source\PSoC5/UART_LOG.c **** uint8 UART_LOG_ReadControlRegister(void) 
 296:Generated_Source\PSoC5/UART_LOG.c **** {
 241              		.loc 1 296 0
 242              		.cfi_startproc
 243              		@ args = 0, pretend = 0, frame = 0
 244              		@ frame_needed = 0, uses_anonymous_args = 0
 245              		@ link register save eliminated.
 297:Generated_Source\PSoC5/UART_LOG.c ****     #if (UART_LOG_CONTROL_REG_REMOVED)
 298:Generated_Source\PSoC5/UART_LOG.c ****         return(0u);
 299:Generated_Source\PSoC5/UART_LOG.c ****     #else
 300:Generated_Source\PSoC5/UART_LOG.c ****         return(UART_LOG_CONTROL_REG);
 301:Generated_Source\PSoC5/UART_LOG.c ****     #endif /* (UART_LOG_CONTROL_REG_REMOVED) */
 302:Generated_Source\PSoC5/UART_LOG.c **** }
 246              		.loc 1 302 0
 247 0000 0020     		movs	r0, #0
 248 0002 7047     		bx	lr
 249              		.cfi_endproc
 250              	.LFE4:
 251              		.size	UART_LOG_ReadControlRegister, .-UART_LOG_ReadControlRegister
 252              		.section	.text.UART_LOG_WriteControlRegister,"ax",%progbits
 253              		.align	2
 254              		.global	UART_LOG_WriteControlRegister
 255              		.thumb
 256              		.thumb_func
 257              		.type	UART_LOG_WriteControlRegister, %function
 258              	UART_LOG_WriteControlRegister:
 259              	.LFB5:
 303:Generated_Source\PSoC5/UART_LOG.c **** 
 304:Generated_Source\PSoC5/UART_LOG.c **** 
 305:Generated_Source\PSoC5/UART_LOG.c **** /*******************************************************************************
 306:Generated_Source\PSoC5/UART_LOG.c **** * Function Name: UART_LOG_WriteControlRegister
ARM GAS  C:\Users\rbhar\AppData\Local\Temp\ccaqTdDy.s 			page 11


 307:Generated_Source\PSoC5/UART_LOG.c **** ********************************************************************************
 308:Generated_Source\PSoC5/UART_LOG.c **** *
 309:Generated_Source\PSoC5/UART_LOG.c **** * Summary:
 310:Generated_Source\PSoC5/UART_LOG.c **** *  Writes an 8-bit value into the control register
 311:Generated_Source\PSoC5/UART_LOG.c **** *
 312:Generated_Source\PSoC5/UART_LOG.c **** * Parameters:
 313:Generated_Source\PSoC5/UART_LOG.c **** *  control:  control register value
 314:Generated_Source\PSoC5/UART_LOG.c **** *
 315:Generated_Source\PSoC5/UART_LOG.c **** * Return:
 316:Generated_Source\PSoC5/UART_LOG.c **** *  None.
 317:Generated_Source\PSoC5/UART_LOG.c **** *
 318:Generated_Source\PSoC5/UART_LOG.c **** *******************************************************************************/
 319:Generated_Source\PSoC5/UART_LOG.c **** void  UART_LOG_WriteControlRegister(uint8 control) 
 320:Generated_Source\PSoC5/UART_LOG.c **** {
 260              		.loc 1 320 0
 261              		.cfi_startproc
 262              		@ args = 0, pretend = 0, frame = 0
 263              		@ frame_needed = 0, uses_anonymous_args = 0
 264              		@ link register save eliminated.
 265              	.LVL14:
 266 0000 7047     		bx	lr
 267              		.cfi_endproc
 268              	.LFE5:
 269              		.size	UART_LOG_WriteControlRegister, .-UART_LOG_WriteControlRegister
 270 0002 00BF     		.section	.text.UART_LOG_SetRxInterruptMode,"ax",%progbits
 271              		.align	2
 272              		.global	UART_LOG_SetRxInterruptMode
 273              		.thumb
 274              		.thumb_func
 275              		.type	UART_LOG_SetRxInterruptMode, %function
 276              	UART_LOG_SetRxInterruptMode:
 277              	.LFB6:
 321:Generated_Source\PSoC5/UART_LOG.c ****     #if (UART_LOG_CONTROL_REG_REMOVED)
 322:Generated_Source\PSoC5/UART_LOG.c ****         if(0u != control)
 323:Generated_Source\PSoC5/UART_LOG.c ****         {
 324:Generated_Source\PSoC5/UART_LOG.c ****             /* Suppress compiler warning */
 325:Generated_Source\PSoC5/UART_LOG.c ****         }
 326:Generated_Source\PSoC5/UART_LOG.c ****     #else
 327:Generated_Source\PSoC5/UART_LOG.c ****        UART_LOG_CONTROL_REG = control;
 328:Generated_Source\PSoC5/UART_LOG.c ****     #endif /* (UART_LOG_CONTROL_REG_REMOVED) */
 329:Generated_Source\PSoC5/UART_LOG.c **** }
 330:Generated_Source\PSoC5/UART_LOG.c **** 
 331:Generated_Source\PSoC5/UART_LOG.c **** 
 332:Generated_Source\PSoC5/UART_LOG.c **** #if(UART_LOG_RX_ENABLED || UART_LOG_HD_ENABLED)
 333:Generated_Source\PSoC5/UART_LOG.c ****     /*******************************************************************************
 334:Generated_Source\PSoC5/UART_LOG.c ****     * Function Name: UART_LOG_SetRxInterruptMode
 335:Generated_Source\PSoC5/UART_LOG.c ****     ********************************************************************************
 336:Generated_Source\PSoC5/UART_LOG.c ****     *
 337:Generated_Source\PSoC5/UART_LOG.c ****     * Summary:
 338:Generated_Source\PSoC5/UART_LOG.c ****     *  Configures the RX interrupt sources enabled.
 339:Generated_Source\PSoC5/UART_LOG.c ****     *
 340:Generated_Source\PSoC5/UART_LOG.c ****     * Parameters:
 341:Generated_Source\PSoC5/UART_LOG.c ****     *  IntSrc:  Bit field containing the RX interrupts to enable. Based on the 
 342:Generated_Source\PSoC5/UART_LOG.c ****     *  bit-field arrangement of the status register. This value must be a 
 343:Generated_Source\PSoC5/UART_LOG.c ****     *  combination of status register bit-masks shown below:
 344:Generated_Source\PSoC5/UART_LOG.c ****     *      UART_LOG_RX_STS_FIFO_NOTEMPTY    Interrupt on byte received.
 345:Generated_Source\PSoC5/UART_LOG.c ****     *      UART_LOG_RX_STS_PAR_ERROR        Interrupt on parity error.
ARM GAS  C:\Users\rbhar\AppData\Local\Temp\ccaqTdDy.s 			page 12


 346:Generated_Source\PSoC5/UART_LOG.c ****     *      UART_LOG_RX_STS_STOP_ERROR       Interrupt on stop error.
 347:Generated_Source\PSoC5/UART_LOG.c ****     *      UART_LOG_RX_STS_BREAK            Interrupt on break.
 348:Generated_Source\PSoC5/UART_LOG.c ****     *      UART_LOG_RX_STS_OVERRUN          Interrupt on overrun error.
 349:Generated_Source\PSoC5/UART_LOG.c ****     *      UART_LOG_RX_STS_ADDR_MATCH       Interrupt on address match.
 350:Generated_Source\PSoC5/UART_LOG.c ****     *      UART_LOG_RX_STS_MRKSPC           Interrupt on address detect.
 351:Generated_Source\PSoC5/UART_LOG.c ****     *
 352:Generated_Source\PSoC5/UART_LOG.c ****     * Return:
 353:Generated_Source\PSoC5/UART_LOG.c ****     *  None.
 354:Generated_Source\PSoC5/UART_LOG.c ****     *
 355:Generated_Source\PSoC5/UART_LOG.c ****     * Theory:
 356:Generated_Source\PSoC5/UART_LOG.c ****     *  Enables the output of specific status bits to the interrupt controller
 357:Generated_Source\PSoC5/UART_LOG.c ****     *
 358:Generated_Source\PSoC5/UART_LOG.c ****     *******************************************************************************/
 359:Generated_Source\PSoC5/UART_LOG.c ****     void UART_LOG_SetRxInterruptMode(uint8 intSrc) 
 360:Generated_Source\PSoC5/UART_LOG.c ****     {
 278              		.loc 1 360 0
 279              		.cfi_startproc
 280              		@ args = 0, pretend = 0, frame = 0
 281              		@ frame_needed = 0, uses_anonymous_args = 0
 282              		@ link register save eliminated.
 283              	.LVL15:
 361:Generated_Source\PSoC5/UART_LOG.c ****         UART_LOG_RXSTATUS_MASK_REG  = intSrc;
 284              		.loc 1 361 0
 285 0000 014B     		ldr	r3, .L21
 286 0002 1870     		strb	r0, [r3]
 287 0004 7047     		bx	lr
 288              	.L22:
 289 0006 00BF     		.align	2
 290              	.L21:
 291 0008 81640040 		.word	1073767553
 292              		.cfi_endproc
 293              	.LFE6:
 294              		.size	UART_LOG_SetRxInterruptMode, .-UART_LOG_SetRxInterruptMode
 295              		.section	.text.UART_LOG_ReadRxData,"ax",%progbits
 296              		.align	2
 297              		.global	UART_LOG_ReadRxData
 298              		.thumb
 299              		.thumb_func
 300              		.type	UART_LOG_ReadRxData, %function
 301              	UART_LOG_ReadRxData:
 302              	.LFB7:
 362:Generated_Source\PSoC5/UART_LOG.c ****     }
 363:Generated_Source\PSoC5/UART_LOG.c **** 
 364:Generated_Source\PSoC5/UART_LOG.c **** 
 365:Generated_Source\PSoC5/UART_LOG.c ****     /*******************************************************************************
 366:Generated_Source\PSoC5/UART_LOG.c ****     * Function Name: UART_LOG_ReadRxData
 367:Generated_Source\PSoC5/UART_LOG.c ****     ********************************************************************************
 368:Generated_Source\PSoC5/UART_LOG.c ****     *
 369:Generated_Source\PSoC5/UART_LOG.c ****     * Summary:
 370:Generated_Source\PSoC5/UART_LOG.c ****     *  Returns the next byte of received data. This function returns data without
 371:Generated_Source\PSoC5/UART_LOG.c ****     *  checking the status. You must check the status separately.
 372:Generated_Source\PSoC5/UART_LOG.c ****     *
 373:Generated_Source\PSoC5/UART_LOG.c ****     * Parameters:
 374:Generated_Source\PSoC5/UART_LOG.c ****     *  None.
 375:Generated_Source\PSoC5/UART_LOG.c ****     *
 376:Generated_Source\PSoC5/UART_LOG.c ****     * Return:
 377:Generated_Source\PSoC5/UART_LOG.c ****     *  Received data from RX register
ARM GAS  C:\Users\rbhar\AppData\Local\Temp\ccaqTdDy.s 			page 13


 378:Generated_Source\PSoC5/UART_LOG.c ****     *
 379:Generated_Source\PSoC5/UART_LOG.c ****     * Global Variables:
 380:Generated_Source\PSoC5/UART_LOG.c ****     *  UART_LOG_rxBuffer - RAM buffer pointer for save received data.
 381:Generated_Source\PSoC5/UART_LOG.c ****     *  UART_LOG_rxBufferWrite - cyclic index for write to rxBuffer,
 382:Generated_Source\PSoC5/UART_LOG.c ****     *     checked to identify new data.
 383:Generated_Source\PSoC5/UART_LOG.c ****     *  UART_LOG_rxBufferRead - cyclic index for read from rxBuffer,
 384:Generated_Source\PSoC5/UART_LOG.c ****     *     incremented after each byte has been read from buffer.
 385:Generated_Source\PSoC5/UART_LOG.c ****     *  UART_LOG_rxBufferLoopDetect - cleared if loop condition was detected
 386:Generated_Source\PSoC5/UART_LOG.c ****     *     in RX ISR.
 387:Generated_Source\PSoC5/UART_LOG.c ****     *
 388:Generated_Source\PSoC5/UART_LOG.c ****     * Reentrant:
 389:Generated_Source\PSoC5/UART_LOG.c ****     *  No.
 390:Generated_Source\PSoC5/UART_LOG.c ****     *
 391:Generated_Source\PSoC5/UART_LOG.c ****     *******************************************************************************/
 392:Generated_Source\PSoC5/UART_LOG.c ****     uint8 UART_LOG_ReadRxData(void) 
 393:Generated_Source\PSoC5/UART_LOG.c ****     {
 303              		.loc 1 393 0
 304              		.cfi_startproc
 305              		@ args = 0, pretend = 0, frame = 0
 306              		@ frame_needed = 0, uses_anonymous_args = 0
 307              		@ link register save eliminated.
 394:Generated_Source\PSoC5/UART_LOG.c ****         uint8 rxData;
 395:Generated_Source\PSoC5/UART_LOG.c **** 
 396:Generated_Source\PSoC5/UART_LOG.c ****     #if (UART_LOG_RX_INTERRUPT_ENABLED)
 397:Generated_Source\PSoC5/UART_LOG.c **** 
 398:Generated_Source\PSoC5/UART_LOG.c ****         uint8 locRxBufferRead;
 399:Generated_Source\PSoC5/UART_LOG.c ****         uint8 locRxBufferWrite;
 400:Generated_Source\PSoC5/UART_LOG.c **** 
 401:Generated_Source\PSoC5/UART_LOG.c ****         /* Protect variables that could change on interrupt */
 402:Generated_Source\PSoC5/UART_LOG.c ****         UART_LOG_DisableRxInt();
 403:Generated_Source\PSoC5/UART_LOG.c **** 
 404:Generated_Source\PSoC5/UART_LOG.c ****         locRxBufferRead  = UART_LOG_rxBufferRead;
 405:Generated_Source\PSoC5/UART_LOG.c ****         locRxBufferWrite = UART_LOG_rxBufferWrite;
 406:Generated_Source\PSoC5/UART_LOG.c **** 
 407:Generated_Source\PSoC5/UART_LOG.c ****         if( (UART_LOG_rxBufferLoopDetect != 0u) || (locRxBufferRead != locRxBufferWrite) )
 408:Generated_Source\PSoC5/UART_LOG.c ****         {
 409:Generated_Source\PSoC5/UART_LOG.c ****             rxData = UART_LOG_rxBuffer[locRxBufferRead];
 410:Generated_Source\PSoC5/UART_LOG.c ****             locRxBufferRead++;
 411:Generated_Source\PSoC5/UART_LOG.c **** 
 412:Generated_Source\PSoC5/UART_LOG.c ****             if(locRxBufferRead >= UART_LOG_RX_BUFFER_SIZE)
 413:Generated_Source\PSoC5/UART_LOG.c ****             {
 414:Generated_Source\PSoC5/UART_LOG.c ****                 locRxBufferRead = 0u;
 415:Generated_Source\PSoC5/UART_LOG.c ****             }
 416:Generated_Source\PSoC5/UART_LOG.c ****             /* Update the real pointer */
 417:Generated_Source\PSoC5/UART_LOG.c ****             UART_LOG_rxBufferRead = locRxBufferRead;
 418:Generated_Source\PSoC5/UART_LOG.c **** 
 419:Generated_Source\PSoC5/UART_LOG.c ****             if(UART_LOG_rxBufferLoopDetect != 0u)
 420:Generated_Source\PSoC5/UART_LOG.c ****             {
 421:Generated_Source\PSoC5/UART_LOG.c ****                 UART_LOG_rxBufferLoopDetect = 0u;
 422:Generated_Source\PSoC5/UART_LOG.c ****                 #if ((UART_LOG_RX_INTERRUPT_ENABLED) && (UART_LOG_FLOW_CONTROL != 0u))
 423:Generated_Source\PSoC5/UART_LOG.c ****                     /* When Hardware Flow Control selected - return RX mask */
 424:Generated_Source\PSoC5/UART_LOG.c ****                     #if( UART_LOG_HD_ENABLED )
 425:Generated_Source\PSoC5/UART_LOG.c ****                         if((UART_LOG_CONTROL_REG & UART_LOG_CTRL_HD_SEND) == 0u)
 426:Generated_Source\PSoC5/UART_LOG.c ****                         {   /* In Half duplex mode return RX mask only in RX
 427:Generated_Source\PSoC5/UART_LOG.c ****                             *  configuration set, otherwise
 428:Generated_Source\PSoC5/UART_LOG.c ****                             *  mask will be returned in LoadRxConfig() API.
 429:Generated_Source\PSoC5/UART_LOG.c ****                             */
ARM GAS  C:\Users\rbhar\AppData\Local\Temp\ccaqTdDy.s 			page 14


 430:Generated_Source\PSoC5/UART_LOG.c ****                             UART_LOG_RXSTATUS_MASK_REG  |= UART_LOG_RX_STS_FIFO_NOTEMPTY;
 431:Generated_Source\PSoC5/UART_LOG.c ****                         }
 432:Generated_Source\PSoC5/UART_LOG.c ****                     #else
 433:Generated_Source\PSoC5/UART_LOG.c ****                         UART_LOG_RXSTATUS_MASK_REG  |= UART_LOG_RX_STS_FIFO_NOTEMPTY;
 434:Generated_Source\PSoC5/UART_LOG.c ****                     #endif /* end UART_LOG_HD_ENABLED */
 435:Generated_Source\PSoC5/UART_LOG.c ****                 #endif /* ((UART_LOG_RX_INTERRUPT_ENABLED) && (UART_LOG_FLOW_CONTROL != 0u)) */
 436:Generated_Source\PSoC5/UART_LOG.c ****             }
 437:Generated_Source\PSoC5/UART_LOG.c ****         }
 438:Generated_Source\PSoC5/UART_LOG.c ****         else
 439:Generated_Source\PSoC5/UART_LOG.c ****         {   /* Needs to check status for RX_STS_FIFO_NOTEMPTY bit */
 440:Generated_Source\PSoC5/UART_LOG.c ****             rxData = UART_LOG_RXDATA_REG;
 441:Generated_Source\PSoC5/UART_LOG.c ****         }
 442:Generated_Source\PSoC5/UART_LOG.c **** 
 443:Generated_Source\PSoC5/UART_LOG.c ****         UART_LOG_EnableRxInt();
 444:Generated_Source\PSoC5/UART_LOG.c **** 
 445:Generated_Source\PSoC5/UART_LOG.c ****     #else
 446:Generated_Source\PSoC5/UART_LOG.c **** 
 447:Generated_Source\PSoC5/UART_LOG.c ****         /* Needs to check status for RX_STS_FIFO_NOTEMPTY bit */
 448:Generated_Source\PSoC5/UART_LOG.c ****         rxData = UART_LOG_RXDATA_REG;
 308              		.loc 1 448 0
 309 0000 014B     		ldr	r3, .L24
 310 0002 1878     		ldrb	r0, [r3]	@ zero_extendqisi2
 311              	.LVL16:
 449:Generated_Source\PSoC5/UART_LOG.c **** 
 450:Generated_Source\PSoC5/UART_LOG.c ****     #endif /* (UART_LOG_RX_INTERRUPT_ENABLED) */
 451:Generated_Source\PSoC5/UART_LOG.c **** 
 452:Generated_Source\PSoC5/UART_LOG.c ****         return(rxData);
 453:Generated_Source\PSoC5/UART_LOG.c ****     }
 312              		.loc 1 453 0
 313 0004 7047     		bx	lr
 314              	.L25:
 315 0006 00BF     		.align	2
 316              	.L24:
 317 0008 42640040 		.word	1073767490
 318              		.cfi_endproc
 319              	.LFE7:
 320              		.size	UART_LOG_ReadRxData, .-UART_LOG_ReadRxData
 321              		.section	.text.UART_LOG_ReadRxStatus,"ax",%progbits
 322              		.align	2
 323              		.global	UART_LOG_ReadRxStatus
 324              		.thumb
 325              		.thumb_func
 326              		.type	UART_LOG_ReadRxStatus, %function
 327              	UART_LOG_ReadRxStatus:
 328              	.LFB8:
 454:Generated_Source\PSoC5/UART_LOG.c **** 
 455:Generated_Source\PSoC5/UART_LOG.c **** 
 456:Generated_Source\PSoC5/UART_LOG.c ****     /*******************************************************************************
 457:Generated_Source\PSoC5/UART_LOG.c ****     * Function Name: UART_LOG_ReadRxStatus
 458:Generated_Source\PSoC5/UART_LOG.c ****     ********************************************************************************
 459:Generated_Source\PSoC5/UART_LOG.c ****     *
 460:Generated_Source\PSoC5/UART_LOG.c ****     * Summary:
 461:Generated_Source\PSoC5/UART_LOG.c ****     *  Returns the current state of the receiver status register and the software
 462:Generated_Source\PSoC5/UART_LOG.c ****     *  buffer overflow status.
 463:Generated_Source\PSoC5/UART_LOG.c ****     *
 464:Generated_Source\PSoC5/UART_LOG.c ****     * Parameters:
 465:Generated_Source\PSoC5/UART_LOG.c ****     *  None.
ARM GAS  C:\Users\rbhar\AppData\Local\Temp\ccaqTdDy.s 			page 15


 466:Generated_Source\PSoC5/UART_LOG.c ****     *
 467:Generated_Source\PSoC5/UART_LOG.c ****     * Return:
 468:Generated_Source\PSoC5/UART_LOG.c ****     *  Current state of the status register.
 469:Generated_Source\PSoC5/UART_LOG.c ****     *
 470:Generated_Source\PSoC5/UART_LOG.c ****     * Side Effect:
 471:Generated_Source\PSoC5/UART_LOG.c ****     *  All status register bits are clear-on-read except
 472:Generated_Source\PSoC5/UART_LOG.c ****     *  UART_LOG_RX_STS_FIFO_NOTEMPTY.
 473:Generated_Source\PSoC5/UART_LOG.c ****     *  UART_LOG_RX_STS_FIFO_NOTEMPTY clears immediately after RX data
 474:Generated_Source\PSoC5/UART_LOG.c ****     *  register read.
 475:Generated_Source\PSoC5/UART_LOG.c ****     *
 476:Generated_Source\PSoC5/UART_LOG.c ****     * Global Variables:
 477:Generated_Source\PSoC5/UART_LOG.c ****     *  UART_LOG_rxBufferOverflow - used to indicate overload condition.
 478:Generated_Source\PSoC5/UART_LOG.c ****     *   It set to one in RX interrupt when there isn't free space in
 479:Generated_Source\PSoC5/UART_LOG.c ****     *   UART_LOG_rxBufferRead to write new data. This condition returned
 480:Generated_Source\PSoC5/UART_LOG.c ****     *   and cleared to zero by this API as an
 481:Generated_Source\PSoC5/UART_LOG.c ****     *   UART_LOG_RX_STS_SOFT_BUFF_OVER bit along with RX Status register
 482:Generated_Source\PSoC5/UART_LOG.c ****     *   bits.
 483:Generated_Source\PSoC5/UART_LOG.c ****     *
 484:Generated_Source\PSoC5/UART_LOG.c ****     *******************************************************************************/
 485:Generated_Source\PSoC5/UART_LOG.c ****     uint8 UART_LOG_ReadRxStatus(void) 
 486:Generated_Source\PSoC5/UART_LOG.c ****     {
 329              		.loc 1 486 0
 330              		.cfi_startproc
 331              		@ args = 0, pretend = 0, frame = 0
 332              		@ frame_needed = 0, uses_anonymous_args = 0
 333              		@ link register save eliminated.
 487:Generated_Source\PSoC5/UART_LOG.c ****         uint8 status;
 488:Generated_Source\PSoC5/UART_LOG.c **** 
 489:Generated_Source\PSoC5/UART_LOG.c ****         status = UART_LOG_RXSTATUS_REG & UART_LOG_RX_HW_MASK;
 334              		.loc 1 489 0
 335 0000 024B     		ldr	r3, .L27
 336 0002 1878     		ldrb	r0, [r3]	@ zero_extendqisi2
 337              	.LVL17:
 490:Generated_Source\PSoC5/UART_LOG.c **** 
 491:Generated_Source\PSoC5/UART_LOG.c ****     #if (UART_LOG_RX_INTERRUPT_ENABLED)
 492:Generated_Source\PSoC5/UART_LOG.c ****         if(UART_LOG_rxBufferOverflow != 0u)
 493:Generated_Source\PSoC5/UART_LOG.c ****         {
 494:Generated_Source\PSoC5/UART_LOG.c ****             status |= UART_LOG_RX_STS_SOFT_BUFF_OVER;
 495:Generated_Source\PSoC5/UART_LOG.c ****             UART_LOG_rxBufferOverflow = 0u;
 496:Generated_Source\PSoC5/UART_LOG.c ****         }
 497:Generated_Source\PSoC5/UART_LOG.c ****     #endif /* (UART_LOG_RX_INTERRUPT_ENABLED) */
 498:Generated_Source\PSoC5/UART_LOG.c **** 
 499:Generated_Source\PSoC5/UART_LOG.c ****         return(status);
 500:Generated_Source\PSoC5/UART_LOG.c ****     }
 338              		.loc 1 500 0
 339 0004 00F07F00 		and	r0, r0, #127
 340              	.LVL18:
 341 0008 7047     		bx	lr
 342              	.L28:
 343 000a 00BF     		.align	2
 344              	.L27:
 345 000c 61640040 		.word	1073767521
 346              		.cfi_endproc
 347              	.LFE8:
 348              		.size	UART_LOG_ReadRxStatus, .-UART_LOG_ReadRxStatus
 349              		.section	.text.UART_LOG_GetChar,"ax",%progbits
 350              		.align	2
ARM GAS  C:\Users\rbhar\AppData\Local\Temp\ccaqTdDy.s 			page 16


 351              		.global	UART_LOG_GetChar
 352              		.thumb
 353              		.thumb_func
 354              		.type	UART_LOG_GetChar, %function
 355              	UART_LOG_GetChar:
 356              	.LFB9:
 501:Generated_Source\PSoC5/UART_LOG.c **** 
 502:Generated_Source\PSoC5/UART_LOG.c **** 
 503:Generated_Source\PSoC5/UART_LOG.c ****     /*******************************************************************************
 504:Generated_Source\PSoC5/UART_LOG.c ****     * Function Name: UART_LOG_GetChar
 505:Generated_Source\PSoC5/UART_LOG.c ****     ********************************************************************************
 506:Generated_Source\PSoC5/UART_LOG.c ****     *
 507:Generated_Source\PSoC5/UART_LOG.c ****     * Summary:
 508:Generated_Source\PSoC5/UART_LOG.c ****     *  Returns the last received byte of data. UART_LOG_GetChar() is
 509:Generated_Source\PSoC5/UART_LOG.c ****     *  designed for ASCII characters and returns a uint8 where 1 to 255 are values
 510:Generated_Source\PSoC5/UART_LOG.c ****     *  for valid characters and 0 indicates an error occurred or no data is present.
 511:Generated_Source\PSoC5/UART_LOG.c ****     *
 512:Generated_Source\PSoC5/UART_LOG.c ****     * Parameters:
 513:Generated_Source\PSoC5/UART_LOG.c ****     *  None.
 514:Generated_Source\PSoC5/UART_LOG.c ****     *
 515:Generated_Source\PSoC5/UART_LOG.c ****     * Return:
 516:Generated_Source\PSoC5/UART_LOG.c ****     *  Character read from UART RX buffer. ASCII characters from 1 to 255 are valid.
 517:Generated_Source\PSoC5/UART_LOG.c ****     *  A returned zero signifies an error condition or no data available.
 518:Generated_Source\PSoC5/UART_LOG.c ****     *
 519:Generated_Source\PSoC5/UART_LOG.c ****     * Global Variables:
 520:Generated_Source\PSoC5/UART_LOG.c ****     *  UART_LOG_rxBuffer - RAM buffer pointer for save received data.
 521:Generated_Source\PSoC5/UART_LOG.c ****     *  UART_LOG_rxBufferWrite - cyclic index for write to rxBuffer,
 522:Generated_Source\PSoC5/UART_LOG.c ****     *     checked to identify new data.
 523:Generated_Source\PSoC5/UART_LOG.c ****     *  UART_LOG_rxBufferRead - cyclic index for read from rxBuffer,
 524:Generated_Source\PSoC5/UART_LOG.c ****     *     incremented after each byte has been read from buffer.
 525:Generated_Source\PSoC5/UART_LOG.c ****     *  UART_LOG_rxBufferLoopDetect - cleared if loop condition was detected
 526:Generated_Source\PSoC5/UART_LOG.c ****     *     in RX ISR.
 527:Generated_Source\PSoC5/UART_LOG.c ****     *
 528:Generated_Source\PSoC5/UART_LOG.c ****     * Reentrant:
 529:Generated_Source\PSoC5/UART_LOG.c ****     *  No.
 530:Generated_Source\PSoC5/UART_LOG.c ****     *
 531:Generated_Source\PSoC5/UART_LOG.c ****     *******************************************************************************/
 532:Generated_Source\PSoC5/UART_LOG.c ****     uint8 UART_LOG_GetChar(void) 
 533:Generated_Source\PSoC5/UART_LOG.c ****     {
 357              		.loc 1 533 0
 358              		.cfi_startproc
 359              		@ args = 0, pretend = 0, frame = 0
 360              		@ frame_needed = 0, uses_anonymous_args = 0
 361              		@ link register save eliminated.
 362              	.LVL19:
 534:Generated_Source\PSoC5/UART_LOG.c ****         uint8 rxData = 0u;
 535:Generated_Source\PSoC5/UART_LOG.c ****         uint8 rxStatus;
 536:Generated_Source\PSoC5/UART_LOG.c **** 
 537:Generated_Source\PSoC5/UART_LOG.c ****     #if (UART_LOG_RX_INTERRUPT_ENABLED)
 538:Generated_Source\PSoC5/UART_LOG.c ****         uint8 locRxBufferRead;
 539:Generated_Source\PSoC5/UART_LOG.c ****         uint8 locRxBufferWrite;
 540:Generated_Source\PSoC5/UART_LOG.c **** 
 541:Generated_Source\PSoC5/UART_LOG.c ****         /* Protect variables that could change on interrupt */
 542:Generated_Source\PSoC5/UART_LOG.c ****         UART_LOG_DisableRxInt();
 543:Generated_Source\PSoC5/UART_LOG.c **** 
 544:Generated_Source\PSoC5/UART_LOG.c ****         locRxBufferRead  = UART_LOG_rxBufferRead;
 545:Generated_Source\PSoC5/UART_LOG.c ****         locRxBufferWrite = UART_LOG_rxBufferWrite;
ARM GAS  C:\Users\rbhar\AppData\Local\Temp\ccaqTdDy.s 			page 17


 546:Generated_Source\PSoC5/UART_LOG.c **** 
 547:Generated_Source\PSoC5/UART_LOG.c ****         if( (UART_LOG_rxBufferLoopDetect != 0u) || (locRxBufferRead != locRxBufferWrite) )
 548:Generated_Source\PSoC5/UART_LOG.c ****         {
 549:Generated_Source\PSoC5/UART_LOG.c ****             rxData = UART_LOG_rxBuffer[locRxBufferRead];
 550:Generated_Source\PSoC5/UART_LOG.c ****             locRxBufferRead++;
 551:Generated_Source\PSoC5/UART_LOG.c ****             if(locRxBufferRead >= UART_LOG_RX_BUFFER_SIZE)
 552:Generated_Source\PSoC5/UART_LOG.c ****             {
 553:Generated_Source\PSoC5/UART_LOG.c ****                 locRxBufferRead = 0u;
 554:Generated_Source\PSoC5/UART_LOG.c ****             }
 555:Generated_Source\PSoC5/UART_LOG.c ****             /* Update the real pointer */
 556:Generated_Source\PSoC5/UART_LOG.c ****             UART_LOG_rxBufferRead = locRxBufferRead;
 557:Generated_Source\PSoC5/UART_LOG.c **** 
 558:Generated_Source\PSoC5/UART_LOG.c ****             if(UART_LOG_rxBufferLoopDetect != 0u)
 559:Generated_Source\PSoC5/UART_LOG.c ****             {
 560:Generated_Source\PSoC5/UART_LOG.c ****                 UART_LOG_rxBufferLoopDetect = 0u;
 561:Generated_Source\PSoC5/UART_LOG.c ****                 #if( (UART_LOG_RX_INTERRUPT_ENABLED) && (UART_LOG_FLOW_CONTROL != 0u) )
 562:Generated_Source\PSoC5/UART_LOG.c ****                     /* When Hardware Flow Control selected - return RX mask */
 563:Generated_Source\PSoC5/UART_LOG.c ****                     #if( UART_LOG_HD_ENABLED )
 564:Generated_Source\PSoC5/UART_LOG.c ****                         if((UART_LOG_CONTROL_REG & UART_LOG_CTRL_HD_SEND) == 0u)
 565:Generated_Source\PSoC5/UART_LOG.c ****                         {   /* In Half duplex mode return RX mask only if
 566:Generated_Source\PSoC5/UART_LOG.c ****                             *  RX configuration set, otherwise
 567:Generated_Source\PSoC5/UART_LOG.c ****                             *  mask will be returned in LoadRxConfig() API.
 568:Generated_Source\PSoC5/UART_LOG.c ****                             */
 569:Generated_Source\PSoC5/UART_LOG.c ****                             UART_LOG_RXSTATUS_MASK_REG |= UART_LOG_RX_STS_FIFO_NOTEMPTY;
 570:Generated_Source\PSoC5/UART_LOG.c ****                         }
 571:Generated_Source\PSoC5/UART_LOG.c ****                     #else
 572:Generated_Source\PSoC5/UART_LOG.c ****                         UART_LOG_RXSTATUS_MASK_REG |= UART_LOG_RX_STS_FIFO_NOTEMPTY;
 573:Generated_Source\PSoC5/UART_LOG.c ****                     #endif /* end UART_LOG_HD_ENABLED */
 574:Generated_Source\PSoC5/UART_LOG.c ****                 #endif /* UART_LOG_RX_INTERRUPT_ENABLED and Hardware flow control*/
 575:Generated_Source\PSoC5/UART_LOG.c ****             }
 576:Generated_Source\PSoC5/UART_LOG.c **** 
 577:Generated_Source\PSoC5/UART_LOG.c ****         }
 578:Generated_Source\PSoC5/UART_LOG.c ****         else
 579:Generated_Source\PSoC5/UART_LOG.c ****         {   rxStatus = UART_LOG_RXSTATUS_REG;
 580:Generated_Source\PSoC5/UART_LOG.c ****             if((rxStatus & UART_LOG_RX_STS_FIFO_NOTEMPTY) != 0u)
 581:Generated_Source\PSoC5/UART_LOG.c ****             {   /* Read received data from FIFO */
 582:Generated_Source\PSoC5/UART_LOG.c ****                 rxData = UART_LOG_RXDATA_REG;
 583:Generated_Source\PSoC5/UART_LOG.c ****                 /*Check status on error*/
 584:Generated_Source\PSoC5/UART_LOG.c ****                 if((rxStatus & (UART_LOG_RX_STS_BREAK | UART_LOG_RX_STS_PAR_ERROR |
 585:Generated_Source\PSoC5/UART_LOG.c ****                                 UART_LOG_RX_STS_STOP_ERROR | UART_LOG_RX_STS_OVERRUN)) != 0u)
 586:Generated_Source\PSoC5/UART_LOG.c ****                 {
 587:Generated_Source\PSoC5/UART_LOG.c ****                     rxData = 0u;
 588:Generated_Source\PSoC5/UART_LOG.c ****                 }
 589:Generated_Source\PSoC5/UART_LOG.c ****             }
 590:Generated_Source\PSoC5/UART_LOG.c ****         }
 591:Generated_Source\PSoC5/UART_LOG.c **** 
 592:Generated_Source\PSoC5/UART_LOG.c ****         UART_LOG_EnableRxInt();
 593:Generated_Source\PSoC5/UART_LOG.c **** 
 594:Generated_Source\PSoC5/UART_LOG.c ****     #else
 595:Generated_Source\PSoC5/UART_LOG.c **** 
 596:Generated_Source\PSoC5/UART_LOG.c ****         rxStatus =UART_LOG_RXSTATUS_REG;
 363              		.loc 1 596 0
 364 0000 084B     		ldr	r3, .L33
 365 0002 1B78     		ldrb	r3, [r3]	@ zero_extendqisi2
 366 0004 DBB2     		uxtb	r3, r3
 367              	.LVL20:
 597:Generated_Source\PSoC5/UART_LOG.c ****         if((rxStatus & UART_LOG_RX_STS_FIFO_NOTEMPTY) != 0u)
ARM GAS  C:\Users\rbhar\AppData\Local\Temp\ccaqTdDy.s 			page 18


 368              		.loc 1 597 0
 369 0006 13F0200F 		tst	r3, #32
 370 000a 06D0     		beq	.L31
 598:Generated_Source\PSoC5/UART_LOG.c ****         {
 599:Generated_Source\PSoC5/UART_LOG.c ****             /* Read received data from FIFO */
 600:Generated_Source\PSoC5/UART_LOG.c ****             rxData = UART_LOG_RXDATA_REG;
 371              		.loc 1 600 0
 372 000c 064A     		ldr	r2, .L33+4
 373 000e 1078     		ldrb	r0, [r2]	@ zero_extendqisi2
 374 0010 C0B2     		uxtb	r0, r0
 375              	.LVL21:
 601:Generated_Source\PSoC5/UART_LOG.c **** 
 602:Generated_Source\PSoC5/UART_LOG.c ****             /*Check status on error*/
 603:Generated_Source\PSoC5/UART_LOG.c ****             if((rxStatus & (UART_LOG_RX_STS_BREAK | UART_LOG_RX_STS_PAR_ERROR |
 376              		.loc 1 603 0
 377 0012 13F01E0F 		tst	r3, #30
 378 0016 02D1     		bne	.L32
 379 0018 7047     		bx	lr
 380              	.LVL22:
 381              	.L31:
 534:Generated_Source\PSoC5/UART_LOG.c ****         uint8 rxStatus;
 382              		.loc 1 534 0
 383 001a 0020     		movs	r0, #0
 384 001c 7047     		bx	lr
 385              	.LVL23:
 386              	.L32:
 604:Generated_Source\PSoC5/UART_LOG.c ****                             UART_LOG_RX_STS_STOP_ERROR | UART_LOG_RX_STS_OVERRUN)) != 0u)
 605:Generated_Source\PSoC5/UART_LOG.c ****             {
 606:Generated_Source\PSoC5/UART_LOG.c ****                 rxData = 0u;
 387              		.loc 1 606 0
 388 001e 0020     		movs	r0, #0
 389              	.LVL24:
 607:Generated_Source\PSoC5/UART_LOG.c ****             }
 608:Generated_Source\PSoC5/UART_LOG.c ****         }
 609:Generated_Source\PSoC5/UART_LOG.c ****     #endif /* (UART_LOG_RX_INTERRUPT_ENABLED) */
 610:Generated_Source\PSoC5/UART_LOG.c **** 
 611:Generated_Source\PSoC5/UART_LOG.c ****         return(rxData);
 612:Generated_Source\PSoC5/UART_LOG.c ****     }
 390              		.loc 1 612 0
 391 0020 7047     		bx	lr
 392              	.L34:
 393 0022 00BF     		.align	2
 394              	.L33:
 395 0024 61640040 		.word	1073767521
 396 0028 42640040 		.word	1073767490
 397              		.cfi_endproc
 398              	.LFE9:
 399              		.size	UART_LOG_GetChar, .-UART_LOG_GetChar
 400              		.section	.text.UART_LOG_GetByte,"ax",%progbits
 401              		.align	2
 402              		.global	UART_LOG_GetByte
 403              		.thumb
 404              		.thumb_func
 405              		.type	UART_LOG_GetByte, %function
 406              	UART_LOG_GetByte:
 407              	.LFB10:
 613:Generated_Source\PSoC5/UART_LOG.c **** 
ARM GAS  C:\Users\rbhar\AppData\Local\Temp\ccaqTdDy.s 			page 19


 614:Generated_Source\PSoC5/UART_LOG.c **** 
 615:Generated_Source\PSoC5/UART_LOG.c ****     /*******************************************************************************
 616:Generated_Source\PSoC5/UART_LOG.c ****     * Function Name: UART_LOG_GetByte
 617:Generated_Source\PSoC5/UART_LOG.c ****     ********************************************************************************
 618:Generated_Source\PSoC5/UART_LOG.c ****     *
 619:Generated_Source\PSoC5/UART_LOG.c ****     * Summary:
 620:Generated_Source\PSoC5/UART_LOG.c ****     *  Reads UART RX buffer immediately, returns received character and error
 621:Generated_Source\PSoC5/UART_LOG.c ****     *  condition.
 622:Generated_Source\PSoC5/UART_LOG.c ****     *
 623:Generated_Source\PSoC5/UART_LOG.c ****     * Parameters:
 624:Generated_Source\PSoC5/UART_LOG.c ****     *  None.
 625:Generated_Source\PSoC5/UART_LOG.c ****     *
 626:Generated_Source\PSoC5/UART_LOG.c ****     * Return:
 627:Generated_Source\PSoC5/UART_LOG.c ****     *  MSB contains status and LSB contains UART RX data. If the MSB is nonzero,
 628:Generated_Source\PSoC5/UART_LOG.c ****     *  an error has occurred.
 629:Generated_Source\PSoC5/UART_LOG.c ****     *
 630:Generated_Source\PSoC5/UART_LOG.c ****     * Reentrant:
 631:Generated_Source\PSoC5/UART_LOG.c ****     *  No.
 632:Generated_Source\PSoC5/UART_LOG.c ****     *
 633:Generated_Source\PSoC5/UART_LOG.c ****     *******************************************************************************/
 634:Generated_Source\PSoC5/UART_LOG.c ****     uint16 UART_LOG_GetByte(void) 
 635:Generated_Source\PSoC5/UART_LOG.c ****     {
 408              		.loc 1 635 0
 409              		.cfi_startproc
 410              		@ args = 0, pretend = 0, frame = 0
 411              		@ frame_needed = 0, uses_anonymous_args = 0
 412 0000 10B5     		push	{r4, lr}
 413              		.cfi_def_cfa_offset 8
 414              		.cfi_offset 4, -8
 415              		.cfi_offset 14, -4
 636:Generated_Source\PSoC5/UART_LOG.c ****         
 637:Generated_Source\PSoC5/UART_LOG.c ****     #if (UART_LOG_RX_INTERRUPT_ENABLED)
 638:Generated_Source\PSoC5/UART_LOG.c ****         uint16 locErrorStatus;
 639:Generated_Source\PSoC5/UART_LOG.c ****         /* Protect variables that could change on interrupt */
 640:Generated_Source\PSoC5/UART_LOG.c ****         UART_LOG_DisableRxInt();
 641:Generated_Source\PSoC5/UART_LOG.c ****         locErrorStatus = (uint16)UART_LOG_errorStatus;
 642:Generated_Source\PSoC5/UART_LOG.c ****         UART_LOG_errorStatus = 0u;
 643:Generated_Source\PSoC5/UART_LOG.c ****         UART_LOG_EnableRxInt();
 644:Generated_Source\PSoC5/UART_LOG.c ****         return ( (uint16)(locErrorStatus << 8u) | UART_LOG_ReadRxData() );
 645:Generated_Source\PSoC5/UART_LOG.c ****     #else
 646:Generated_Source\PSoC5/UART_LOG.c ****         return ( ((uint16)UART_LOG_ReadRxStatus() << 8u) | UART_LOG_ReadRxData() );
 416              		.loc 1 646 0
 417 0002 FFF7FEFF 		bl	UART_LOG_ReadRxStatus
 418              	.LVL25:
 419 0006 0402     		lsls	r4, r0, #8
 420 0008 FFF7FEFF 		bl	UART_LOG_ReadRxData
 421              	.LVL26:
 422 000c 2043     		orrs	r0, r0, r4
 647:Generated_Source\PSoC5/UART_LOG.c ****     #endif /* UART_LOG_RX_INTERRUPT_ENABLED */
 648:Generated_Source\PSoC5/UART_LOG.c ****         
 649:Generated_Source\PSoC5/UART_LOG.c ****     }
 423              		.loc 1 649 0
 424 000e 80B2     		uxth	r0, r0
 425 0010 10BD     		pop	{r4, pc}
 426              		.cfi_endproc
 427              	.LFE10:
 428              		.size	UART_LOG_GetByte, .-UART_LOG_GetByte
ARM GAS  C:\Users\rbhar\AppData\Local\Temp\ccaqTdDy.s 			page 20


 429 0012 00BF     		.section	.text.UART_LOG_GetRxBufferSize,"ax",%progbits
 430              		.align	2
 431              		.global	UART_LOG_GetRxBufferSize
 432              		.thumb
 433              		.thumb_func
 434              		.type	UART_LOG_GetRxBufferSize, %function
 435              	UART_LOG_GetRxBufferSize:
 436              	.LFB11:
 650:Generated_Source\PSoC5/UART_LOG.c **** 
 651:Generated_Source\PSoC5/UART_LOG.c **** 
 652:Generated_Source\PSoC5/UART_LOG.c ****     /*******************************************************************************
 653:Generated_Source\PSoC5/UART_LOG.c ****     * Function Name: UART_LOG_GetRxBufferSize
 654:Generated_Source\PSoC5/UART_LOG.c ****     ********************************************************************************
 655:Generated_Source\PSoC5/UART_LOG.c ****     *
 656:Generated_Source\PSoC5/UART_LOG.c ****     * Summary:
 657:Generated_Source\PSoC5/UART_LOG.c ****     *  Returns the number of received bytes available in the RX buffer.
 658:Generated_Source\PSoC5/UART_LOG.c ****     *  * RX software buffer is disabled (RX Buffer Size parameter is equal to 4): 
 659:Generated_Source\PSoC5/UART_LOG.c ****     *    returns 0 for empty RX FIFO or 1 for not empty RX FIFO.
 660:Generated_Source\PSoC5/UART_LOG.c ****     *  * RX software buffer is enabled: returns the number of bytes available in 
 661:Generated_Source\PSoC5/UART_LOG.c ****     *    the RX software buffer. Bytes available in the RX FIFO do not take to 
 662:Generated_Source\PSoC5/UART_LOG.c ****     *    account.
 663:Generated_Source\PSoC5/UART_LOG.c ****     *
 664:Generated_Source\PSoC5/UART_LOG.c ****     * Parameters:
 665:Generated_Source\PSoC5/UART_LOG.c ****     *  None.
 666:Generated_Source\PSoC5/UART_LOG.c ****     *
 667:Generated_Source\PSoC5/UART_LOG.c ****     * Return:
 668:Generated_Source\PSoC5/UART_LOG.c ****     *  uint8: Number of bytes in the RX buffer. 
 669:Generated_Source\PSoC5/UART_LOG.c ****     *    Return value type depends on RX Buffer Size parameter.
 670:Generated_Source\PSoC5/UART_LOG.c ****     *
 671:Generated_Source\PSoC5/UART_LOG.c ****     * Global Variables:
 672:Generated_Source\PSoC5/UART_LOG.c ****     *  UART_LOG_rxBufferWrite - used to calculate left bytes.
 673:Generated_Source\PSoC5/UART_LOG.c ****     *  UART_LOG_rxBufferRead - used to calculate left bytes.
 674:Generated_Source\PSoC5/UART_LOG.c ****     *  UART_LOG_rxBufferLoopDetect - checked to decide left bytes amount.
 675:Generated_Source\PSoC5/UART_LOG.c ****     *
 676:Generated_Source\PSoC5/UART_LOG.c ****     * Reentrant:
 677:Generated_Source\PSoC5/UART_LOG.c ****     *  No.
 678:Generated_Source\PSoC5/UART_LOG.c ****     *
 679:Generated_Source\PSoC5/UART_LOG.c ****     * Theory:
 680:Generated_Source\PSoC5/UART_LOG.c ****     *  Allows the user to find out how full the RX Buffer is.
 681:Generated_Source\PSoC5/UART_LOG.c ****     *
 682:Generated_Source\PSoC5/UART_LOG.c ****     *******************************************************************************/
 683:Generated_Source\PSoC5/UART_LOG.c ****     uint8 UART_LOG_GetRxBufferSize(void)
 684:Generated_Source\PSoC5/UART_LOG.c ****                                                             
 685:Generated_Source\PSoC5/UART_LOG.c ****     {
 437              		.loc 1 685 0
 438              		.cfi_startproc
 439              		@ args = 0, pretend = 0, frame = 0
 440              		@ frame_needed = 0, uses_anonymous_args = 0
 441              		@ link register save eliminated.
 686:Generated_Source\PSoC5/UART_LOG.c ****         uint8 size;
 687:Generated_Source\PSoC5/UART_LOG.c **** 
 688:Generated_Source\PSoC5/UART_LOG.c ****     #if (UART_LOG_RX_INTERRUPT_ENABLED)
 689:Generated_Source\PSoC5/UART_LOG.c **** 
 690:Generated_Source\PSoC5/UART_LOG.c ****         /* Protect variables that could change on interrupt */
 691:Generated_Source\PSoC5/UART_LOG.c ****         UART_LOG_DisableRxInt();
 692:Generated_Source\PSoC5/UART_LOG.c **** 
 693:Generated_Source\PSoC5/UART_LOG.c ****         if(UART_LOG_rxBufferRead == UART_LOG_rxBufferWrite)
ARM GAS  C:\Users\rbhar\AppData\Local\Temp\ccaqTdDy.s 			page 21


 694:Generated_Source\PSoC5/UART_LOG.c ****         {
 695:Generated_Source\PSoC5/UART_LOG.c ****             if(UART_LOG_rxBufferLoopDetect != 0u)
 696:Generated_Source\PSoC5/UART_LOG.c ****             {
 697:Generated_Source\PSoC5/UART_LOG.c ****                 size = UART_LOG_RX_BUFFER_SIZE;
 698:Generated_Source\PSoC5/UART_LOG.c ****             }
 699:Generated_Source\PSoC5/UART_LOG.c ****             else
 700:Generated_Source\PSoC5/UART_LOG.c ****             {
 701:Generated_Source\PSoC5/UART_LOG.c ****                 size = 0u;
 702:Generated_Source\PSoC5/UART_LOG.c ****             }
 703:Generated_Source\PSoC5/UART_LOG.c ****         }
 704:Generated_Source\PSoC5/UART_LOG.c ****         else if(UART_LOG_rxBufferRead < UART_LOG_rxBufferWrite)
 705:Generated_Source\PSoC5/UART_LOG.c ****         {
 706:Generated_Source\PSoC5/UART_LOG.c ****             size = (UART_LOG_rxBufferWrite - UART_LOG_rxBufferRead);
 707:Generated_Source\PSoC5/UART_LOG.c ****         }
 708:Generated_Source\PSoC5/UART_LOG.c ****         else
 709:Generated_Source\PSoC5/UART_LOG.c ****         {
 710:Generated_Source\PSoC5/UART_LOG.c ****             size = (UART_LOG_RX_BUFFER_SIZE - UART_LOG_rxBufferRead) + UART_LOG_rxBufferWrite;
 711:Generated_Source\PSoC5/UART_LOG.c ****         }
 712:Generated_Source\PSoC5/UART_LOG.c **** 
 713:Generated_Source\PSoC5/UART_LOG.c ****         UART_LOG_EnableRxInt();
 714:Generated_Source\PSoC5/UART_LOG.c **** 
 715:Generated_Source\PSoC5/UART_LOG.c ****     #else
 716:Generated_Source\PSoC5/UART_LOG.c **** 
 717:Generated_Source\PSoC5/UART_LOG.c ****         /* We can only know if there is data in the fifo. */
 718:Generated_Source\PSoC5/UART_LOG.c ****         size = ((UART_LOG_RXSTATUS_REG & UART_LOG_RX_STS_FIFO_NOTEMPTY) != 0u) ? 1u : 0u;
 442              		.loc 1 718 0
 443 0000 044B     		ldr	r3, .L40
 444 0002 1B78     		ldrb	r3, [r3]	@ zero_extendqisi2
 445 0004 13F0200F 		tst	r3, #32
 446 0008 01D0     		beq	.L39
 447 000a 0120     		movs	r0, #1
 448 000c 7047     		bx	lr
 449              	.L39:
 450 000e 0020     		movs	r0, #0
 451              	.LVL27:
 719:Generated_Source\PSoC5/UART_LOG.c **** 
 720:Generated_Source\PSoC5/UART_LOG.c ****     #endif /* (UART_LOG_RX_INTERRUPT_ENABLED) */
 721:Generated_Source\PSoC5/UART_LOG.c **** 
 722:Generated_Source\PSoC5/UART_LOG.c ****         return(size);
 723:Generated_Source\PSoC5/UART_LOG.c ****     }
 452              		.loc 1 723 0
 453 0010 7047     		bx	lr
 454              	.L41:
 455 0012 00BF     		.align	2
 456              	.L40:
 457 0014 61640040 		.word	1073767521
 458              		.cfi_endproc
 459              	.LFE11:
 460              		.size	UART_LOG_GetRxBufferSize, .-UART_LOG_GetRxBufferSize
 461              		.section	.text.UART_LOG_ClearRxBuffer,"ax",%progbits
 462              		.align	2
 463              		.global	UART_LOG_ClearRxBuffer
 464              		.thumb
 465              		.thumb_func
 466              		.type	UART_LOG_ClearRxBuffer, %function
 467              	UART_LOG_ClearRxBuffer:
 468              	.LFB12:
ARM GAS  C:\Users\rbhar\AppData\Local\Temp\ccaqTdDy.s 			page 22


 724:Generated_Source\PSoC5/UART_LOG.c **** 
 725:Generated_Source\PSoC5/UART_LOG.c **** 
 726:Generated_Source\PSoC5/UART_LOG.c ****     /*******************************************************************************
 727:Generated_Source\PSoC5/UART_LOG.c ****     * Function Name: UART_LOG_ClearRxBuffer
 728:Generated_Source\PSoC5/UART_LOG.c ****     ********************************************************************************
 729:Generated_Source\PSoC5/UART_LOG.c ****     *
 730:Generated_Source\PSoC5/UART_LOG.c ****     * Summary:
 731:Generated_Source\PSoC5/UART_LOG.c ****     *  Clears the receiver memory buffer and hardware RX FIFO of all received data.
 732:Generated_Source\PSoC5/UART_LOG.c ****     *
 733:Generated_Source\PSoC5/UART_LOG.c ****     * Parameters:
 734:Generated_Source\PSoC5/UART_LOG.c ****     *  None.
 735:Generated_Source\PSoC5/UART_LOG.c ****     *
 736:Generated_Source\PSoC5/UART_LOG.c ****     * Return:
 737:Generated_Source\PSoC5/UART_LOG.c ****     *  None.
 738:Generated_Source\PSoC5/UART_LOG.c ****     *
 739:Generated_Source\PSoC5/UART_LOG.c ****     * Global Variables:
 740:Generated_Source\PSoC5/UART_LOG.c ****     *  UART_LOG_rxBufferWrite - cleared to zero.
 741:Generated_Source\PSoC5/UART_LOG.c ****     *  UART_LOG_rxBufferRead - cleared to zero.
 742:Generated_Source\PSoC5/UART_LOG.c ****     *  UART_LOG_rxBufferLoopDetect - cleared to zero.
 743:Generated_Source\PSoC5/UART_LOG.c ****     *  UART_LOG_rxBufferOverflow - cleared to zero.
 744:Generated_Source\PSoC5/UART_LOG.c ****     *
 745:Generated_Source\PSoC5/UART_LOG.c ****     * Reentrant:
 746:Generated_Source\PSoC5/UART_LOG.c ****     *  No.
 747:Generated_Source\PSoC5/UART_LOG.c ****     *
 748:Generated_Source\PSoC5/UART_LOG.c ****     * Theory:
 749:Generated_Source\PSoC5/UART_LOG.c ****     *  Setting the pointers to zero makes the system believe there is no data to
 750:Generated_Source\PSoC5/UART_LOG.c ****     *  read and writing will resume at address 0 overwriting any data that may
 751:Generated_Source\PSoC5/UART_LOG.c ****     *  have remained in the RAM.
 752:Generated_Source\PSoC5/UART_LOG.c ****     *
 753:Generated_Source\PSoC5/UART_LOG.c ****     * Side Effects:
 754:Generated_Source\PSoC5/UART_LOG.c ****     *  Any received data not read from the RAM or FIFO buffer will be lost.
 755:Generated_Source\PSoC5/UART_LOG.c ****     *
 756:Generated_Source\PSoC5/UART_LOG.c ****     *******************************************************************************/
 757:Generated_Source\PSoC5/UART_LOG.c ****     void UART_LOG_ClearRxBuffer(void) 
 758:Generated_Source\PSoC5/UART_LOG.c ****     {
 469              		.loc 1 758 0
 470              		.cfi_startproc
 471              		@ args = 0, pretend = 0, frame = 0
 472              		@ frame_needed = 0, uses_anonymous_args = 0
 473 0000 08B5     		push	{r3, lr}
 474              		.cfi_def_cfa_offset 8
 475              		.cfi_offset 3, -8
 476              		.cfi_offset 14, -4
 759:Generated_Source\PSoC5/UART_LOG.c ****         uint8 enableInterrupts;
 760:Generated_Source\PSoC5/UART_LOG.c **** 
 761:Generated_Source\PSoC5/UART_LOG.c ****         /* Clear the HW FIFO */
 762:Generated_Source\PSoC5/UART_LOG.c ****         enableInterrupts = CyEnterCriticalSection();
 477              		.loc 1 762 0
 478 0002 FFF7FEFF 		bl	CyEnterCriticalSection
 479              	.LVL28:
 763:Generated_Source\PSoC5/UART_LOG.c ****         UART_LOG_RXDATA_AUX_CTL_REG |= (uint8)  UART_LOG_RX_FIFO_CLR;
 480              		.loc 1 763 0
 481 0006 064B     		ldr	r3, .L44
 482 0008 1A78     		ldrb	r2, [r3]	@ zero_extendqisi2
 483 000a 42F00102 		orr	r2, r2, #1
 484 000e 1A70     		strb	r2, [r3]
 764:Generated_Source\PSoC5/UART_LOG.c ****         UART_LOG_RXDATA_AUX_CTL_REG &= (uint8) ~UART_LOG_RX_FIFO_CLR;
ARM GAS  C:\Users\rbhar\AppData\Local\Temp\ccaqTdDy.s 			page 23


 485              		.loc 1 764 0
 486 0010 1A78     		ldrb	r2, [r3]	@ zero_extendqisi2
 487 0012 02F0FE02 		and	r2, r2, #254
 488 0016 1A70     		strb	r2, [r3]
 765:Generated_Source\PSoC5/UART_LOG.c ****         CyExitCriticalSection(enableInterrupts);
 489              		.loc 1 765 0
 490 0018 FFF7FEFF 		bl	CyExitCriticalSection
 491              	.LVL29:
 492 001c 08BD     		pop	{r3, pc}
 493              	.L45:
 494 001e 00BF     		.align	2
 495              	.L44:
 496 0020 92640040 		.word	1073767570
 497              		.cfi_endproc
 498              	.LFE12:
 499              		.size	UART_LOG_ClearRxBuffer, .-UART_LOG_ClearRxBuffer
 500              		.section	.text.UART_LOG_SetRxAddressMode,"ax",%progbits
 501              		.align	2
 502              		.global	UART_LOG_SetRxAddressMode
 503              		.thumb
 504              		.thumb_func
 505              		.type	UART_LOG_SetRxAddressMode, %function
 506              	UART_LOG_SetRxAddressMode:
 507              	.LFB13:
 766:Generated_Source\PSoC5/UART_LOG.c **** 
 767:Generated_Source\PSoC5/UART_LOG.c ****     #if (UART_LOG_RX_INTERRUPT_ENABLED)
 768:Generated_Source\PSoC5/UART_LOG.c **** 
 769:Generated_Source\PSoC5/UART_LOG.c ****         /* Protect variables that could change on interrupt. */
 770:Generated_Source\PSoC5/UART_LOG.c ****         UART_LOG_DisableRxInt();
 771:Generated_Source\PSoC5/UART_LOG.c **** 
 772:Generated_Source\PSoC5/UART_LOG.c ****         UART_LOG_rxBufferRead = 0u;
 773:Generated_Source\PSoC5/UART_LOG.c ****         UART_LOG_rxBufferWrite = 0u;
 774:Generated_Source\PSoC5/UART_LOG.c ****         UART_LOG_rxBufferLoopDetect = 0u;
 775:Generated_Source\PSoC5/UART_LOG.c ****         UART_LOG_rxBufferOverflow = 0u;
 776:Generated_Source\PSoC5/UART_LOG.c **** 
 777:Generated_Source\PSoC5/UART_LOG.c ****         UART_LOG_EnableRxInt();
 778:Generated_Source\PSoC5/UART_LOG.c **** 
 779:Generated_Source\PSoC5/UART_LOG.c ****     #endif /* (UART_LOG_RX_INTERRUPT_ENABLED) */
 780:Generated_Source\PSoC5/UART_LOG.c **** 
 781:Generated_Source\PSoC5/UART_LOG.c ****     }
 782:Generated_Source\PSoC5/UART_LOG.c **** 
 783:Generated_Source\PSoC5/UART_LOG.c **** 
 784:Generated_Source\PSoC5/UART_LOG.c ****     /*******************************************************************************
 785:Generated_Source\PSoC5/UART_LOG.c ****     * Function Name: UART_LOG_SetRxAddressMode
 786:Generated_Source\PSoC5/UART_LOG.c ****     ********************************************************************************
 787:Generated_Source\PSoC5/UART_LOG.c ****     *
 788:Generated_Source\PSoC5/UART_LOG.c ****     * Summary:
 789:Generated_Source\PSoC5/UART_LOG.c ****     *  Sets the software controlled Addressing mode used by the RX portion of the
 790:Generated_Source\PSoC5/UART_LOG.c ****     *  UART.
 791:Generated_Source\PSoC5/UART_LOG.c ****     *
 792:Generated_Source\PSoC5/UART_LOG.c ****     * Parameters:
 793:Generated_Source\PSoC5/UART_LOG.c ****     *  addressMode: Enumerated value indicating the mode of RX addressing
 794:Generated_Source\PSoC5/UART_LOG.c ****     *  UART_LOG__B_UART__AM_SW_BYTE_BYTE -  Software Byte-by-Byte address
 795:Generated_Source\PSoC5/UART_LOG.c ****     *                                               detection
 796:Generated_Source\PSoC5/UART_LOG.c ****     *  UART_LOG__B_UART__AM_SW_DETECT_TO_BUFFER - Software Detect to Buffer
 797:Generated_Source\PSoC5/UART_LOG.c ****     *                                               address detection
 798:Generated_Source\PSoC5/UART_LOG.c ****     *  UART_LOG__B_UART__AM_HW_BYTE_BY_BYTE - Hardware Byte-by-Byte address
ARM GAS  C:\Users\rbhar\AppData\Local\Temp\ccaqTdDy.s 			page 24


 799:Generated_Source\PSoC5/UART_LOG.c ****     *                                               detection
 800:Generated_Source\PSoC5/UART_LOG.c ****     *  UART_LOG__B_UART__AM_HW_DETECT_TO_BUFFER - Hardware Detect to Buffer
 801:Generated_Source\PSoC5/UART_LOG.c ****     *                                               address detection
 802:Generated_Source\PSoC5/UART_LOG.c ****     *  UART_LOG__B_UART__AM_NONE - No address detection
 803:Generated_Source\PSoC5/UART_LOG.c ****     *
 804:Generated_Source\PSoC5/UART_LOG.c ****     * Return:
 805:Generated_Source\PSoC5/UART_LOG.c ****     *  None.
 806:Generated_Source\PSoC5/UART_LOG.c ****     *
 807:Generated_Source\PSoC5/UART_LOG.c ****     * Global Variables:
 808:Generated_Source\PSoC5/UART_LOG.c ****     *  UART_LOG_rxAddressMode - the parameter stored in this variable for
 809:Generated_Source\PSoC5/UART_LOG.c ****     *   the farther usage in RX ISR.
 810:Generated_Source\PSoC5/UART_LOG.c ****     *  UART_LOG_rxAddressDetected - set to initial state (0).
 811:Generated_Source\PSoC5/UART_LOG.c ****     *
 812:Generated_Source\PSoC5/UART_LOG.c ****     *******************************************************************************/
 813:Generated_Source\PSoC5/UART_LOG.c ****     void UART_LOG_SetRxAddressMode(uint8 addressMode)
 814:Generated_Source\PSoC5/UART_LOG.c ****                                                         
 815:Generated_Source\PSoC5/UART_LOG.c ****     {
 508              		.loc 1 815 0
 509              		.cfi_startproc
 510              		@ args = 0, pretend = 0, frame = 0
 511              		@ frame_needed = 0, uses_anonymous_args = 0
 512              		@ link register save eliminated.
 513              	.LVL30:
 514 0000 7047     		bx	lr
 515              		.cfi_endproc
 516              	.LFE13:
 517              		.size	UART_LOG_SetRxAddressMode, .-UART_LOG_SetRxAddressMode
 518 0002 00BF     		.section	.text.UART_LOG_SetRxAddress1,"ax",%progbits
 519              		.align	2
 520              		.global	UART_LOG_SetRxAddress1
 521              		.thumb
 522              		.thumb_func
 523              		.type	UART_LOG_SetRxAddress1, %function
 524              	UART_LOG_SetRxAddress1:
 525              	.LFB14:
 816:Generated_Source\PSoC5/UART_LOG.c ****         #if(UART_LOG_RXHW_ADDRESS_ENABLED)
 817:Generated_Source\PSoC5/UART_LOG.c ****             #if(UART_LOG_CONTROL_REG_REMOVED)
 818:Generated_Source\PSoC5/UART_LOG.c ****                 if(0u != addressMode)
 819:Generated_Source\PSoC5/UART_LOG.c ****                 {
 820:Generated_Source\PSoC5/UART_LOG.c ****                     /* Suppress compiler warning */
 821:Generated_Source\PSoC5/UART_LOG.c ****                 }
 822:Generated_Source\PSoC5/UART_LOG.c ****             #else /* UART_LOG_CONTROL_REG_REMOVED */
 823:Generated_Source\PSoC5/UART_LOG.c ****                 uint8 tmpCtrl;
 824:Generated_Source\PSoC5/UART_LOG.c ****                 tmpCtrl = UART_LOG_CONTROL_REG & (uint8)~UART_LOG_CTRL_RXADDR_MODE_MASK;
 825:Generated_Source\PSoC5/UART_LOG.c ****                 tmpCtrl |= (uint8)(addressMode << UART_LOG_CTRL_RXADDR_MODE0_SHIFT);
 826:Generated_Source\PSoC5/UART_LOG.c ****                 UART_LOG_CONTROL_REG = tmpCtrl;
 827:Generated_Source\PSoC5/UART_LOG.c **** 
 828:Generated_Source\PSoC5/UART_LOG.c ****                 #if(UART_LOG_RX_INTERRUPT_ENABLED && \
 829:Generated_Source\PSoC5/UART_LOG.c ****                    (UART_LOG_RXBUFFERSIZE > UART_LOG_FIFO_LENGTH) )
 830:Generated_Source\PSoC5/UART_LOG.c ****                     UART_LOG_rxAddressMode = addressMode;
 831:Generated_Source\PSoC5/UART_LOG.c ****                     UART_LOG_rxAddressDetected = 0u;
 832:Generated_Source\PSoC5/UART_LOG.c ****                 #endif /* End UART_LOG_RXBUFFERSIZE > UART_LOG_FIFO_LENGTH*/
 833:Generated_Source\PSoC5/UART_LOG.c ****             #endif /* End UART_LOG_CONTROL_REG_REMOVED */
 834:Generated_Source\PSoC5/UART_LOG.c ****         #else /* UART_LOG_RXHW_ADDRESS_ENABLED */
 835:Generated_Source\PSoC5/UART_LOG.c ****             if(0u != addressMode)
 836:Generated_Source\PSoC5/UART_LOG.c ****             {
 837:Generated_Source\PSoC5/UART_LOG.c ****                 /* Suppress compiler warning */
ARM GAS  C:\Users\rbhar\AppData\Local\Temp\ccaqTdDy.s 			page 25


 838:Generated_Source\PSoC5/UART_LOG.c ****             }
 839:Generated_Source\PSoC5/UART_LOG.c ****         #endif /* End UART_LOG_RXHW_ADDRESS_ENABLED */
 840:Generated_Source\PSoC5/UART_LOG.c ****     }
 841:Generated_Source\PSoC5/UART_LOG.c **** 
 842:Generated_Source\PSoC5/UART_LOG.c **** 
 843:Generated_Source\PSoC5/UART_LOG.c ****     /*******************************************************************************
 844:Generated_Source\PSoC5/UART_LOG.c ****     * Function Name: UART_LOG_SetRxAddress1
 845:Generated_Source\PSoC5/UART_LOG.c ****     ********************************************************************************
 846:Generated_Source\PSoC5/UART_LOG.c ****     *
 847:Generated_Source\PSoC5/UART_LOG.c ****     * Summary:
 848:Generated_Source\PSoC5/UART_LOG.c ****     *  Sets the first of two hardware-detectable receiver addresses.
 849:Generated_Source\PSoC5/UART_LOG.c ****     *
 850:Generated_Source\PSoC5/UART_LOG.c ****     * Parameters:
 851:Generated_Source\PSoC5/UART_LOG.c ****     *  address: Address #1 for hardware address detection.
 852:Generated_Source\PSoC5/UART_LOG.c ****     *
 853:Generated_Source\PSoC5/UART_LOG.c ****     * Return:
 854:Generated_Source\PSoC5/UART_LOG.c ****     *  None.
 855:Generated_Source\PSoC5/UART_LOG.c ****     *
 856:Generated_Source\PSoC5/UART_LOG.c ****     *******************************************************************************/
 857:Generated_Source\PSoC5/UART_LOG.c ****     void UART_LOG_SetRxAddress1(uint8 address) 
 858:Generated_Source\PSoC5/UART_LOG.c ****     {
 526              		.loc 1 858 0
 527              		.cfi_startproc
 528              		@ args = 0, pretend = 0, frame = 0
 529              		@ frame_needed = 0, uses_anonymous_args = 0
 530              		@ link register save eliminated.
 531              	.LVL31:
 859:Generated_Source\PSoC5/UART_LOG.c ****         UART_LOG_RXADDRESS1_REG = address;
 532              		.loc 1 859 0
 533 0000 014B     		ldr	r3, .L48
 534 0002 1870     		strb	r0, [r3]
 535 0004 7047     		bx	lr
 536              	.L49:
 537 0006 00BF     		.align	2
 538              	.L48:
 539 0008 22640040 		.word	1073767458
 540              		.cfi_endproc
 541              	.LFE14:
 542              		.size	UART_LOG_SetRxAddress1, .-UART_LOG_SetRxAddress1
 543              		.section	.text.UART_LOG_SetRxAddress2,"ax",%progbits
 544              		.align	2
 545              		.global	UART_LOG_SetRxAddress2
 546              		.thumb
 547              		.thumb_func
 548              		.type	UART_LOG_SetRxAddress2, %function
 549              	UART_LOG_SetRxAddress2:
 550              	.LFB15:
 860:Generated_Source\PSoC5/UART_LOG.c ****     }
 861:Generated_Source\PSoC5/UART_LOG.c **** 
 862:Generated_Source\PSoC5/UART_LOG.c **** 
 863:Generated_Source\PSoC5/UART_LOG.c ****     /*******************************************************************************
 864:Generated_Source\PSoC5/UART_LOG.c ****     * Function Name: UART_LOG_SetRxAddress2
 865:Generated_Source\PSoC5/UART_LOG.c ****     ********************************************************************************
 866:Generated_Source\PSoC5/UART_LOG.c ****     *
 867:Generated_Source\PSoC5/UART_LOG.c ****     * Summary:
 868:Generated_Source\PSoC5/UART_LOG.c ****     *  Sets the second of two hardware-detectable receiver addresses.
 869:Generated_Source\PSoC5/UART_LOG.c ****     *
ARM GAS  C:\Users\rbhar\AppData\Local\Temp\ccaqTdDy.s 			page 26


 870:Generated_Source\PSoC5/UART_LOG.c ****     * Parameters:
 871:Generated_Source\PSoC5/UART_LOG.c ****     *  address: Address #2 for hardware address detection.
 872:Generated_Source\PSoC5/UART_LOG.c ****     *
 873:Generated_Source\PSoC5/UART_LOG.c ****     * Return:
 874:Generated_Source\PSoC5/UART_LOG.c ****     *  None.
 875:Generated_Source\PSoC5/UART_LOG.c ****     *
 876:Generated_Source\PSoC5/UART_LOG.c ****     *******************************************************************************/
 877:Generated_Source\PSoC5/UART_LOG.c ****     void UART_LOG_SetRxAddress2(uint8 address) 
 878:Generated_Source\PSoC5/UART_LOG.c ****     {
 551              		.loc 1 878 0
 552              		.cfi_startproc
 553              		@ args = 0, pretend = 0, frame = 0
 554              		@ frame_needed = 0, uses_anonymous_args = 0
 555              		@ link register save eliminated.
 556              	.LVL32:
 879:Generated_Source\PSoC5/UART_LOG.c ****         UART_LOG_RXADDRESS2_REG = address;
 557              		.loc 1 879 0
 558 0000 014B     		ldr	r3, .L51
 559 0002 1870     		strb	r0, [r3]
 560 0004 7047     		bx	lr
 561              	.L52:
 562 0006 00BF     		.align	2
 563              	.L51:
 564 0008 32640040 		.word	1073767474
 565              		.cfi_endproc
 566              	.LFE15:
 567              		.size	UART_LOG_SetRxAddress2, .-UART_LOG_SetRxAddress2
 568              		.section	.text.UART_LOG_SetTxInterruptMode,"ax",%progbits
 569              		.align	2
 570              		.global	UART_LOG_SetTxInterruptMode
 571              		.thumb
 572              		.thumb_func
 573              		.type	UART_LOG_SetTxInterruptMode, %function
 574              	UART_LOG_SetTxInterruptMode:
 575              	.LFB16:
 880:Generated_Source\PSoC5/UART_LOG.c ****     }
 881:Generated_Source\PSoC5/UART_LOG.c **** 
 882:Generated_Source\PSoC5/UART_LOG.c **** #endif  /* UART_LOG_RX_ENABLED || UART_LOG_HD_ENABLED*/
 883:Generated_Source\PSoC5/UART_LOG.c **** 
 884:Generated_Source\PSoC5/UART_LOG.c **** 
 885:Generated_Source\PSoC5/UART_LOG.c **** #if( (UART_LOG_TX_ENABLED) || (UART_LOG_HD_ENABLED) )
 886:Generated_Source\PSoC5/UART_LOG.c ****     /*******************************************************************************
 887:Generated_Source\PSoC5/UART_LOG.c ****     * Function Name: UART_LOG_SetTxInterruptMode
 888:Generated_Source\PSoC5/UART_LOG.c ****     ********************************************************************************
 889:Generated_Source\PSoC5/UART_LOG.c ****     *
 890:Generated_Source\PSoC5/UART_LOG.c ****     * Summary:
 891:Generated_Source\PSoC5/UART_LOG.c ****     *  Configures the TX interrupt sources to be enabled, but does not enable the
 892:Generated_Source\PSoC5/UART_LOG.c ****     *  interrupt.
 893:Generated_Source\PSoC5/UART_LOG.c ****     *
 894:Generated_Source\PSoC5/UART_LOG.c ****     * Parameters:
 895:Generated_Source\PSoC5/UART_LOG.c ****     *  intSrc: Bit field containing the TX interrupt sources to enable
 896:Generated_Source\PSoC5/UART_LOG.c ****     *   UART_LOG_TX_STS_COMPLETE        Interrupt on TX byte complete
 897:Generated_Source\PSoC5/UART_LOG.c ****     *   UART_LOG_TX_STS_FIFO_EMPTY      Interrupt when TX FIFO is empty
 898:Generated_Source\PSoC5/UART_LOG.c ****     *   UART_LOG_TX_STS_FIFO_FULL       Interrupt when TX FIFO is full
 899:Generated_Source\PSoC5/UART_LOG.c ****     *   UART_LOG_TX_STS_FIFO_NOT_FULL   Interrupt when TX FIFO is not full
 900:Generated_Source\PSoC5/UART_LOG.c ****     *
 901:Generated_Source\PSoC5/UART_LOG.c ****     * Return:
ARM GAS  C:\Users\rbhar\AppData\Local\Temp\ccaqTdDy.s 			page 27


 902:Generated_Source\PSoC5/UART_LOG.c ****     *  None.
 903:Generated_Source\PSoC5/UART_LOG.c ****     *
 904:Generated_Source\PSoC5/UART_LOG.c ****     * Theory:
 905:Generated_Source\PSoC5/UART_LOG.c ****     *  Enables the output of specific status bits to the interrupt controller
 906:Generated_Source\PSoC5/UART_LOG.c ****     *
 907:Generated_Source\PSoC5/UART_LOG.c ****     *******************************************************************************/
 908:Generated_Source\PSoC5/UART_LOG.c ****     void UART_LOG_SetTxInterruptMode(uint8 intSrc) 
 909:Generated_Source\PSoC5/UART_LOG.c ****     {
 576              		.loc 1 909 0
 577              		.cfi_startproc
 578              		@ args = 0, pretend = 0, frame = 0
 579              		@ frame_needed = 0, uses_anonymous_args = 0
 580              		@ link register save eliminated.
 581              	.LVL33:
 910:Generated_Source\PSoC5/UART_LOG.c ****         UART_LOG_TXSTATUS_MASK_REG = intSrc;
 582              		.loc 1 910 0
 583 0000 014B     		ldr	r3, .L54
 584 0002 1870     		strb	r0, [r3]
 585 0004 7047     		bx	lr
 586              	.L55:
 587 0006 00BF     		.align	2
 588              	.L54:
 589 0008 83640040 		.word	1073767555
 590              		.cfi_endproc
 591              	.LFE16:
 592              		.size	UART_LOG_SetTxInterruptMode, .-UART_LOG_SetTxInterruptMode
 593              		.section	.text.UART_LOG_WriteTxData,"ax",%progbits
 594              		.align	2
 595              		.global	UART_LOG_WriteTxData
 596              		.thumb
 597              		.thumb_func
 598              		.type	UART_LOG_WriteTxData, %function
 599              	UART_LOG_WriteTxData:
 600              	.LFB17:
 911:Generated_Source\PSoC5/UART_LOG.c ****     }
 912:Generated_Source\PSoC5/UART_LOG.c **** 
 913:Generated_Source\PSoC5/UART_LOG.c **** 
 914:Generated_Source\PSoC5/UART_LOG.c ****     /*******************************************************************************
 915:Generated_Source\PSoC5/UART_LOG.c ****     * Function Name: UART_LOG_WriteTxData
 916:Generated_Source\PSoC5/UART_LOG.c ****     ********************************************************************************
 917:Generated_Source\PSoC5/UART_LOG.c ****     *
 918:Generated_Source\PSoC5/UART_LOG.c ****     * Summary:
 919:Generated_Source\PSoC5/UART_LOG.c ****     *  Places a byte of data into the transmit buffer to be sent when the bus is
 920:Generated_Source\PSoC5/UART_LOG.c ****     *  available without checking the TX status register. You must check status
 921:Generated_Source\PSoC5/UART_LOG.c ****     *  separately.
 922:Generated_Source\PSoC5/UART_LOG.c ****     *
 923:Generated_Source\PSoC5/UART_LOG.c ****     * Parameters:
 924:Generated_Source\PSoC5/UART_LOG.c ****     *  txDataByte: data byte
 925:Generated_Source\PSoC5/UART_LOG.c ****     *
 926:Generated_Source\PSoC5/UART_LOG.c ****     * Return:
 927:Generated_Source\PSoC5/UART_LOG.c ****     * None.
 928:Generated_Source\PSoC5/UART_LOG.c ****     *
 929:Generated_Source\PSoC5/UART_LOG.c ****     * Global Variables:
 930:Generated_Source\PSoC5/UART_LOG.c ****     *  UART_LOG_txBuffer - RAM buffer pointer for save data for transmission
 931:Generated_Source\PSoC5/UART_LOG.c ****     *  UART_LOG_txBufferWrite - cyclic index for write to txBuffer,
 932:Generated_Source\PSoC5/UART_LOG.c ****     *    incremented after each byte saved to buffer.
 933:Generated_Source\PSoC5/UART_LOG.c ****     *  UART_LOG_txBufferRead - cyclic index for read from txBuffer,
ARM GAS  C:\Users\rbhar\AppData\Local\Temp\ccaqTdDy.s 			page 28


 934:Generated_Source\PSoC5/UART_LOG.c ****     *    checked to identify the condition to write to FIFO directly or to TX buffer
 935:Generated_Source\PSoC5/UART_LOG.c ****     *  UART_LOG_initVar - checked to identify that the component has been
 936:Generated_Source\PSoC5/UART_LOG.c ****     *    initialized.
 937:Generated_Source\PSoC5/UART_LOG.c ****     *
 938:Generated_Source\PSoC5/UART_LOG.c ****     * Reentrant:
 939:Generated_Source\PSoC5/UART_LOG.c ****     *  No.
 940:Generated_Source\PSoC5/UART_LOG.c ****     *
 941:Generated_Source\PSoC5/UART_LOG.c ****     *******************************************************************************/
 942:Generated_Source\PSoC5/UART_LOG.c ****     void UART_LOG_WriteTxData(uint8 txDataByte) 
 943:Generated_Source\PSoC5/UART_LOG.c ****     {
 601              		.loc 1 943 0
 602              		.cfi_startproc
 603              		@ args = 0, pretend = 0, frame = 0
 604              		@ frame_needed = 0, uses_anonymous_args = 0
 605              		@ link register save eliminated.
 606              	.LVL34:
 944:Generated_Source\PSoC5/UART_LOG.c ****         /* If not Initialized then skip this function*/
 945:Generated_Source\PSoC5/UART_LOG.c ****         if(UART_LOG_initVar != 0u)
 607              		.loc 1 945 0
 608 0000 114B     		ldr	r3, .L61
 609 0002 1B78     		ldrb	r3, [r3]	@ zero_extendqisi2
 610 0004 F3B1     		cbz	r3, .L56
 946:Generated_Source\PSoC5/UART_LOG.c ****         {
 947:Generated_Source\PSoC5/UART_LOG.c ****         #if (UART_LOG_TX_INTERRUPT_ENABLED)
 948:Generated_Source\PSoC5/UART_LOG.c **** 
 949:Generated_Source\PSoC5/UART_LOG.c ****             /* Protect variables that could change on interrupt. */
 950:Generated_Source\PSoC5/UART_LOG.c ****             UART_LOG_DisableTxInt();
 611              		.loc 1 950 0
 612 0006 0122     		movs	r2, #1
 613 0008 104B     		ldr	r3, .L61+4
 614 000a 1A60     		str	r2, [r3]
 951:Generated_Source\PSoC5/UART_LOG.c **** 
 952:Generated_Source\PSoC5/UART_LOG.c ****             if( (UART_LOG_txBufferRead == UART_LOG_txBufferWrite) &&
 615              		.loc 1 952 0
 616 000c 0E4A     		ldr	r2, .L61
 617 000e 5378     		ldrb	r3, [r2, #1]	@ zero_extendqisi2
 618 0010 DBB2     		uxtb	r3, r3
 619 0012 9278     		ldrb	r2, [r2, #2]	@ zero_extendqisi2
 620 0014 9342     		cmp	r3, r2
 621 0016 07D1     		bne	.L58
 953:Generated_Source\PSoC5/UART_LOG.c ****                 ((UART_LOG_TXSTATUS_REG & UART_LOG_TX_STS_FIFO_FULL) == 0u) )
 622              		.loc 1 953 0 discriminator 1
 623 0018 0D4B     		ldr	r3, .L61+8
 624 001a 1B78     		ldrb	r3, [r3]	@ zero_extendqisi2
 952:Generated_Source\PSoC5/UART_LOG.c ****                 ((UART_LOG_TXSTATUS_REG & UART_LOG_TX_STS_FIFO_FULL) == 0u) )
 625              		.loc 1 952 0 discriminator 1
 626 001c 13F0040F 		tst	r3, #4
 627 0020 02D1     		bne	.L58
 954:Generated_Source\PSoC5/UART_LOG.c ****             {
 955:Generated_Source\PSoC5/UART_LOG.c ****                 /* Add directly to the FIFO. */
 956:Generated_Source\PSoC5/UART_LOG.c ****                 UART_LOG_TXDATA_REG = txDataByte;
 628              		.loc 1 956 0
 629 0022 0C4B     		ldr	r3, .L61+12
 630 0024 1870     		strb	r0, [r3]
 631 0026 0AE0     		b	.L59
 632              	.L58:
 957:Generated_Source\PSoC5/UART_LOG.c ****             }
ARM GAS  C:\Users\rbhar\AppData\Local\Temp\ccaqTdDy.s 			page 29


 958:Generated_Source\PSoC5/UART_LOG.c ****             else
 959:Generated_Source\PSoC5/UART_LOG.c ****             {
 960:Generated_Source\PSoC5/UART_LOG.c ****                 if(UART_LOG_txBufferWrite >= UART_LOG_TX_BUFFER_SIZE)
 633              		.loc 1 960 0
 634 0028 0F2A     		cmp	r2, #15
 635 002a 02D9     		bls	.L60
 961:Generated_Source\PSoC5/UART_LOG.c ****                 {
 962:Generated_Source\PSoC5/UART_LOG.c ****                     UART_LOG_txBufferWrite = 0u;
 636              		.loc 1 962 0
 637 002c 0022     		movs	r2, #0
 638 002e 064B     		ldr	r3, .L61
 639 0030 9A70     		strb	r2, [r3, #2]
 640              	.L60:
 963:Generated_Source\PSoC5/UART_LOG.c ****                 }
 964:Generated_Source\PSoC5/UART_LOG.c **** 
 965:Generated_Source\PSoC5/UART_LOG.c ****                 UART_LOG_txBuffer[UART_LOG_txBufferWrite] = txDataByte;
 641              		.loc 1 965 0
 642 0032 054A     		ldr	r2, .L61
 643 0034 9378     		ldrb	r3, [r2, #2]	@ zero_extendqisi2
 644 0036 0849     		ldr	r1, .L61+16
 645 0038 C854     		strb	r0, [r1, r3]
 966:Generated_Source\PSoC5/UART_LOG.c **** 
 967:Generated_Source\PSoC5/UART_LOG.c ****                 /* Add to the software buffer. */
 968:Generated_Source\PSoC5/UART_LOG.c ****                 UART_LOG_txBufferWrite++;
 646              		.loc 1 968 0
 647 003a 0133     		adds	r3, r3, #1
 648 003c 9370     		strb	r3, [r2, #2]
 649              	.L59:
 969:Generated_Source\PSoC5/UART_LOG.c ****             }
 970:Generated_Source\PSoC5/UART_LOG.c **** 
 971:Generated_Source\PSoC5/UART_LOG.c ****             UART_LOG_EnableTxInt();
 650              		.loc 1 971 0
 651 003e 0122     		movs	r2, #1
 652 0040 064B     		ldr	r3, .L61+20
 653 0042 1A60     		str	r2, [r3]
 654              	.L56:
 655 0044 7047     		bx	lr
 656              	.L62:
 657 0046 00BF     		.align	2
 658              	.L61:
 659 0048 00000000 		.word	.LANCHOR0
 660 004c 80E100E0 		.word	-536813184
 661 0050 63640040 		.word	1073767523
 662 0054 40640040 		.word	1073767488
 663 0058 00000000 		.word	UART_LOG_txBuffer
 664 005c 00E100E0 		.word	-536813312
 665              		.cfi_endproc
 666              	.LFE17:
 667              		.size	UART_LOG_WriteTxData, .-UART_LOG_WriteTxData
 668              		.section	.text.UART_LOG_ReadTxStatus,"ax",%progbits
 669              		.align	2
 670              		.global	UART_LOG_ReadTxStatus
 671              		.thumb
 672              		.thumb_func
 673              		.type	UART_LOG_ReadTxStatus, %function
 674              	UART_LOG_ReadTxStatus:
 675              	.LFB18:
ARM GAS  C:\Users\rbhar\AppData\Local\Temp\ccaqTdDy.s 			page 30


 972:Generated_Source\PSoC5/UART_LOG.c **** 
 973:Generated_Source\PSoC5/UART_LOG.c ****         #else
 974:Generated_Source\PSoC5/UART_LOG.c **** 
 975:Generated_Source\PSoC5/UART_LOG.c ****             /* Add directly to the FIFO. */
 976:Generated_Source\PSoC5/UART_LOG.c ****             UART_LOG_TXDATA_REG = txDataByte;
 977:Generated_Source\PSoC5/UART_LOG.c **** 
 978:Generated_Source\PSoC5/UART_LOG.c ****         #endif /*(UART_LOG_TX_INTERRUPT_ENABLED) */
 979:Generated_Source\PSoC5/UART_LOG.c ****         }
 980:Generated_Source\PSoC5/UART_LOG.c ****     }
 981:Generated_Source\PSoC5/UART_LOG.c **** 
 982:Generated_Source\PSoC5/UART_LOG.c **** 
 983:Generated_Source\PSoC5/UART_LOG.c ****     /*******************************************************************************
 984:Generated_Source\PSoC5/UART_LOG.c ****     * Function Name: UART_LOG_ReadTxStatus
 985:Generated_Source\PSoC5/UART_LOG.c ****     ********************************************************************************
 986:Generated_Source\PSoC5/UART_LOG.c ****     *
 987:Generated_Source\PSoC5/UART_LOG.c ****     * Summary:
 988:Generated_Source\PSoC5/UART_LOG.c ****     *  Reads the status register for the TX portion of the UART.
 989:Generated_Source\PSoC5/UART_LOG.c ****     *
 990:Generated_Source\PSoC5/UART_LOG.c ****     * Parameters:
 991:Generated_Source\PSoC5/UART_LOG.c ****     *  None.
 992:Generated_Source\PSoC5/UART_LOG.c ****     *
 993:Generated_Source\PSoC5/UART_LOG.c ****     * Return:
 994:Generated_Source\PSoC5/UART_LOG.c ****     *  Contents of the status register
 995:Generated_Source\PSoC5/UART_LOG.c ****     *
 996:Generated_Source\PSoC5/UART_LOG.c ****     * Theory:
 997:Generated_Source\PSoC5/UART_LOG.c ****     *  This function reads the TX status register, which is cleared on read.
 998:Generated_Source\PSoC5/UART_LOG.c ****     *  It is up to the user to handle all bits in this return value accordingly,
 999:Generated_Source\PSoC5/UART_LOG.c ****     *  even if the bit was not enabled as an interrupt source the event happened
1000:Generated_Source\PSoC5/UART_LOG.c ****     *  and must be handled accordingly.
1001:Generated_Source\PSoC5/UART_LOG.c ****     *
1002:Generated_Source\PSoC5/UART_LOG.c ****     *******************************************************************************/
1003:Generated_Source\PSoC5/UART_LOG.c ****     uint8 UART_LOG_ReadTxStatus(void) 
1004:Generated_Source\PSoC5/UART_LOG.c ****     {
 676              		.loc 1 1004 0
 677              		.cfi_startproc
 678              		@ args = 0, pretend = 0, frame = 0
 679              		@ frame_needed = 0, uses_anonymous_args = 0
 680              		@ link register save eliminated.
1005:Generated_Source\PSoC5/UART_LOG.c ****         return(UART_LOG_TXSTATUS_REG);
 681              		.loc 1 1005 0
 682 0000 014B     		ldr	r3, .L64
 683 0002 1878     		ldrb	r0, [r3]	@ zero_extendqisi2
1006:Generated_Source\PSoC5/UART_LOG.c ****     }
 684              		.loc 1 1006 0
 685 0004 7047     		bx	lr
 686              	.L65:
 687 0006 00BF     		.align	2
 688              	.L64:
 689 0008 63640040 		.word	1073767523
 690              		.cfi_endproc
 691              	.LFE18:
 692              		.size	UART_LOG_ReadTxStatus, .-UART_LOG_ReadTxStatus
 693              		.section	.text.UART_LOG_PutChar,"ax",%progbits
 694              		.align	2
 695              		.global	UART_LOG_PutChar
 696              		.thumb
 697              		.thumb_func
ARM GAS  C:\Users\rbhar\AppData\Local\Temp\ccaqTdDy.s 			page 31


 698              		.type	UART_LOG_PutChar, %function
 699              	UART_LOG_PutChar:
 700              	.LFB19:
1007:Generated_Source\PSoC5/UART_LOG.c **** 
1008:Generated_Source\PSoC5/UART_LOG.c **** 
1009:Generated_Source\PSoC5/UART_LOG.c ****     /*******************************************************************************
1010:Generated_Source\PSoC5/UART_LOG.c ****     * Function Name: UART_LOG_PutChar
1011:Generated_Source\PSoC5/UART_LOG.c ****     ********************************************************************************
1012:Generated_Source\PSoC5/UART_LOG.c ****     *
1013:Generated_Source\PSoC5/UART_LOG.c ****     * Summary:
1014:Generated_Source\PSoC5/UART_LOG.c ****     *  Puts a byte of data into the transmit buffer to be sent when the bus is
1015:Generated_Source\PSoC5/UART_LOG.c ****     *  available. This is a blocking API that waits until the TX buffer has room to
1016:Generated_Source\PSoC5/UART_LOG.c ****     *  hold the data.
1017:Generated_Source\PSoC5/UART_LOG.c ****     *
1018:Generated_Source\PSoC5/UART_LOG.c ****     * Parameters:
1019:Generated_Source\PSoC5/UART_LOG.c ****     *  txDataByte: Byte containing the data to transmit
1020:Generated_Source\PSoC5/UART_LOG.c ****     *
1021:Generated_Source\PSoC5/UART_LOG.c ****     * Return:
1022:Generated_Source\PSoC5/UART_LOG.c ****     *  None.
1023:Generated_Source\PSoC5/UART_LOG.c ****     *
1024:Generated_Source\PSoC5/UART_LOG.c ****     * Global Variables:
1025:Generated_Source\PSoC5/UART_LOG.c ****     *  UART_LOG_txBuffer - RAM buffer pointer for save data for transmission
1026:Generated_Source\PSoC5/UART_LOG.c ****     *  UART_LOG_txBufferWrite - cyclic index for write to txBuffer,
1027:Generated_Source\PSoC5/UART_LOG.c ****     *     checked to identify free space in txBuffer and incremented after each byte
1028:Generated_Source\PSoC5/UART_LOG.c ****     *     saved to buffer.
1029:Generated_Source\PSoC5/UART_LOG.c ****     *  UART_LOG_txBufferRead - cyclic index for read from txBuffer,
1030:Generated_Source\PSoC5/UART_LOG.c ****     *     checked to identify free space in txBuffer.
1031:Generated_Source\PSoC5/UART_LOG.c ****     *  UART_LOG_initVar - checked to identify that the component has been
1032:Generated_Source\PSoC5/UART_LOG.c ****     *     initialized.
1033:Generated_Source\PSoC5/UART_LOG.c ****     *
1034:Generated_Source\PSoC5/UART_LOG.c ****     * Reentrant:
1035:Generated_Source\PSoC5/UART_LOG.c ****     *  No.
1036:Generated_Source\PSoC5/UART_LOG.c ****     *
1037:Generated_Source\PSoC5/UART_LOG.c ****     * Theory:
1038:Generated_Source\PSoC5/UART_LOG.c ****     *  Allows the user to transmit any byte of data in a single transfer
1039:Generated_Source\PSoC5/UART_LOG.c ****     *
1040:Generated_Source\PSoC5/UART_LOG.c ****     *******************************************************************************/
1041:Generated_Source\PSoC5/UART_LOG.c ****     void UART_LOG_PutChar(uint8 txDataByte) 
1042:Generated_Source\PSoC5/UART_LOG.c ****     {
 701              		.loc 1 1042 0
 702              		.cfi_startproc
 703              		@ args = 0, pretend = 0, frame = 0
 704              		@ frame_needed = 0, uses_anonymous_args = 0
 705              		@ link register save eliminated.
 706              	.LVL35:
 707              	.L69:
1043:Generated_Source\PSoC5/UART_LOG.c ****     #if (UART_LOG_TX_INTERRUPT_ENABLED)
1044:Generated_Source\PSoC5/UART_LOG.c ****         /* The temporary output pointer is used since it takes two instructions
1045:Generated_Source\PSoC5/UART_LOG.c ****         *  to increment with a wrap, and we can't risk doing that with the real
1046:Generated_Source\PSoC5/UART_LOG.c ****         *  pointer and getting an interrupt in between instructions.
1047:Generated_Source\PSoC5/UART_LOG.c ****         */
1048:Generated_Source\PSoC5/UART_LOG.c ****         uint8 locTxBufferWrite;
1049:Generated_Source\PSoC5/UART_LOG.c ****         uint8 locTxBufferRead;
1050:Generated_Source\PSoC5/UART_LOG.c **** 
1051:Generated_Source\PSoC5/UART_LOG.c ****         do
1052:Generated_Source\PSoC5/UART_LOG.c ****         { /* Block if software buffer is full, so we don't overwrite. */
1053:Generated_Source\PSoC5/UART_LOG.c **** 
ARM GAS  C:\Users\rbhar\AppData\Local\Temp\ccaqTdDy.s 			page 32


1054:Generated_Source\PSoC5/UART_LOG.c ****         #if ((UART_LOG_TX_BUFFER_SIZE > UART_LOG_MAX_BYTE_VALUE) && (CY_PSOC3))
1055:Generated_Source\PSoC5/UART_LOG.c ****             /* Disable TX interrupt to protect variables from modification */
1056:Generated_Source\PSoC5/UART_LOG.c ****             UART_LOG_DisableTxInt();
1057:Generated_Source\PSoC5/UART_LOG.c ****         #endif /* (UART_LOG_TX_BUFFER_SIZE > UART_LOG_MAX_BYTE_VALUE) && (CY_PSOC3) */
1058:Generated_Source\PSoC5/UART_LOG.c **** 
1059:Generated_Source\PSoC5/UART_LOG.c ****             locTxBufferWrite = UART_LOG_txBufferWrite;
 708              		.loc 1 1059 0
 709 0000 164B     		ldr	r3, .L74
 710 0002 9978     		ldrb	r1, [r3, #2]	@ zero_extendqisi2
 711              	.LVL36:
1060:Generated_Source\PSoC5/UART_LOG.c ****             locTxBufferRead  = UART_LOG_txBufferRead;
 712              		.loc 1 1060 0
 713 0004 5B78     		ldrb	r3, [r3, #1]	@ zero_extendqisi2
 714 0006 DBB2     		uxtb	r3, r3
 715              	.LVL37:
1061:Generated_Source\PSoC5/UART_LOG.c **** 
1062:Generated_Source\PSoC5/UART_LOG.c ****         #if ((UART_LOG_TX_BUFFER_SIZE > UART_LOG_MAX_BYTE_VALUE) && (CY_PSOC3))
1063:Generated_Source\PSoC5/UART_LOG.c ****             /* Enable interrupt to continue transmission */
1064:Generated_Source\PSoC5/UART_LOG.c ****             UART_LOG_EnableTxInt();
1065:Generated_Source\PSoC5/UART_LOG.c ****         #endif /* (UART_LOG_TX_BUFFER_SIZE > UART_LOG_MAX_BYTE_VALUE) && (CY_PSOC3) */
1066:Generated_Source\PSoC5/UART_LOG.c ****         }
1067:Generated_Source\PSoC5/UART_LOG.c ****         while( (locTxBufferWrite < locTxBufferRead) ? (locTxBufferWrite == (locTxBufferRead - 1u)) 
 716              		.loc 1 1067 0
 717 0008 9942     		cmp	r1, r3
 718 000a 05D2     		bcs	.L67
 719              		.loc 1 1067 0 is_stmt 0 discriminator 1
 720 000c 5A1E     		subs	r2, r3, #1
 721 000e 9142     		cmp	r1, r2
 722 0010 14BF     		ite	ne
 723 0012 0022     		movne	r2, #0
 724 0014 0122     		moveq	r2, #1
 725 0016 04E0     		b	.L68
 726              	.L67:
1068:Generated_Source\PSoC5/UART_LOG.c ****                                 ((locTxBufferWrite - locTxBufferRead) ==
 727              		.loc 1 1068 0 is_stmt 1 discriminator 2
 728 0018 CA1A     		subs	r2, r1, r3
1067:Generated_Source\PSoC5/UART_LOG.c ****                                 ((locTxBufferWrite - locTxBufferRead) ==
 729              		.loc 1 1067 0 discriminator 2
 730 001a 0F2A     		cmp	r2, #15
 731 001c 14BF     		ite	ne
 732 001e 0022     		movne	r2, #0
 733 0020 0122     		moveq	r2, #1
 734              	.L68:
1069:Generated_Source\PSoC5/UART_LOG.c ****                                 (uint8)(UART_LOG_TX_BUFFER_SIZE - 1u)) );
 735              		.loc 1 1069 0
 736 0022 002A     		cmp	r2, #0
 737 0024 ECD1     		bne	.L69
1070:Generated_Source\PSoC5/UART_LOG.c **** 
1071:Generated_Source\PSoC5/UART_LOG.c ****         if( (locTxBufferRead == locTxBufferWrite) &&
 738              		.loc 1 1071 0
 739 0026 9942     		cmp	r1, r3
 740 0028 07D1     		bne	.L70
1072:Generated_Source\PSoC5/UART_LOG.c ****             ((UART_LOG_TXSTATUS_REG & UART_LOG_TX_STS_FIFO_FULL) == 0u) )
 741              		.loc 1 1072 0 discriminator 1
 742 002a 0D4B     		ldr	r3, .L74+4
 743              	.LVL38:
 744 002c 1B78     		ldrb	r3, [r3]	@ zero_extendqisi2
ARM GAS  C:\Users\rbhar\AppData\Local\Temp\ccaqTdDy.s 			page 33


1071:Generated_Source\PSoC5/UART_LOG.c ****             ((UART_LOG_TXSTATUS_REG & UART_LOG_TX_STS_FIFO_FULL) == 0u) )
 745              		.loc 1 1071 0 discriminator 1
 746 002e 13F0040F 		tst	r3, #4
 747 0032 02D1     		bne	.L70
1073:Generated_Source\PSoC5/UART_LOG.c ****         {
1074:Generated_Source\PSoC5/UART_LOG.c ****             /* Add directly to the FIFO */
1075:Generated_Source\PSoC5/UART_LOG.c ****             UART_LOG_TXDATA_REG = txDataByte;
 748              		.loc 1 1075 0
 749 0034 0B4B     		ldr	r3, .L74+8
 750 0036 1870     		strb	r0, [r3]
 751 0038 7047     		bx	lr
 752              	.L70:
1076:Generated_Source\PSoC5/UART_LOG.c ****         }
1077:Generated_Source\PSoC5/UART_LOG.c ****         else
1078:Generated_Source\PSoC5/UART_LOG.c ****         {
1079:Generated_Source\PSoC5/UART_LOG.c ****             if(locTxBufferWrite >= UART_LOG_TX_BUFFER_SIZE)
 753              		.loc 1 1079 0
 754 003a 0F29     		cmp	r1, #15
 755 003c 00D9     		bls	.L72
1080:Generated_Source\PSoC5/UART_LOG.c ****             {
1081:Generated_Source\PSoC5/UART_LOG.c ****                 locTxBufferWrite = 0u;
 756              		.loc 1 1081 0
 757 003e 0021     		movs	r1, #0
 758              	.LVL39:
 759              	.L72:
1082:Generated_Source\PSoC5/UART_LOG.c ****             }
1083:Generated_Source\PSoC5/UART_LOG.c ****             /* Add to the software buffer. */
1084:Generated_Source\PSoC5/UART_LOG.c ****             UART_LOG_txBuffer[locTxBufferWrite] = txDataByte;
 760              		.loc 1 1084 0
 761 0040 094B     		ldr	r3, .L74+12
 762 0042 5854     		strb	r0, [r3, r1]
1085:Generated_Source\PSoC5/UART_LOG.c ****             locTxBufferWrite++;
 763              		.loc 1 1085 0
 764 0044 0131     		adds	r1, r1, #1
 765              	.LVL40:
1086:Generated_Source\PSoC5/UART_LOG.c **** 
1087:Generated_Source\PSoC5/UART_LOG.c ****             /* Finally, update the real output pointer */
1088:Generated_Source\PSoC5/UART_LOG.c ****         #if ((UART_LOG_TX_BUFFER_SIZE > UART_LOG_MAX_BYTE_VALUE) && (CY_PSOC3))
1089:Generated_Source\PSoC5/UART_LOG.c ****             UART_LOG_DisableTxInt();
1090:Generated_Source\PSoC5/UART_LOG.c ****         #endif /* (UART_LOG_TX_BUFFER_SIZE > UART_LOG_MAX_BYTE_VALUE) && (CY_PSOC3) */
1091:Generated_Source\PSoC5/UART_LOG.c **** 
1092:Generated_Source\PSoC5/UART_LOG.c ****             UART_LOG_txBufferWrite = locTxBufferWrite;
 766              		.loc 1 1092 0
 767 0046 054B     		ldr	r3, .L74
 768 0048 9970     		strb	r1, [r3, #2]
1093:Generated_Source\PSoC5/UART_LOG.c **** 
1094:Generated_Source\PSoC5/UART_LOG.c ****         #if ((UART_LOG_TX_BUFFER_SIZE > UART_LOG_MAX_BYTE_VALUE) && (CY_PSOC3))
1095:Generated_Source\PSoC5/UART_LOG.c ****             UART_LOG_EnableTxInt();
1096:Generated_Source\PSoC5/UART_LOG.c ****         #endif /* (UART_LOG_TX_BUFFER_SIZE > UART_LOG_MAX_BYTE_VALUE) && (CY_PSOC3) */
1097:Generated_Source\PSoC5/UART_LOG.c **** 
1098:Generated_Source\PSoC5/UART_LOG.c ****             if(0u != (UART_LOG_TXSTATUS_REG & UART_LOG_TX_STS_FIFO_EMPTY))
 769              		.loc 1 1098 0
 770 004a 054B     		ldr	r3, .L74+4
 771 004c 1B78     		ldrb	r3, [r3]	@ zero_extendqisi2
 772 004e 13F0020F 		tst	r3, #2
 773 0052 02D0     		beq	.L66
1099:Generated_Source\PSoC5/UART_LOG.c ****             {
ARM GAS  C:\Users\rbhar\AppData\Local\Temp\ccaqTdDy.s 			page 34


1100:Generated_Source\PSoC5/UART_LOG.c ****                 /* Trigger TX interrupt to send software buffer */
1101:Generated_Source\PSoC5/UART_LOG.c ****                 UART_LOG_SetPendingTxInt();
 774              		.loc 1 1101 0
 775 0054 0122     		movs	r2, #1
 776 0056 054B     		ldr	r3, .L74+16
 777 0058 1A60     		str	r2, [r3]
 778              	.L66:
 779 005a 7047     		bx	lr
 780              	.L75:
 781              		.align	2
 782              	.L74:
 783 005c 00000000 		.word	.LANCHOR0
 784 0060 63640040 		.word	1073767523
 785 0064 40640040 		.word	1073767488
 786 0068 00000000 		.word	UART_LOG_txBuffer
 787 006c 00E200E0 		.word	-536813056
 788              		.cfi_endproc
 789              	.LFE19:
 790              		.size	UART_LOG_PutChar, .-UART_LOG_PutChar
 791              		.section	.text.UART_LOG_PutString,"ax",%progbits
 792              		.align	2
 793              		.global	UART_LOG_PutString
 794              		.thumb
 795              		.thumb_func
 796              		.type	UART_LOG_PutString, %function
 797              	UART_LOG_PutString:
 798              	.LFB20:
1102:Generated_Source\PSoC5/UART_LOG.c ****             }
1103:Generated_Source\PSoC5/UART_LOG.c ****         }
1104:Generated_Source\PSoC5/UART_LOG.c **** 
1105:Generated_Source\PSoC5/UART_LOG.c ****     #else
1106:Generated_Source\PSoC5/UART_LOG.c **** 
1107:Generated_Source\PSoC5/UART_LOG.c ****         while((UART_LOG_TXSTATUS_REG & UART_LOG_TX_STS_FIFO_FULL) != 0u)
1108:Generated_Source\PSoC5/UART_LOG.c ****         {
1109:Generated_Source\PSoC5/UART_LOG.c ****             /* Wait for room in the FIFO */
1110:Generated_Source\PSoC5/UART_LOG.c ****         }
1111:Generated_Source\PSoC5/UART_LOG.c **** 
1112:Generated_Source\PSoC5/UART_LOG.c ****         /* Add directly to the FIFO */
1113:Generated_Source\PSoC5/UART_LOG.c ****         UART_LOG_TXDATA_REG = txDataByte;
1114:Generated_Source\PSoC5/UART_LOG.c **** 
1115:Generated_Source\PSoC5/UART_LOG.c ****     #endif /* UART_LOG_TX_INTERRUPT_ENABLED */
1116:Generated_Source\PSoC5/UART_LOG.c ****     }
1117:Generated_Source\PSoC5/UART_LOG.c **** 
1118:Generated_Source\PSoC5/UART_LOG.c **** 
1119:Generated_Source\PSoC5/UART_LOG.c ****     /*******************************************************************************
1120:Generated_Source\PSoC5/UART_LOG.c ****     * Function Name: UART_LOG_PutString
1121:Generated_Source\PSoC5/UART_LOG.c ****     ********************************************************************************
1122:Generated_Source\PSoC5/UART_LOG.c ****     *
1123:Generated_Source\PSoC5/UART_LOG.c ****     * Summary:
1124:Generated_Source\PSoC5/UART_LOG.c ****     *  Sends a NULL terminated string to the TX buffer for transmission.
1125:Generated_Source\PSoC5/UART_LOG.c ****     *
1126:Generated_Source\PSoC5/UART_LOG.c ****     * Parameters:
1127:Generated_Source\PSoC5/UART_LOG.c ****     *  string[]: Pointer to the null terminated string array residing in RAM or ROM
1128:Generated_Source\PSoC5/UART_LOG.c ****     *
1129:Generated_Source\PSoC5/UART_LOG.c ****     * Return:
1130:Generated_Source\PSoC5/UART_LOG.c ****     *  None.
1131:Generated_Source\PSoC5/UART_LOG.c ****     *
ARM GAS  C:\Users\rbhar\AppData\Local\Temp\ccaqTdDy.s 			page 35


1132:Generated_Source\PSoC5/UART_LOG.c ****     * Global Variables:
1133:Generated_Source\PSoC5/UART_LOG.c ****     *  UART_LOG_initVar - checked to identify that the component has been
1134:Generated_Source\PSoC5/UART_LOG.c ****     *     initialized.
1135:Generated_Source\PSoC5/UART_LOG.c ****     *
1136:Generated_Source\PSoC5/UART_LOG.c ****     * Reentrant:
1137:Generated_Source\PSoC5/UART_LOG.c ****     *  No.
1138:Generated_Source\PSoC5/UART_LOG.c ****     *
1139:Generated_Source\PSoC5/UART_LOG.c ****     * Theory:
1140:Generated_Source\PSoC5/UART_LOG.c ****     *  If there is not enough memory in the TX buffer for the entire string, this
1141:Generated_Source\PSoC5/UART_LOG.c ****     *  function blocks until the last character of the string is loaded into the
1142:Generated_Source\PSoC5/UART_LOG.c ****     *  TX buffer.
1143:Generated_Source\PSoC5/UART_LOG.c ****     *
1144:Generated_Source\PSoC5/UART_LOG.c ****     *******************************************************************************/
1145:Generated_Source\PSoC5/UART_LOG.c ****     void UART_LOG_PutString(const char8 string[]) 
1146:Generated_Source\PSoC5/UART_LOG.c ****     {
 799              		.loc 1 1146 0
 800              		.cfi_startproc
 801              		@ args = 0, pretend = 0, frame = 0
 802              		@ frame_needed = 0, uses_anonymous_args = 0
 803              	.LVL41:
 804 0000 38B5     		push	{r3, r4, r5, lr}
 805              		.cfi_def_cfa_offset 16
 806              		.cfi_offset 3, -16
 807              		.cfi_offset 4, -12
 808              		.cfi_offset 5, -8
 809              		.cfi_offset 14, -4
 810              	.LVL42:
1147:Generated_Source\PSoC5/UART_LOG.c ****         uint16 bufIndex = 0u;
1148:Generated_Source\PSoC5/UART_LOG.c **** 
1149:Generated_Source\PSoC5/UART_LOG.c ****         /* If not Initialized then skip this function */
1150:Generated_Source\PSoC5/UART_LOG.c ****         if(UART_LOG_initVar != 0u)
 811              		.loc 1 1150 0
 812 0002 074B     		ldr	r3, .L82
 813 0004 1B78     		ldrb	r3, [r3]	@ zero_extendqisi2
 814 0006 2BB9     		cbnz	r3, .L80
 815 0008 38BD     		pop	{r3, r4, r5, pc}
 816              	.LVL43:
 817              	.L79:
1151:Generated_Source\PSoC5/UART_LOG.c ****         {
1152:Generated_Source\PSoC5/UART_LOG.c ****             /* This is a blocking function, it will not exit until all data is sent */
1153:Generated_Source\PSoC5/UART_LOG.c ****             while(string[bufIndex] != (char8) 0)
1154:Generated_Source\PSoC5/UART_LOG.c ****             {
1155:Generated_Source\PSoC5/UART_LOG.c ****                 UART_LOG_PutChar((uint8)string[bufIndex]);
 818              		.loc 1 1155 0
 819 000a FFF7FEFF 		bl	UART_LOG_PutChar
 820              	.LVL44:
1156:Generated_Source\PSoC5/UART_LOG.c ****                 bufIndex++;
 821              		.loc 1 1156 0
 822 000e 0134     		adds	r4, r4, #1
 823              	.LVL45:
 824 0010 A4B2     		uxth	r4, r4
 825              	.LVL46:
 826 0012 01E0     		b	.L77
 827              	.LVL47:
 828              	.L80:
 829 0014 0546     		mov	r5, r0
 830 0016 0024     		movs	r4, #0
ARM GAS  C:\Users\rbhar\AppData\Local\Temp\ccaqTdDy.s 			page 36


 831              	.LVL48:
 832              	.L77:
1153:Generated_Source\PSoC5/UART_LOG.c ****             {
 833              		.loc 1 1153 0
 834 0018 285D     		ldrb	r0, [r5, r4]	@ zero_extendqisi2
 835 001a 0028     		cmp	r0, #0
 836 001c F5D1     		bne	.L79
 837 001e 38BD     		pop	{r3, r4, r5, pc}
 838              	.LVL49:
 839              	.L83:
 840              		.align	2
 841              	.L82:
 842 0020 00000000 		.word	.LANCHOR0
 843              		.cfi_endproc
 844              	.LFE20:
 845              		.size	UART_LOG_PutString, .-UART_LOG_PutString
 846              		.section	.text.UART_LOG_PutArray,"ax",%progbits
 847              		.align	2
 848              		.global	UART_LOG_PutArray
 849              		.thumb
 850              		.thumb_func
 851              		.type	UART_LOG_PutArray, %function
 852              	UART_LOG_PutArray:
 853              	.LFB21:
1157:Generated_Source\PSoC5/UART_LOG.c ****             }
1158:Generated_Source\PSoC5/UART_LOG.c ****         }
1159:Generated_Source\PSoC5/UART_LOG.c ****     }
1160:Generated_Source\PSoC5/UART_LOG.c **** 
1161:Generated_Source\PSoC5/UART_LOG.c **** 
1162:Generated_Source\PSoC5/UART_LOG.c ****     /*******************************************************************************
1163:Generated_Source\PSoC5/UART_LOG.c ****     * Function Name: UART_LOG_PutArray
1164:Generated_Source\PSoC5/UART_LOG.c ****     ********************************************************************************
1165:Generated_Source\PSoC5/UART_LOG.c ****     *
1166:Generated_Source\PSoC5/UART_LOG.c ****     * Summary:
1167:Generated_Source\PSoC5/UART_LOG.c ****     *  Places N bytes of data from a memory array into the TX buffer for
1168:Generated_Source\PSoC5/UART_LOG.c ****     *  transmission.
1169:Generated_Source\PSoC5/UART_LOG.c ****     *
1170:Generated_Source\PSoC5/UART_LOG.c ****     * Parameters:
1171:Generated_Source\PSoC5/UART_LOG.c ****     *  string[]: Address of the memory array residing in RAM or ROM.
1172:Generated_Source\PSoC5/UART_LOG.c ****     *  byteCount: Number of bytes to be transmitted. The type depends on TX Buffer
1173:Generated_Source\PSoC5/UART_LOG.c ****     *             Size parameter.
1174:Generated_Source\PSoC5/UART_LOG.c ****     *
1175:Generated_Source\PSoC5/UART_LOG.c ****     * Return:
1176:Generated_Source\PSoC5/UART_LOG.c ****     *  None.
1177:Generated_Source\PSoC5/UART_LOG.c ****     *
1178:Generated_Source\PSoC5/UART_LOG.c ****     * Global Variables:
1179:Generated_Source\PSoC5/UART_LOG.c ****     *  UART_LOG_initVar - checked to identify that the component has been
1180:Generated_Source\PSoC5/UART_LOG.c ****     *     initialized.
1181:Generated_Source\PSoC5/UART_LOG.c ****     *
1182:Generated_Source\PSoC5/UART_LOG.c ****     * Reentrant:
1183:Generated_Source\PSoC5/UART_LOG.c ****     *  No.
1184:Generated_Source\PSoC5/UART_LOG.c ****     *
1185:Generated_Source\PSoC5/UART_LOG.c ****     * Theory:
1186:Generated_Source\PSoC5/UART_LOG.c ****     *  If there is not enough memory in the TX buffer for the entire string, this
1187:Generated_Source\PSoC5/UART_LOG.c ****     *  function blocks until the last character of the string is loaded into the
1188:Generated_Source\PSoC5/UART_LOG.c ****     *  TX buffer.
1189:Generated_Source\PSoC5/UART_LOG.c ****     *
ARM GAS  C:\Users\rbhar\AppData\Local\Temp\ccaqTdDy.s 			page 37


1190:Generated_Source\PSoC5/UART_LOG.c ****     *******************************************************************************/
1191:Generated_Source\PSoC5/UART_LOG.c ****     void UART_LOG_PutArray(const uint8 string[], uint8 byteCount)
1192:Generated_Source\PSoC5/UART_LOG.c ****                                                                     
1193:Generated_Source\PSoC5/UART_LOG.c ****     {
 854              		.loc 1 1193 0
 855              		.cfi_startproc
 856              		@ args = 0, pretend = 0, frame = 0
 857              		@ frame_needed = 0, uses_anonymous_args = 0
 858              	.LVL50:
1194:Generated_Source\PSoC5/UART_LOG.c ****         uint8 bufIndex = 0u;
1195:Generated_Source\PSoC5/UART_LOG.c **** 
1196:Generated_Source\PSoC5/UART_LOG.c ****         /* If not Initialized then skip this function */
1197:Generated_Source\PSoC5/UART_LOG.c ****         if(UART_LOG_initVar != 0u)
 859              		.loc 1 1197 0
 860 0000 084B     		ldr	r3, .L90
 861 0002 1B78     		ldrb	r3, [r3]	@ zero_extendqisi2
 862 0004 33B9     		cbnz	r3, .L88
 863 0006 7047     		bx	lr
 864              	.LVL51:
 865              	.L87:
 866              		.cfi_def_cfa_offset 16
 867              		.cfi_offset 4, -16
 868              		.cfi_offset 5, -12
 869              		.cfi_offset 6, -8
 870              		.cfi_offset 14, -4
1198:Generated_Source\PSoC5/UART_LOG.c ****         {
1199:Generated_Source\PSoC5/UART_LOG.c ****             while(bufIndex < byteCount)
1200:Generated_Source\PSoC5/UART_LOG.c ****             {
1201:Generated_Source\PSoC5/UART_LOG.c ****                 UART_LOG_PutChar(string[bufIndex]);
 871              		.loc 1 1201 0
 872 0008 305D     		ldrb	r0, [r6, r4]	@ zero_extendqisi2
 873 000a FFF7FEFF 		bl	UART_LOG_PutChar
 874              	.LVL52:
1202:Generated_Source\PSoC5/UART_LOG.c ****                 bufIndex++;
 875              		.loc 1 1202 0
 876 000e 0134     		adds	r4, r4, #1
 877              	.LVL53:
 878 0010 E4B2     		uxtb	r4, r4
 879              	.LVL54:
 880 0012 03E0     		b	.L85
 881              	.LVL55:
 882              	.L88:
 883              		.cfi_def_cfa_offset 0
 884              		.cfi_restore 4
 885              		.cfi_restore 5
 886              		.cfi_restore 6
 887              		.cfi_restore 14
1193:Generated_Source\PSoC5/UART_LOG.c ****         uint8 bufIndex = 0u;
 888              		.loc 1 1193 0
 889 0014 70B5     		push	{r4, r5, r6, lr}
 890              		.cfi_def_cfa_offset 16
 891              		.cfi_offset 4, -16
 892              		.cfi_offset 5, -12
 893              		.cfi_offset 6, -8
 894              		.cfi_offset 14, -4
 895 0016 0D46     		mov	r5, r1
 896 0018 0646     		mov	r6, r0
ARM GAS  C:\Users\rbhar\AppData\Local\Temp\ccaqTdDy.s 			page 38


 897 001a 0024     		movs	r4, #0
 898              	.LVL56:
 899              	.L85:
1199:Generated_Source\PSoC5/UART_LOG.c ****             {
 900              		.loc 1 1199 0
 901 001c AC42     		cmp	r4, r5
 902 001e F3D3     		bcc	.L87
 903 0020 70BD     		pop	{r4, r5, r6, pc}
 904              	.LVL57:
 905              	.L91:
 906 0022 00BF     		.align	2
 907              	.L90:
 908 0024 00000000 		.word	.LANCHOR0
 909              		.cfi_endproc
 910              	.LFE21:
 911              		.size	UART_LOG_PutArray, .-UART_LOG_PutArray
 912              		.section	.text.UART_LOG_PutCRLF,"ax",%progbits
 913              		.align	2
 914              		.global	UART_LOG_PutCRLF
 915              		.thumb
 916              		.thumb_func
 917              		.type	UART_LOG_PutCRLF, %function
 918              	UART_LOG_PutCRLF:
 919              	.LFB22:
1203:Generated_Source\PSoC5/UART_LOG.c ****             }
1204:Generated_Source\PSoC5/UART_LOG.c ****         }
1205:Generated_Source\PSoC5/UART_LOG.c ****     }
1206:Generated_Source\PSoC5/UART_LOG.c **** 
1207:Generated_Source\PSoC5/UART_LOG.c **** 
1208:Generated_Source\PSoC5/UART_LOG.c ****     /*******************************************************************************
1209:Generated_Source\PSoC5/UART_LOG.c ****     * Function Name: UART_LOG_PutCRLF
1210:Generated_Source\PSoC5/UART_LOG.c ****     ********************************************************************************
1211:Generated_Source\PSoC5/UART_LOG.c ****     *
1212:Generated_Source\PSoC5/UART_LOG.c ****     * Summary:
1213:Generated_Source\PSoC5/UART_LOG.c ****     *  Writes a byte of data followed by a carriage return (0x0D) and line feed
1214:Generated_Source\PSoC5/UART_LOG.c ****     *  (0x0A) to the transmit buffer.
1215:Generated_Source\PSoC5/UART_LOG.c ****     *
1216:Generated_Source\PSoC5/UART_LOG.c ****     * Parameters:
1217:Generated_Source\PSoC5/UART_LOG.c ****     *  txDataByte: Data byte to transmit before the carriage return and line feed.
1218:Generated_Source\PSoC5/UART_LOG.c ****     *
1219:Generated_Source\PSoC5/UART_LOG.c ****     * Return:
1220:Generated_Source\PSoC5/UART_LOG.c ****     *  None.
1221:Generated_Source\PSoC5/UART_LOG.c ****     *
1222:Generated_Source\PSoC5/UART_LOG.c ****     * Global Variables:
1223:Generated_Source\PSoC5/UART_LOG.c ****     *  UART_LOG_initVar - checked to identify that the component has been
1224:Generated_Source\PSoC5/UART_LOG.c ****     *     initialized.
1225:Generated_Source\PSoC5/UART_LOG.c ****     *
1226:Generated_Source\PSoC5/UART_LOG.c ****     * Reentrant:
1227:Generated_Source\PSoC5/UART_LOG.c ****     *  No.
1228:Generated_Source\PSoC5/UART_LOG.c ****     *
1229:Generated_Source\PSoC5/UART_LOG.c ****     *******************************************************************************/
1230:Generated_Source\PSoC5/UART_LOG.c ****     void UART_LOG_PutCRLF(uint8 txDataByte) 
1231:Generated_Source\PSoC5/UART_LOG.c ****     {
 920              		.loc 1 1231 0
 921              		.cfi_startproc
 922              		@ args = 0, pretend = 0, frame = 0
 923              		@ frame_needed = 0, uses_anonymous_args = 0
ARM GAS  C:\Users\rbhar\AppData\Local\Temp\ccaqTdDy.s 			page 39


 924              	.LVL58:
 925 0000 08B5     		push	{r3, lr}
 926              		.cfi_def_cfa_offset 8
 927              		.cfi_offset 3, -8
 928              		.cfi_offset 14, -4
1232:Generated_Source\PSoC5/UART_LOG.c ****         /* If not Initialized then skip this function */
1233:Generated_Source\PSoC5/UART_LOG.c ****         if(UART_LOG_initVar != 0u)
 929              		.loc 1 1233 0
 930 0002 064B     		ldr	r3, .L95
 931 0004 1B78     		ldrb	r3, [r3]	@ zero_extendqisi2
 932 0006 3BB1     		cbz	r3, .L92
1234:Generated_Source\PSoC5/UART_LOG.c ****         {
1235:Generated_Source\PSoC5/UART_LOG.c ****             UART_LOG_PutChar(txDataByte);
 933              		.loc 1 1235 0
 934 0008 FFF7FEFF 		bl	UART_LOG_PutChar
 935              	.LVL59:
1236:Generated_Source\PSoC5/UART_LOG.c ****             UART_LOG_PutChar(0x0Du);
 936              		.loc 1 1236 0
 937 000c 0D20     		movs	r0, #13
 938 000e FFF7FEFF 		bl	UART_LOG_PutChar
 939              	.LVL60:
1237:Generated_Source\PSoC5/UART_LOG.c ****             UART_LOG_PutChar(0x0Au);
 940              		.loc 1 1237 0
 941 0012 0A20     		movs	r0, #10
 942 0014 FFF7FEFF 		bl	UART_LOG_PutChar
 943              	.LVL61:
 944              	.L92:
 945 0018 08BD     		pop	{r3, pc}
 946              	.L96:
 947 001a 00BF     		.align	2
 948              	.L95:
 949 001c 00000000 		.word	.LANCHOR0
 950              		.cfi_endproc
 951              	.LFE22:
 952              		.size	UART_LOG_PutCRLF, .-UART_LOG_PutCRLF
 953              		.section	.text.UART_LOG_GetTxBufferSize,"ax",%progbits
 954              		.align	2
 955              		.global	UART_LOG_GetTxBufferSize
 956              		.thumb
 957              		.thumb_func
 958              		.type	UART_LOG_GetTxBufferSize, %function
 959              	UART_LOG_GetTxBufferSize:
 960              	.LFB23:
1238:Generated_Source\PSoC5/UART_LOG.c ****         }
1239:Generated_Source\PSoC5/UART_LOG.c ****     }
1240:Generated_Source\PSoC5/UART_LOG.c **** 
1241:Generated_Source\PSoC5/UART_LOG.c **** 
1242:Generated_Source\PSoC5/UART_LOG.c ****     /*******************************************************************************
1243:Generated_Source\PSoC5/UART_LOG.c ****     * Function Name: UART_LOG_GetTxBufferSize
1244:Generated_Source\PSoC5/UART_LOG.c ****     ********************************************************************************
1245:Generated_Source\PSoC5/UART_LOG.c ****     *
1246:Generated_Source\PSoC5/UART_LOG.c ****     * Summary:
1247:Generated_Source\PSoC5/UART_LOG.c ****     *  Returns the number of bytes in the TX buffer which are waiting to be 
1248:Generated_Source\PSoC5/UART_LOG.c ****     *  transmitted.
1249:Generated_Source\PSoC5/UART_LOG.c ****     *  * TX software buffer is disabled (TX Buffer Size parameter is equal to 4): 
1250:Generated_Source\PSoC5/UART_LOG.c ****     *    returns 0 for empty TX FIFO, 1 for not full TX FIFO or 4 for full TX FIFO.
1251:Generated_Source\PSoC5/UART_LOG.c ****     *  * TX software buffer is enabled: returns the number of bytes in the TX 
ARM GAS  C:\Users\rbhar\AppData\Local\Temp\ccaqTdDy.s 			page 40


1252:Generated_Source\PSoC5/UART_LOG.c ****     *    software buffer which are waiting to be transmitted. Bytes available in the
1253:Generated_Source\PSoC5/UART_LOG.c ****     *    TX FIFO do not count.
1254:Generated_Source\PSoC5/UART_LOG.c ****     *
1255:Generated_Source\PSoC5/UART_LOG.c ****     * Parameters:
1256:Generated_Source\PSoC5/UART_LOG.c ****     *  None.
1257:Generated_Source\PSoC5/UART_LOG.c ****     *
1258:Generated_Source\PSoC5/UART_LOG.c ****     * Return:
1259:Generated_Source\PSoC5/UART_LOG.c ****     *  Number of bytes used in the TX buffer. Return value type depends on the TX 
1260:Generated_Source\PSoC5/UART_LOG.c ****     *  Buffer Size parameter.
1261:Generated_Source\PSoC5/UART_LOG.c ****     *
1262:Generated_Source\PSoC5/UART_LOG.c ****     * Global Variables:
1263:Generated_Source\PSoC5/UART_LOG.c ****     *  UART_LOG_txBufferWrite - used to calculate left space.
1264:Generated_Source\PSoC5/UART_LOG.c ****     *  UART_LOG_txBufferRead - used to calculate left space.
1265:Generated_Source\PSoC5/UART_LOG.c ****     *
1266:Generated_Source\PSoC5/UART_LOG.c ****     * Reentrant:
1267:Generated_Source\PSoC5/UART_LOG.c ****     *  No.
1268:Generated_Source\PSoC5/UART_LOG.c ****     *
1269:Generated_Source\PSoC5/UART_LOG.c ****     * Theory:
1270:Generated_Source\PSoC5/UART_LOG.c ****     *  Allows the user to find out how full the TX Buffer is.
1271:Generated_Source\PSoC5/UART_LOG.c ****     *
1272:Generated_Source\PSoC5/UART_LOG.c ****     *******************************************************************************/
1273:Generated_Source\PSoC5/UART_LOG.c ****     uint8 UART_LOG_GetTxBufferSize(void)
1274:Generated_Source\PSoC5/UART_LOG.c ****                                                             
1275:Generated_Source\PSoC5/UART_LOG.c ****     {
 961              		.loc 1 1275 0
 962              		.cfi_startproc
 963              		@ args = 0, pretend = 0, frame = 0
 964              		@ frame_needed = 0, uses_anonymous_args = 0
 965              		@ link register save eliminated.
1276:Generated_Source\PSoC5/UART_LOG.c ****         uint8 size;
1277:Generated_Source\PSoC5/UART_LOG.c **** 
1278:Generated_Source\PSoC5/UART_LOG.c ****     #if (UART_LOG_TX_INTERRUPT_ENABLED)
1279:Generated_Source\PSoC5/UART_LOG.c **** 
1280:Generated_Source\PSoC5/UART_LOG.c ****         /* Protect variables that could change on interrupt. */
1281:Generated_Source\PSoC5/UART_LOG.c ****         UART_LOG_DisableTxInt();
 966              		.loc 1 1281 0
 967 0000 0122     		movs	r2, #1
 968 0002 0E4B     		ldr	r3, .L101
 969 0004 1A60     		str	r2, [r3]
1282:Generated_Source\PSoC5/UART_LOG.c **** 
1283:Generated_Source\PSoC5/UART_LOG.c ****         if(UART_LOG_txBufferRead == UART_LOG_txBufferWrite)
 970              		.loc 1 1283 0
 971 0006 0E4B     		ldr	r3, .L101+4
 972 0008 5A78     		ldrb	r2, [r3, #1]	@ zero_extendqisi2
 973 000a D2B2     		uxtb	r2, r2
 974 000c 9B78     		ldrb	r3, [r3, #2]	@ zero_extendqisi2
 975 000e 9A42     		cmp	r2, r3
 976 0010 0FD0     		beq	.L100
1284:Generated_Source\PSoC5/UART_LOG.c ****         {
1285:Generated_Source\PSoC5/UART_LOG.c ****             size = 0u;
1286:Generated_Source\PSoC5/UART_LOG.c ****         }
1287:Generated_Source\PSoC5/UART_LOG.c ****         else if(UART_LOG_txBufferRead < UART_LOG_txBufferWrite)
 977              		.loc 1 1287 0
 978 0012 0B4A     		ldr	r2, .L101+4
 979 0014 5278     		ldrb	r2, [r2, #1]	@ zero_extendqisi2
 980 0016 D2B2     		uxtb	r2, r2
 981 0018 9342     		cmp	r3, r2
ARM GAS  C:\Users\rbhar\AppData\Local\Temp\ccaqTdDy.s 			page 41


 982 001a 04D9     		bls	.L99
1288:Generated_Source\PSoC5/UART_LOG.c ****         {
1289:Generated_Source\PSoC5/UART_LOG.c ****             size = (UART_LOG_txBufferWrite - UART_LOG_txBufferRead);
 983              		.loc 1 1289 0
 984 001c 084A     		ldr	r2, .L101+4
 985 001e 5078     		ldrb	r0, [r2, #1]	@ zero_extendqisi2
 986 0020 181A     		subs	r0, r3, r0
 987 0022 C0B2     		uxtb	r0, r0
 988              	.LVL62:
 989 0024 06E0     		b	.L98
 990              	.LVL63:
 991              	.L99:
1290:Generated_Source\PSoC5/UART_LOG.c ****         }
1291:Generated_Source\PSoC5/UART_LOG.c ****         else
1292:Generated_Source\PSoC5/UART_LOG.c ****         {
1293:Generated_Source\PSoC5/UART_LOG.c ****             size = (UART_LOG_TX_BUFFER_SIZE - UART_LOG_txBufferRead) +
 992              		.loc 1 1293 0
 993 0026 064A     		ldr	r2, .L101+4
 994 0028 5078     		ldrb	r0, [r2, #1]	@ zero_extendqisi2
 995 002a 181A     		subs	r0, r3, r0
 996 002c 1030     		adds	r0, r0, #16
 997 002e C0B2     		uxtb	r0, r0
 998              	.LVL64:
 999 0030 00E0     		b	.L98
 1000              	.LVL65:
 1001              	.L100:
1285:Generated_Source\PSoC5/UART_LOG.c ****         }
 1002              		.loc 1 1285 0
 1003 0032 0020     		movs	r0, #0
 1004              	.L98:
 1005              	.LVL66:
1294:Generated_Source\PSoC5/UART_LOG.c ****                     UART_LOG_txBufferWrite;
1295:Generated_Source\PSoC5/UART_LOG.c ****         }
1296:Generated_Source\PSoC5/UART_LOG.c **** 
1297:Generated_Source\PSoC5/UART_LOG.c ****         UART_LOG_EnableTxInt();
 1006              		.loc 1 1297 0
 1007 0034 0122     		movs	r2, #1
 1008 0036 034B     		ldr	r3, .L101+8
 1009 0038 1A60     		str	r2, [r3]
1298:Generated_Source\PSoC5/UART_LOG.c **** 
1299:Generated_Source\PSoC5/UART_LOG.c ****     #else
1300:Generated_Source\PSoC5/UART_LOG.c **** 
1301:Generated_Source\PSoC5/UART_LOG.c ****         size = UART_LOG_TXSTATUS_REG;
1302:Generated_Source\PSoC5/UART_LOG.c **** 
1303:Generated_Source\PSoC5/UART_LOG.c ****         /* Is the fifo is full. */
1304:Generated_Source\PSoC5/UART_LOG.c ****         if((size & UART_LOG_TX_STS_FIFO_FULL) != 0u)
1305:Generated_Source\PSoC5/UART_LOG.c ****         {
1306:Generated_Source\PSoC5/UART_LOG.c ****             size = UART_LOG_FIFO_LENGTH;
1307:Generated_Source\PSoC5/UART_LOG.c ****         }
1308:Generated_Source\PSoC5/UART_LOG.c ****         else if((size & UART_LOG_TX_STS_FIFO_EMPTY) != 0u)
1309:Generated_Source\PSoC5/UART_LOG.c ****         {
1310:Generated_Source\PSoC5/UART_LOG.c ****             size = 0u;
1311:Generated_Source\PSoC5/UART_LOG.c ****         }
1312:Generated_Source\PSoC5/UART_LOG.c ****         else
1313:Generated_Source\PSoC5/UART_LOG.c ****         {
1314:Generated_Source\PSoC5/UART_LOG.c ****             /* We only know there is data in the fifo. */
1315:Generated_Source\PSoC5/UART_LOG.c ****             size = 1u;
ARM GAS  C:\Users\rbhar\AppData\Local\Temp\ccaqTdDy.s 			page 42


1316:Generated_Source\PSoC5/UART_LOG.c ****         }
1317:Generated_Source\PSoC5/UART_LOG.c **** 
1318:Generated_Source\PSoC5/UART_LOG.c ****     #endif /* (UART_LOG_TX_INTERRUPT_ENABLED) */
1319:Generated_Source\PSoC5/UART_LOG.c **** 
1320:Generated_Source\PSoC5/UART_LOG.c ****     return(size);
1321:Generated_Source\PSoC5/UART_LOG.c ****     }
 1010              		.loc 1 1321 0
 1011 003a 7047     		bx	lr
 1012              	.L102:
 1013              		.align	2
 1014              	.L101:
 1015 003c 80E100E0 		.word	-536813184
 1016 0040 00000000 		.word	.LANCHOR0
 1017 0044 00E100E0 		.word	-536813312
 1018              		.cfi_endproc
 1019              	.LFE23:
 1020              		.size	UART_LOG_GetTxBufferSize, .-UART_LOG_GetTxBufferSize
 1021              		.section	.text.UART_LOG_ClearTxBuffer,"ax",%progbits
 1022              		.align	2
 1023              		.global	UART_LOG_ClearTxBuffer
 1024              		.thumb
 1025              		.thumb_func
 1026              		.type	UART_LOG_ClearTxBuffer, %function
 1027              	UART_LOG_ClearTxBuffer:
 1028              	.LFB24:
1322:Generated_Source\PSoC5/UART_LOG.c **** 
1323:Generated_Source\PSoC5/UART_LOG.c **** 
1324:Generated_Source\PSoC5/UART_LOG.c ****     /*******************************************************************************
1325:Generated_Source\PSoC5/UART_LOG.c ****     * Function Name: UART_LOG_ClearTxBuffer
1326:Generated_Source\PSoC5/UART_LOG.c ****     ********************************************************************************
1327:Generated_Source\PSoC5/UART_LOG.c ****     *
1328:Generated_Source\PSoC5/UART_LOG.c ****     * Summary:
1329:Generated_Source\PSoC5/UART_LOG.c ****     *  Clears all data from the TX buffer and hardware TX FIFO.
1330:Generated_Source\PSoC5/UART_LOG.c ****     *
1331:Generated_Source\PSoC5/UART_LOG.c ****     * Parameters:
1332:Generated_Source\PSoC5/UART_LOG.c ****     *  None.
1333:Generated_Source\PSoC5/UART_LOG.c ****     *
1334:Generated_Source\PSoC5/UART_LOG.c ****     * Return:
1335:Generated_Source\PSoC5/UART_LOG.c ****     *  None.
1336:Generated_Source\PSoC5/UART_LOG.c ****     *
1337:Generated_Source\PSoC5/UART_LOG.c ****     * Global Variables:
1338:Generated_Source\PSoC5/UART_LOG.c ****     *  UART_LOG_txBufferWrite - cleared to zero.
1339:Generated_Source\PSoC5/UART_LOG.c ****     *  UART_LOG_txBufferRead - cleared to zero.
1340:Generated_Source\PSoC5/UART_LOG.c ****     *
1341:Generated_Source\PSoC5/UART_LOG.c ****     * Reentrant:
1342:Generated_Source\PSoC5/UART_LOG.c ****     *  No.
1343:Generated_Source\PSoC5/UART_LOG.c ****     *
1344:Generated_Source\PSoC5/UART_LOG.c ****     * Theory:
1345:Generated_Source\PSoC5/UART_LOG.c ****     *  Setting the pointers to zero makes the system believe there is no data to
1346:Generated_Source\PSoC5/UART_LOG.c ****     *  read and writing will resume at address 0 overwriting any data that may have
1347:Generated_Source\PSoC5/UART_LOG.c ****     *  remained in the RAM.
1348:Generated_Source\PSoC5/UART_LOG.c ****     *
1349:Generated_Source\PSoC5/UART_LOG.c ****     * Side Effects:
1350:Generated_Source\PSoC5/UART_LOG.c ****     *  Data waiting in the transmit buffer is not sent; a byte that is currently
1351:Generated_Source\PSoC5/UART_LOG.c ****     *  transmitting finishes transmitting.
1352:Generated_Source\PSoC5/UART_LOG.c ****     *
1353:Generated_Source\PSoC5/UART_LOG.c ****     *******************************************************************************/
ARM GAS  C:\Users\rbhar\AppData\Local\Temp\ccaqTdDy.s 			page 43


1354:Generated_Source\PSoC5/UART_LOG.c ****     void UART_LOG_ClearTxBuffer(void) 
1355:Generated_Source\PSoC5/UART_LOG.c ****     {
 1029              		.loc 1 1355 0
 1030              		.cfi_startproc
 1031              		@ args = 0, pretend = 0, frame = 0
 1032              		@ frame_needed = 0, uses_anonymous_args = 0
 1033 0000 08B5     		push	{r3, lr}
 1034              		.cfi_def_cfa_offset 8
 1035              		.cfi_offset 3, -8
 1036              		.cfi_offset 14, -4
1356:Generated_Source\PSoC5/UART_LOG.c ****         uint8 enableInterrupts;
1357:Generated_Source\PSoC5/UART_LOG.c **** 
1358:Generated_Source\PSoC5/UART_LOG.c ****         enableInterrupts = CyEnterCriticalSection();
 1037              		.loc 1 1358 0
 1038 0002 FFF7FEFF 		bl	CyEnterCriticalSection
 1039              	.LVL67:
1359:Generated_Source\PSoC5/UART_LOG.c ****         /* Clear the HW FIFO */
1360:Generated_Source\PSoC5/UART_LOG.c ****         UART_LOG_TXDATA_AUX_CTL_REG |= (uint8)  UART_LOG_TX_FIFO_CLR;
 1040              		.loc 1 1360 0
 1041 0006 0A4B     		ldr	r3, .L105
 1042 0008 1A78     		ldrb	r2, [r3]	@ zero_extendqisi2
 1043 000a 42F00102 		orr	r2, r2, #1
 1044 000e 1A70     		strb	r2, [r3]
1361:Generated_Source\PSoC5/UART_LOG.c ****         UART_LOG_TXDATA_AUX_CTL_REG &= (uint8) ~UART_LOG_TX_FIFO_CLR;
 1045              		.loc 1 1361 0
 1046 0010 1A78     		ldrb	r2, [r3]	@ zero_extendqisi2
 1047 0012 02F0FE02 		and	r2, r2, #254
 1048 0016 1A70     		strb	r2, [r3]
1362:Generated_Source\PSoC5/UART_LOG.c ****         CyExitCriticalSection(enableInterrupts);
 1049              		.loc 1 1362 0
 1050 0018 FFF7FEFF 		bl	CyExitCriticalSection
 1051              	.LVL68:
1363:Generated_Source\PSoC5/UART_LOG.c **** 
1364:Generated_Source\PSoC5/UART_LOG.c ****     #if (UART_LOG_TX_INTERRUPT_ENABLED)
1365:Generated_Source\PSoC5/UART_LOG.c **** 
1366:Generated_Source\PSoC5/UART_LOG.c ****         /* Protect variables that could change on interrupt. */
1367:Generated_Source\PSoC5/UART_LOG.c ****         UART_LOG_DisableTxInt();
 1052              		.loc 1 1367 0
 1053 001c 0123     		movs	r3, #1
 1054 001e 054A     		ldr	r2, .L105+4
 1055 0020 1360     		str	r3, [r2]
1368:Generated_Source\PSoC5/UART_LOG.c **** 
1369:Generated_Source\PSoC5/UART_LOG.c ****         UART_LOG_txBufferRead = 0u;
 1056              		.loc 1 1369 0
 1057 0022 054A     		ldr	r2, .L105+8
 1058 0024 0021     		movs	r1, #0
 1059 0026 5170     		strb	r1, [r2, #1]
1370:Generated_Source\PSoC5/UART_LOG.c ****         UART_LOG_txBufferWrite = 0u;
 1060              		.loc 1 1370 0
 1061 0028 9170     		strb	r1, [r2, #2]
1371:Generated_Source\PSoC5/UART_LOG.c **** 
1372:Generated_Source\PSoC5/UART_LOG.c ****         /* Enable Tx interrupt. */
1373:Generated_Source\PSoC5/UART_LOG.c ****         UART_LOG_EnableTxInt();
 1062              		.loc 1 1373 0
 1063 002a 044A     		ldr	r2, .L105+12
 1064 002c 1360     		str	r3, [r2]
 1065 002e 08BD     		pop	{r3, pc}
ARM GAS  C:\Users\rbhar\AppData\Local\Temp\ccaqTdDy.s 			page 44


 1066              	.L106:
 1067              		.align	2
 1068              	.L105:
 1069 0030 90640040 		.word	1073767568
 1070 0034 80E100E0 		.word	-536813184
 1071 0038 00000000 		.word	.LANCHOR0
 1072 003c 00E100E0 		.word	-536813312
 1073              		.cfi_endproc
 1074              	.LFE24:
 1075              		.size	UART_LOG_ClearTxBuffer, .-UART_LOG_ClearTxBuffer
 1076              		.section	.text.UART_LOG_SendBreak,"ax",%progbits
 1077              		.align	2
 1078              		.global	UART_LOG_SendBreak
 1079              		.thumb
 1080              		.thumb_func
 1081              		.type	UART_LOG_SendBreak, %function
 1082              	UART_LOG_SendBreak:
 1083              	.LFB25:
1374:Generated_Source\PSoC5/UART_LOG.c **** 
1375:Generated_Source\PSoC5/UART_LOG.c ****     #endif /* (UART_LOG_TX_INTERRUPT_ENABLED) */
1376:Generated_Source\PSoC5/UART_LOG.c ****     }
1377:Generated_Source\PSoC5/UART_LOG.c **** 
1378:Generated_Source\PSoC5/UART_LOG.c **** 
1379:Generated_Source\PSoC5/UART_LOG.c ****     /*******************************************************************************
1380:Generated_Source\PSoC5/UART_LOG.c ****     * Function Name: UART_LOG_SendBreak
1381:Generated_Source\PSoC5/UART_LOG.c ****     ********************************************************************************
1382:Generated_Source\PSoC5/UART_LOG.c ****     *
1383:Generated_Source\PSoC5/UART_LOG.c ****     * Summary:
1384:Generated_Source\PSoC5/UART_LOG.c ****     *  Transmits a break signal on the bus.
1385:Generated_Source\PSoC5/UART_LOG.c ****     *
1386:Generated_Source\PSoC5/UART_LOG.c ****     * Parameters:
1387:Generated_Source\PSoC5/UART_LOG.c ****     *  uint8 retMode:  Send Break return mode. See the following table for options.
1388:Generated_Source\PSoC5/UART_LOG.c ****     *   UART_LOG_SEND_BREAK - Initialize registers for break, send the Break
1389:Generated_Source\PSoC5/UART_LOG.c ****     *       signal and return immediately.
1390:Generated_Source\PSoC5/UART_LOG.c ****     *   UART_LOG_WAIT_FOR_COMPLETE_REINIT - Wait until break transmission is
1391:Generated_Source\PSoC5/UART_LOG.c ****     *       complete, reinitialize registers to normal transmission mode then return
1392:Generated_Source\PSoC5/UART_LOG.c ****     *   UART_LOG_REINIT - Reinitialize registers to normal transmission mode
1393:Generated_Source\PSoC5/UART_LOG.c ****     *       then return.
1394:Generated_Source\PSoC5/UART_LOG.c ****     *   UART_LOG_SEND_WAIT_REINIT - Performs both options: 
1395:Generated_Source\PSoC5/UART_LOG.c ****     *      UART_LOG_SEND_BREAK and UART_LOG_WAIT_FOR_COMPLETE_REINIT.
1396:Generated_Source\PSoC5/UART_LOG.c ****     *      This option is recommended for most cases.
1397:Generated_Source\PSoC5/UART_LOG.c ****     *
1398:Generated_Source\PSoC5/UART_LOG.c ****     * Return:
1399:Generated_Source\PSoC5/UART_LOG.c ****     *  None.
1400:Generated_Source\PSoC5/UART_LOG.c ****     *
1401:Generated_Source\PSoC5/UART_LOG.c ****     * Global Variables:
1402:Generated_Source\PSoC5/UART_LOG.c ****     *  UART_LOG_initVar - checked to identify that the component has been
1403:Generated_Source\PSoC5/UART_LOG.c ****     *     initialized.
1404:Generated_Source\PSoC5/UART_LOG.c ****     *  txPeriod - static variable, used for keeping TX period configuration.
1405:Generated_Source\PSoC5/UART_LOG.c ****     *
1406:Generated_Source\PSoC5/UART_LOG.c ****     * Reentrant:
1407:Generated_Source\PSoC5/UART_LOG.c ****     *  No.
1408:Generated_Source\PSoC5/UART_LOG.c ****     *
1409:Generated_Source\PSoC5/UART_LOG.c ****     * Theory:
1410:Generated_Source\PSoC5/UART_LOG.c ****     *  SendBreak function initializes registers to send 13-bit break signal. It is
1411:Generated_Source\PSoC5/UART_LOG.c ****     *  important to return the registers configuration to normal for continue 8-bit
1412:Generated_Source\PSoC5/UART_LOG.c ****     *  operation.
ARM GAS  C:\Users\rbhar\AppData\Local\Temp\ccaqTdDy.s 			page 45


1413:Generated_Source\PSoC5/UART_LOG.c ****     *  There are 3 variants for this API usage:
1414:Generated_Source\PSoC5/UART_LOG.c ****     *  1) SendBreak(3) - function will send the Break signal and take care on the
1415:Generated_Source\PSoC5/UART_LOG.c ****     *     configuration returning. Function will block CPU until transmission
1416:Generated_Source\PSoC5/UART_LOG.c ****     *     complete.
1417:Generated_Source\PSoC5/UART_LOG.c ****     *  2) User may want to use blocking time if UART configured to the low speed
1418:Generated_Source\PSoC5/UART_LOG.c ****     *     operation
1419:Generated_Source\PSoC5/UART_LOG.c ****     *     Example for this case:
1420:Generated_Source\PSoC5/UART_LOG.c ****     *     SendBreak(0);     - initialize Break signal transmission
1421:Generated_Source\PSoC5/UART_LOG.c ****     *         Add your code here to use CPU time
1422:Generated_Source\PSoC5/UART_LOG.c ****     *     SendBreak(1);     - complete Break operation
1423:Generated_Source\PSoC5/UART_LOG.c ****     *  3) Same to 2) but user may want to initialize and use the interrupt to
1424:Generated_Source\PSoC5/UART_LOG.c ****     *     complete break operation.
1425:Generated_Source\PSoC5/UART_LOG.c ****     *     Example for this case:
1426:Generated_Source\PSoC5/UART_LOG.c ****     *     Initialize TX interrupt with "TX - On TX Complete" parameter
1427:Generated_Source\PSoC5/UART_LOG.c ****     *     SendBreak(0);     - initialize Break signal transmission
1428:Generated_Source\PSoC5/UART_LOG.c ****     *         Add your code here to use CPU time
1429:Generated_Source\PSoC5/UART_LOG.c ****     *     When interrupt appear with UART_LOG_TX_STS_COMPLETE status:
1430:Generated_Source\PSoC5/UART_LOG.c ****     *     SendBreak(2);     - complete Break operation
1431:Generated_Source\PSoC5/UART_LOG.c ****     *
1432:Generated_Source\PSoC5/UART_LOG.c ****     * Side Effects:
1433:Generated_Source\PSoC5/UART_LOG.c ****     *  The UART_LOG_SendBreak() function initializes registers to send a
1434:Generated_Source\PSoC5/UART_LOG.c ****     *  break signal.
1435:Generated_Source\PSoC5/UART_LOG.c ****     *  Break signal length depends on the break signal bits configuration.
1436:Generated_Source\PSoC5/UART_LOG.c ****     *  The register configuration should be reinitialized before normal 8-bit
1437:Generated_Source\PSoC5/UART_LOG.c ****     *  communication can continue.
1438:Generated_Source\PSoC5/UART_LOG.c ****     *
1439:Generated_Source\PSoC5/UART_LOG.c ****     *******************************************************************************/
1440:Generated_Source\PSoC5/UART_LOG.c ****     void UART_LOG_SendBreak(uint8 retMode) 
1441:Generated_Source\PSoC5/UART_LOG.c ****     {
 1084              		.loc 1 1441 0
 1085              		.cfi_startproc
 1086              		@ args = 0, pretend = 0, frame = 0
 1087              		@ frame_needed = 0, uses_anonymous_args = 0
 1088              		@ link register save eliminated.
 1089              	.LVL69:
1442:Generated_Source\PSoC5/UART_LOG.c **** 
1443:Generated_Source\PSoC5/UART_LOG.c ****         /* If not Initialized then skip this function*/
1444:Generated_Source\PSoC5/UART_LOG.c ****         if(UART_LOG_initVar != 0u)
 1090              		.loc 1 1444 0
 1091 0000 124B     		ldr	r3, .L114
 1092 0002 1B78     		ldrb	r3, [r3]	@ zero_extendqisi2
 1093 0004 0BB3     		cbz	r3, .L107
 1094              	.LBB2:
1445:Generated_Source\PSoC5/UART_LOG.c ****         {
1446:Generated_Source\PSoC5/UART_LOG.c ****             /* Set the Counter to 13-bits and transmit a 00 byte */
1447:Generated_Source\PSoC5/UART_LOG.c ****             /* When that is done then reset the counter value back */
1448:Generated_Source\PSoC5/UART_LOG.c ****             uint8 tmpStat;
1449:Generated_Source\PSoC5/UART_LOG.c **** 
1450:Generated_Source\PSoC5/UART_LOG.c ****         #if(UART_LOG_HD_ENABLED) /* Half Duplex mode*/
1451:Generated_Source\PSoC5/UART_LOG.c **** 
1452:Generated_Source\PSoC5/UART_LOG.c ****             if( (retMode == UART_LOG_SEND_BREAK) ||
1453:Generated_Source\PSoC5/UART_LOG.c ****                 (retMode == UART_LOG_SEND_WAIT_REINIT ) )
1454:Generated_Source\PSoC5/UART_LOG.c ****             {
1455:Generated_Source\PSoC5/UART_LOG.c ****                 /* CTRL_HD_SEND_BREAK - sends break bits in HD mode */
1456:Generated_Source\PSoC5/UART_LOG.c ****                 UART_LOG_WriteControlRegister(UART_LOG_ReadControlRegister() |
1457:Generated_Source\PSoC5/UART_LOG.c ****                                                       UART_LOG_CTRL_HD_SEND_BREAK);
1458:Generated_Source\PSoC5/UART_LOG.c ****                 /* Send zeros */
ARM GAS  C:\Users\rbhar\AppData\Local\Temp\ccaqTdDy.s 			page 46


1459:Generated_Source\PSoC5/UART_LOG.c ****                 UART_LOG_TXDATA_REG = 0u;
1460:Generated_Source\PSoC5/UART_LOG.c **** 
1461:Generated_Source\PSoC5/UART_LOG.c ****                 do /* Wait until transmit starts */
1462:Generated_Source\PSoC5/UART_LOG.c ****                 {
1463:Generated_Source\PSoC5/UART_LOG.c ****                     tmpStat = UART_LOG_TXSTATUS_REG;
1464:Generated_Source\PSoC5/UART_LOG.c ****                 }
1465:Generated_Source\PSoC5/UART_LOG.c ****                 while((tmpStat & UART_LOG_TX_STS_FIFO_EMPTY) != 0u);
1466:Generated_Source\PSoC5/UART_LOG.c ****             }
1467:Generated_Source\PSoC5/UART_LOG.c **** 
1468:Generated_Source\PSoC5/UART_LOG.c ****             if( (retMode == UART_LOG_WAIT_FOR_COMPLETE_REINIT) ||
1469:Generated_Source\PSoC5/UART_LOG.c ****                 (retMode == UART_LOG_SEND_WAIT_REINIT) )
1470:Generated_Source\PSoC5/UART_LOG.c ****             {
1471:Generated_Source\PSoC5/UART_LOG.c ****                 do /* Wait until transmit complete */
1472:Generated_Source\PSoC5/UART_LOG.c ****                 {
1473:Generated_Source\PSoC5/UART_LOG.c ****                     tmpStat = UART_LOG_TXSTATUS_REG;
1474:Generated_Source\PSoC5/UART_LOG.c ****                 }
1475:Generated_Source\PSoC5/UART_LOG.c ****                 while(((uint8)~tmpStat & UART_LOG_TX_STS_COMPLETE) != 0u);
1476:Generated_Source\PSoC5/UART_LOG.c ****             }
1477:Generated_Source\PSoC5/UART_LOG.c **** 
1478:Generated_Source\PSoC5/UART_LOG.c ****             if( (retMode == UART_LOG_WAIT_FOR_COMPLETE_REINIT) ||
1479:Generated_Source\PSoC5/UART_LOG.c ****                 (retMode == UART_LOG_REINIT) ||
1480:Generated_Source\PSoC5/UART_LOG.c ****                 (retMode == UART_LOG_SEND_WAIT_REINIT) )
1481:Generated_Source\PSoC5/UART_LOG.c ****             {
1482:Generated_Source\PSoC5/UART_LOG.c ****                 UART_LOG_WriteControlRegister(UART_LOG_ReadControlRegister() &
1483:Generated_Source\PSoC5/UART_LOG.c ****                                               (uint8)~UART_LOG_CTRL_HD_SEND_BREAK);
1484:Generated_Source\PSoC5/UART_LOG.c ****             }
1485:Generated_Source\PSoC5/UART_LOG.c **** 
1486:Generated_Source\PSoC5/UART_LOG.c ****         #else /* UART_LOG_HD_ENABLED Full Duplex mode */
1487:Generated_Source\PSoC5/UART_LOG.c **** 
1488:Generated_Source\PSoC5/UART_LOG.c ****             static uint8 txPeriod;
1489:Generated_Source\PSoC5/UART_LOG.c **** 
1490:Generated_Source\PSoC5/UART_LOG.c ****             if( (retMode == UART_LOG_SEND_BREAK) ||
 1095              		.loc 1 1490 0
 1096 0006 08B1     		cbz	r0, .L109
 1097              		.loc 1 1490 0 is_stmt 0 discriminator 1
 1098 0008 0328     		cmp	r0, #3
 1099 000a 0DD1     		bne	.L110
 1100              	.L109:
1491:Generated_Source\PSoC5/UART_LOG.c ****                 (retMode == UART_LOG_SEND_WAIT_REINIT) )
1492:Generated_Source\PSoC5/UART_LOG.c ****             {
1493:Generated_Source\PSoC5/UART_LOG.c ****                 /* CTRL_HD_SEND_BREAK - skip to send parity bit at Break signal in Full Duplex mode
1494:Generated_Source\PSoC5/UART_LOG.c ****                 #if( (UART_LOG_PARITY_TYPE != UART_LOG__B_UART__NONE_REVB) || \
1495:Generated_Source\PSoC5/UART_LOG.c ****                                     (UART_LOG_PARITY_TYPE_SW != 0u) )
1496:Generated_Source\PSoC5/UART_LOG.c ****                     UART_LOG_WriteControlRegister(UART_LOG_ReadControlRegister() |
1497:Generated_Source\PSoC5/UART_LOG.c ****                                                           UART_LOG_CTRL_HD_SEND_BREAK);
1498:Generated_Source\PSoC5/UART_LOG.c ****                 #endif /* End UART_LOG_PARITY_TYPE != UART_LOG__B_UART__NONE_REVB  */
1499:Generated_Source\PSoC5/UART_LOG.c **** 
1500:Generated_Source\PSoC5/UART_LOG.c ****                 #if(UART_LOG_TXCLKGEN_DP)
1501:Generated_Source\PSoC5/UART_LOG.c ****                     txPeriod = UART_LOG_TXBITCLKTX_COMPLETE_REG;
 1101              		.loc 1 1501 0 is_stmt 1
 1102 000c 104B     		ldr	r3, .L114+4
 1103 000e 1978     		ldrb	r1, [r3]	@ zero_extendqisi2
 1104 0010 0E4A     		ldr	r2, .L114
 1105 0012 D170     		strb	r1, [r2, #3]
1502:Generated_Source\PSoC5/UART_LOG.c ****                     UART_LOG_TXBITCLKTX_COMPLETE_REG = UART_LOG_TXBITCTR_BREAKBITS;
 1106              		.loc 1 1502 0
 1107 0014 6722     		movs	r2, #103
ARM GAS  C:\Users\rbhar\AppData\Local\Temp\ccaqTdDy.s 			page 47


 1108 0016 1A70     		strb	r2, [r3]
1503:Generated_Source\PSoC5/UART_LOG.c ****                 #else
1504:Generated_Source\PSoC5/UART_LOG.c ****                     txPeriod = UART_LOG_TXBITCTR_PERIOD_REG;
1505:Generated_Source\PSoC5/UART_LOG.c ****                     UART_LOG_TXBITCTR_PERIOD_REG = UART_LOG_TXBITCTR_BREAKBITS8X;
1506:Generated_Source\PSoC5/UART_LOG.c ****                 #endif /* End UART_LOG_TXCLKGEN_DP */
1507:Generated_Source\PSoC5/UART_LOG.c **** 
1508:Generated_Source\PSoC5/UART_LOG.c ****                 /* Send zeros */
1509:Generated_Source\PSoC5/UART_LOG.c ****                 UART_LOG_TXDATA_REG = 0u;
 1109              		.loc 1 1509 0
 1110 0018 0022     		movs	r2, #0
 1111 001a 0D33     		adds	r3, r3, #13
 1112 001c 1A70     		strb	r2, [r3]
 1113              	.L111:
1510:Generated_Source\PSoC5/UART_LOG.c **** 
1511:Generated_Source\PSoC5/UART_LOG.c ****                 do /* Wait until transmit starts */
1512:Generated_Source\PSoC5/UART_LOG.c ****                 {
1513:Generated_Source\PSoC5/UART_LOG.c ****                     tmpStat = UART_LOG_TXSTATUS_REG;
 1114              		.loc 1 1513 0 discriminator 1
 1115 001e 0D4B     		ldr	r3, .L114+8
 1116 0020 1B78     		ldrb	r3, [r3]	@ zero_extendqisi2
 1117              	.LVL70:
1514:Generated_Source\PSoC5/UART_LOG.c ****                 }
1515:Generated_Source\PSoC5/UART_LOG.c ****                 while((tmpStat & UART_LOG_TX_STS_FIFO_EMPTY) != 0u);
 1118              		.loc 1 1515 0 discriminator 1
 1119 0022 13F0020F 		tst	r3, #2
 1120 0026 FAD1     		bne	.L111
 1121              	.LVL71:
 1122              	.L110:
1516:Generated_Source\PSoC5/UART_LOG.c ****             }
1517:Generated_Source\PSoC5/UART_LOG.c **** 
1518:Generated_Source\PSoC5/UART_LOG.c ****             if( (retMode == UART_LOG_WAIT_FOR_COMPLETE_REINIT) ||
 1123              		.loc 1 1518 0
 1124 0028 0128     		cmp	r0, #1
 1125 002a 01D0     		beq	.L112
 1126              		.loc 1 1518 0 is_stmt 0 discriminator 1
 1127 002c 0328     		cmp	r0, #3
 1128 002e 04D1     		bne	.L113
 1129              	.L112:
1519:Generated_Source\PSoC5/UART_LOG.c ****                 (retMode == UART_LOG_SEND_WAIT_REINIT) )
1520:Generated_Source\PSoC5/UART_LOG.c ****             {
1521:Generated_Source\PSoC5/UART_LOG.c ****                 do /* Wait until transmit complete */
1522:Generated_Source\PSoC5/UART_LOG.c ****                 {
1523:Generated_Source\PSoC5/UART_LOG.c ****                     tmpStat = UART_LOG_TXSTATUS_REG;
 1130              		.loc 1 1523 0 is_stmt 1 discriminator 1
 1131 0030 084B     		ldr	r3, .L114+8
 1132 0032 1B78     		ldrb	r3, [r3]	@ zero_extendqisi2
 1133              	.LVL72:
1524:Generated_Source\PSoC5/UART_LOG.c ****                 }
1525:Generated_Source\PSoC5/UART_LOG.c ****                 while(((uint8)~tmpStat & UART_LOG_TX_STS_COMPLETE) != 0u);
 1134              		.loc 1 1525 0 discriminator 1
 1135 0034 13F0010F 		tst	r3, #1
 1136 0038 FAD0     		beq	.L112
 1137              	.LVL73:
 1138              	.L113:
1526:Generated_Source\PSoC5/UART_LOG.c ****             }
1527:Generated_Source\PSoC5/UART_LOG.c **** 
1528:Generated_Source\PSoC5/UART_LOG.c ****             if( (retMode == UART_LOG_WAIT_FOR_COMPLETE_REINIT) ||
ARM GAS  C:\Users\rbhar\AppData\Local\Temp\ccaqTdDy.s 			page 48


1529:Generated_Source\PSoC5/UART_LOG.c ****                 (retMode == UART_LOG_REINIT) ||
 1139              		.loc 1 1529 0
 1140 003a 0138     		subs	r0, r0, #1
 1141              	.LVL74:
 1142 003c C0B2     		uxtb	r0, r0
1528:Generated_Source\PSoC5/UART_LOG.c ****                 (retMode == UART_LOG_REINIT) ||
 1143              		.loc 1 1528 0
 1144 003e 0228     		cmp	r0, #2
 1145 0040 03D8     		bhi	.L107
1530:Generated_Source\PSoC5/UART_LOG.c ****                 (retMode == UART_LOG_SEND_WAIT_REINIT) )
1531:Generated_Source\PSoC5/UART_LOG.c ****             {
1532:Generated_Source\PSoC5/UART_LOG.c **** 
1533:Generated_Source\PSoC5/UART_LOG.c ****             #if(UART_LOG_TXCLKGEN_DP)
1534:Generated_Source\PSoC5/UART_LOG.c ****                 UART_LOG_TXBITCLKTX_COMPLETE_REG = txPeriod;
 1146              		.loc 1 1534 0
 1147 0042 024B     		ldr	r3, .L114
 1148 0044 DA78     		ldrb	r2, [r3, #3]	@ zero_extendqisi2
 1149 0046 024B     		ldr	r3, .L114+4
 1150 0048 1A70     		strb	r2, [r3]
 1151              	.L107:
 1152 004a 7047     		bx	lr
 1153              	.L115:
 1154              		.align	2
 1155              	.L114:
 1156 004c 00000000 		.word	.LANCHOR0
 1157 0050 33640040 		.word	1073767475
 1158 0054 63640040 		.word	1073767523
 1159              	.LBE2:
 1160              		.cfi_endproc
 1161              	.LFE25:
 1162              		.size	UART_LOG_SendBreak, .-UART_LOG_SendBreak
 1163              		.section	.text.UART_LOG_SetTxAddressMode,"ax",%progbits
 1164              		.align	2
 1165              		.global	UART_LOG_SetTxAddressMode
 1166              		.thumb
 1167              		.thumb_func
 1168              		.type	UART_LOG_SetTxAddressMode, %function
 1169              	UART_LOG_SetTxAddressMode:
 1170              	.LFB26:
1535:Generated_Source\PSoC5/UART_LOG.c ****             #else
1536:Generated_Source\PSoC5/UART_LOG.c ****                 UART_LOG_TXBITCTR_PERIOD_REG = txPeriod;
1537:Generated_Source\PSoC5/UART_LOG.c ****             #endif /* End UART_LOG_TXCLKGEN_DP */
1538:Generated_Source\PSoC5/UART_LOG.c **** 
1539:Generated_Source\PSoC5/UART_LOG.c ****             #if( (UART_LOG_PARITY_TYPE != UART_LOG__B_UART__NONE_REVB) || \
1540:Generated_Source\PSoC5/UART_LOG.c ****                  (UART_LOG_PARITY_TYPE_SW != 0u) )
1541:Generated_Source\PSoC5/UART_LOG.c ****                 UART_LOG_WriteControlRegister(UART_LOG_ReadControlRegister() &
1542:Generated_Source\PSoC5/UART_LOG.c ****                                                       (uint8) ~UART_LOG_CTRL_HD_SEND_BREAK);
1543:Generated_Source\PSoC5/UART_LOG.c ****             #endif /* End UART_LOG_PARITY_TYPE != NONE */
1544:Generated_Source\PSoC5/UART_LOG.c ****             }
1545:Generated_Source\PSoC5/UART_LOG.c ****         #endif    /* End UART_LOG_HD_ENABLED */
1546:Generated_Source\PSoC5/UART_LOG.c ****         }
1547:Generated_Source\PSoC5/UART_LOG.c ****     }
1548:Generated_Source\PSoC5/UART_LOG.c **** 
1549:Generated_Source\PSoC5/UART_LOG.c **** 
1550:Generated_Source\PSoC5/UART_LOG.c ****     /*******************************************************************************
1551:Generated_Source\PSoC5/UART_LOG.c ****     * Function Name: UART_LOG_SetTxAddressMode
1552:Generated_Source\PSoC5/UART_LOG.c ****     ********************************************************************************
ARM GAS  C:\Users\rbhar\AppData\Local\Temp\ccaqTdDy.s 			page 49


1553:Generated_Source\PSoC5/UART_LOG.c ****     *
1554:Generated_Source\PSoC5/UART_LOG.c ****     * Summary:
1555:Generated_Source\PSoC5/UART_LOG.c ****     *  Configures the transmitter to signal the next bytes is address or data.
1556:Generated_Source\PSoC5/UART_LOG.c ****     *
1557:Generated_Source\PSoC5/UART_LOG.c ****     * Parameters:
1558:Generated_Source\PSoC5/UART_LOG.c ****     *  addressMode: 
1559:Generated_Source\PSoC5/UART_LOG.c ****     *       UART_LOG_SET_SPACE - Configure the transmitter to send the next
1560:Generated_Source\PSoC5/UART_LOG.c ****     *                                    byte as a data.
1561:Generated_Source\PSoC5/UART_LOG.c ****     *       UART_LOG_SET_MARK  - Configure the transmitter to send the next
1562:Generated_Source\PSoC5/UART_LOG.c ****     *                                    byte as an address.
1563:Generated_Source\PSoC5/UART_LOG.c ****     *
1564:Generated_Source\PSoC5/UART_LOG.c ****     * Return:
1565:Generated_Source\PSoC5/UART_LOG.c ****     *  None.
1566:Generated_Source\PSoC5/UART_LOG.c ****     *
1567:Generated_Source\PSoC5/UART_LOG.c ****     * Side Effects:
1568:Generated_Source\PSoC5/UART_LOG.c ****     *  This function sets and clears UART_LOG_CTRL_MARK bit in the Control
1569:Generated_Source\PSoC5/UART_LOG.c ****     *  register.
1570:Generated_Source\PSoC5/UART_LOG.c ****     *
1571:Generated_Source\PSoC5/UART_LOG.c ****     *******************************************************************************/
1572:Generated_Source\PSoC5/UART_LOG.c ****     void UART_LOG_SetTxAddressMode(uint8 addressMode) 
1573:Generated_Source\PSoC5/UART_LOG.c ****     {
 1171              		.loc 1 1573 0
 1172              		.cfi_startproc
 1173              		@ args = 0, pretend = 0, frame = 0
 1174              		@ frame_needed = 0, uses_anonymous_args = 0
 1175              		@ link register save eliminated.
 1176              	.LVL75:
 1177 0000 7047     		bx	lr
 1178              		.cfi_endproc
 1179              	.LFE26:
 1180              		.size	UART_LOG_SetTxAddressMode, .-UART_LOG_SetTxAddressMode
 1181              		.global	UART_LOG_txBufferWrite
 1182              		.global	UART_LOG_txBufferRead
 1183              		.comm	UART_LOG_txBuffer,16,4
 1184              		.global	UART_LOG_initVar
 1185 0002 00BF     		.bss
 1186              		.set	.LANCHOR0,. + 0
 1187              		.type	UART_LOG_initVar, %object
 1188              		.size	UART_LOG_initVar, 1
 1189              	UART_LOG_initVar:
 1190 0000 00       		.space	1
 1191              		.type	UART_LOG_txBufferRead, %object
 1192              		.size	UART_LOG_txBufferRead, 1
 1193              	UART_LOG_txBufferRead:
 1194 0001 00       		.space	1
 1195              		.type	UART_LOG_txBufferWrite, %object
 1196              		.size	UART_LOG_txBufferWrite, 1
 1197              	UART_LOG_txBufferWrite:
 1198 0002 00       		.space	1
 1199              		.type	txPeriod.5131, %object
 1200              		.size	txPeriod.5131, 1
 1201              	txPeriod.5131:
 1202 0003 00       		.space	1
 1203              		.text
 1204              	.Letext0:
 1205              		.file 2 "Generated_Source\\PSoC5\\cytypes.h"
 1206              		.file 3 "Generated_Source\\PSoC5\\CyLib.h"
ARM GAS  C:\Users\rbhar\AppData\Local\Temp\ccaqTdDy.s 			page 50


 1207              		.file 4 "Generated_Source\\PSoC5\\UART_LOG_IntClock.h"
 1208              		.section	.debug_info,"",%progbits
 1209              	.Ldebug_info0:
 1210 0000 CD060000 		.4byte	0x6cd
 1211 0004 0400     		.2byte	0x4
 1212 0006 00000000 		.4byte	.Ldebug_abbrev0
 1213 000a 04       		.byte	0x4
 1214 000b 01       		.uleb128 0x1
 1215 000c 41030000 		.4byte	.LASF75
 1216 0010 0C       		.byte	0xc
 1217 0011 65000000 		.4byte	.LASF76
 1218 0015 3C050000 		.4byte	.LASF77
 1219 0019 00000000 		.4byte	.Ldebug_ranges0+0
 1220 001d 00000000 		.4byte	0
 1221 0021 00000000 		.4byte	.Ldebug_line0
 1222 0025 02       		.uleb128 0x2
 1223 0026 01       		.byte	0x1
 1224 0027 06       		.byte	0x6
 1225 0028 CF000000 		.4byte	.LASF0
 1226 002c 02       		.uleb128 0x2
 1227 002d 01       		.byte	0x1
 1228 002e 08       		.byte	0x8
 1229 002f FC020000 		.4byte	.LASF1
 1230 0033 02       		.uleb128 0x2
 1231 0034 02       		.byte	0x2
 1232 0035 05       		.byte	0x5
 1233 0036 1B030000 		.4byte	.LASF2
 1234 003a 02       		.uleb128 0x2
 1235 003b 02       		.byte	0x2
 1236 003c 07       		.byte	0x7
 1237 003d DE010000 		.4byte	.LASF3
 1238 0041 02       		.uleb128 0x2
 1239 0042 04       		.byte	0x4
 1240 0043 05       		.byte	0x5
 1241 0044 F5000000 		.4byte	.LASF4
 1242 0048 02       		.uleb128 0x2
 1243 0049 04       		.byte	0x4
 1244 004a 07       		.byte	0x7
 1245 004b 85010000 		.4byte	.LASF5
 1246 004f 02       		.uleb128 0x2
 1247 0050 08       		.byte	0x8
 1248 0051 05       		.byte	0x5
 1249 0052 C1000000 		.4byte	.LASF6
 1250 0056 02       		.uleb128 0x2
 1251 0057 08       		.byte	0x8
 1252 0058 07       		.byte	0x7
 1253 0059 87000000 		.4byte	.LASF7
 1254 005d 03       		.uleb128 0x3
 1255 005e 04       		.byte	0x4
 1256 005f 05       		.byte	0x5
 1257 0060 696E7400 		.ascii	"int\000"
 1258 0064 02       		.uleb128 0x2
 1259 0065 04       		.byte	0x4
 1260 0066 07       		.byte	0x7
 1261 0067 78010000 		.4byte	.LASF8
 1262 006b 04       		.uleb128 0x4
 1263 006c 12010000 		.4byte	.LASF9
ARM GAS  C:\Users\rbhar\AppData\Local\Temp\ccaqTdDy.s 			page 51


 1264 0070 02       		.byte	0x2
 1265 0071 E401     		.2byte	0x1e4
 1266 0073 2C000000 		.4byte	0x2c
 1267 0077 04       		.uleb128 0x4
 1268 0078 00000000 		.4byte	.LASF10
 1269 007c 02       		.byte	0x2
 1270 007d E501     		.2byte	0x1e5
 1271 007f 3A000000 		.4byte	0x3a
 1272 0083 04       		.uleb128 0x4
 1273 0084 3A010000 		.4byte	.LASF11
 1274 0088 02       		.byte	0x2
 1275 0089 E601     		.2byte	0x1e6
 1276 008b 48000000 		.4byte	0x48
 1277 008f 02       		.uleb128 0x2
 1278 0090 04       		.byte	0x4
 1279 0091 04       		.byte	0x4
 1280 0092 AA020000 		.4byte	.LASF12
 1281 0096 02       		.uleb128 0x2
 1282 0097 08       		.byte	0x8
 1283 0098 04       		.byte	0x4
 1284 0099 18010000 		.4byte	.LASF13
 1285 009d 04       		.uleb128 0x4
 1286 009e 59040000 		.4byte	.LASF14
 1287 00a2 02       		.byte	0x2
 1288 00a3 F501     		.2byte	0x1f5
 1289 00a5 A9000000 		.4byte	0xa9
 1290 00a9 02       		.uleb128 0x2
 1291 00aa 01       		.byte	0x1
 1292 00ab 08       		.byte	0x8
 1293 00ac 19040000 		.4byte	.LASF15
 1294 00b0 04       		.uleb128 0x4
 1295 00b1 F7020000 		.4byte	.LASF16
 1296 00b5 02       		.byte	0x2
 1297 00b6 8E02     		.2byte	0x28e
 1298 00b8 BC000000 		.4byte	0xbc
 1299 00bc 05       		.uleb128 0x5
 1300 00bd 6B000000 		.4byte	0x6b
 1301 00c1 04       		.uleb128 0x4
 1302 00c2 27020000 		.4byte	.LASF17
 1303 00c6 02       		.byte	0x2
 1304 00c7 9002     		.2byte	0x290
 1305 00c9 CD000000 		.4byte	0xcd
 1306 00cd 05       		.uleb128 0x5
 1307 00ce 83000000 		.4byte	0x83
 1308 00d2 02       		.uleb128 0x2
 1309 00d3 08       		.byte	0x8
 1310 00d4 04       		.byte	0x4
 1311 00d5 3E020000 		.4byte	.LASF18
 1312 00d9 02       		.uleb128 0x2
 1313 00da 04       		.byte	0x4
 1314 00db 07       		.byte	0x7
 1315 00dc 35020000 		.4byte	.LASF19
 1316 00e0 06       		.uleb128 0x6
 1317 00e1 68020000 		.4byte	.LASF20
 1318 00e5 01       		.byte	0x1
 1319 00e6 6A       		.byte	0x6a
 1320 00e7 00000000 		.4byte	.LFB1
ARM GAS  C:\Users\rbhar\AppData\Local\Temp\ccaqTdDy.s 			page 52


 1321 00eb 40000000 		.4byte	.LFE1-.LFB1
 1322 00ef 01       		.uleb128 0x1
 1323 00f0 9C       		.byte	0x9c
 1324 00f1 1D010000 		.4byte	0x11d
 1325 00f5 07       		.uleb128 0x7
 1326 00f6 16000000 		.4byte	.LVL0
 1327 00fa 8E060000 		.4byte	0x68e
 1328 00fe 08010000 		.4byte	0x108
 1329 0102 08       		.uleb128 0x8
 1330 0103 01       		.uleb128 0x1
 1331 0104 50       		.byte	0x50
 1332 0105 01       		.uleb128 0x1
 1333 0106 30       		.byte	0x30
 1334 0107 00       		.byte	0
 1335 0108 09       		.uleb128 0x9
 1336 0109 1E000000 		.4byte	.LVL1
 1337 010d 99060000 		.4byte	0x699
 1338 0111 08       		.uleb128 0x8
 1339 0112 01       		.uleb128 0x1
 1340 0113 50       		.byte	0x50
 1341 0114 01       		.uleb128 0x1
 1342 0115 30       		.byte	0x30
 1343 0116 08       		.uleb128 0x8
 1344 0117 01       		.uleb128 0x1
 1345 0118 51       		.byte	0x51
 1346 0119 01       		.uleb128 0x1
 1347 011a 37       		.byte	0x37
 1348 011b 00       		.byte	0
 1349 011c 00       		.byte	0
 1350 011d 06       		.uleb128 0x6
 1351 011e 49040000 		.4byte	.LASF21
 1352 0122 01       		.byte	0x1
 1353 0123 B7       		.byte	0xb7
 1354 0124 00000000 		.4byte	.LFB2
 1355 0128 48000000 		.4byte	.LFE2-.LFB2
 1356 012c 01       		.uleb128 0x1
 1357 012d 9C       		.byte	0x9c
 1358 012e 64010000 		.4byte	0x164
 1359 0132 0A       		.uleb128 0xa
 1360 0133 B8040000 		.4byte	.LASF24
 1361 0137 01       		.byte	0x1
 1362 0138 B9       		.byte	0xb9
 1363 0139 6B000000 		.4byte	0x6b
 1364 013d 00000000 		.4byte	.LLST0
 1365 0141 0B       		.uleb128 0xb
 1366 0142 06000000 		.4byte	.LVL2
 1367 0146 A4060000 		.4byte	0x6a4
 1368 014a 0B       		.uleb128 0xb
 1369 014b 36000000 		.4byte	.LVL4
 1370 014f AF060000 		.4byte	0x6af
 1371 0153 09       		.uleb128 0x9
 1372 0154 3C000000 		.4byte	.LVL5
 1373 0158 BA060000 		.4byte	0x6ba
 1374 015c 08       		.uleb128 0x8
 1375 015d 01       		.uleb128 0x1
 1376 015e 50       		.byte	0x50
 1377 015f 02       		.uleb128 0x2
ARM GAS  C:\Users\rbhar\AppData\Local\Temp\ccaqTdDy.s 			page 53


 1378 0160 74       		.byte	0x74
 1379 0161 00       		.sleb128 0
 1380 0162 00       		.byte	0
 1381 0163 00       		.byte	0
 1382 0164 06       		.uleb128 0x6
 1383 0165 2B010000 		.4byte	.LASF22
 1384 0169 01       		.byte	0x1
 1385 016a 4C       		.byte	0x4c
 1386 016b 00000000 		.4byte	.LFB0
 1387 016f 1C000000 		.4byte	.LFE0-.LFB0
 1388 0173 01       		.uleb128 0x1
 1389 0174 9C       		.byte	0x9c
 1390 0175 8C010000 		.4byte	0x18c
 1391 0179 0B       		.uleb128 0xb
 1392 017a 0C000000 		.4byte	.LVL7
 1393 017e E0000000 		.4byte	0xe0
 1394 0182 0B       		.uleb128 0xb
 1395 0183 16000000 		.4byte	.LVL8
 1396 0187 1D010000 		.4byte	0x11d
 1397 018b 00       		.byte	0
 1398 018c 06       		.uleb128 0x6
 1399 018d 9E000000 		.4byte	.LASF23
 1400 0191 01       		.byte	0x1
 1401 0192 F0       		.byte	0xf0
 1402 0193 00000000 		.4byte	.LFB3
 1403 0197 44000000 		.4byte	.LFE3-.LFB3
 1404 019b 01       		.uleb128 0x1
 1405 019c 9C       		.byte	0x9c
 1406 019d D3010000 		.4byte	0x1d3
 1407 01a1 0A       		.uleb128 0xa
 1408 01a2 B8040000 		.4byte	.LASF24
 1409 01a6 01       		.byte	0x1
 1410 01a7 F2       		.byte	0xf2
 1411 01a8 6B000000 		.4byte	0x6b
 1412 01ac 13000000 		.4byte	.LLST1
 1413 01b0 0B       		.uleb128 0xb
 1414 01b1 06000000 		.4byte	.LVL9
 1415 01b5 A4060000 		.4byte	0x6a4
 1416 01b9 0B       		.uleb128 0xb
 1417 01ba 16000000 		.4byte	.LVL11
 1418 01be C5060000 		.4byte	0x6c5
 1419 01c2 09       		.uleb128 0x9
 1420 01c3 36000000 		.4byte	.LVL12
 1421 01c7 BA060000 		.4byte	0x6ba
 1422 01cb 08       		.uleb128 0x8
 1423 01cc 01       		.uleb128 0x1
 1424 01cd 50       		.byte	0x50
 1425 01ce 02       		.uleb128 0x2
 1426 01cf 74       		.byte	0x74
 1427 01d0 00       		.sleb128 0
 1428 01d1 00       		.byte	0
 1429 01d2 00       		.byte	0
 1430 01d3 0C       		.uleb128 0xc
 1431 01d4 07000000 		.4byte	.LASF47
 1432 01d8 01       		.byte	0x1
 1433 01d9 2701     		.2byte	0x127
 1434 01db 6B000000 		.4byte	0x6b
ARM GAS  C:\Users\rbhar\AppData\Local\Temp\ccaqTdDy.s 			page 54


 1435 01df 00000000 		.4byte	.LFB4
 1436 01e3 04000000 		.4byte	.LFE4-.LFB4
 1437 01e7 01       		.uleb128 0x1
 1438 01e8 9C       		.byte	0x9c
 1439 01e9 0D       		.uleb128 0xd
 1440 01ea C6020000 		.4byte	.LASF25
 1441 01ee 01       		.byte	0x1
 1442 01ef 3F01     		.2byte	0x13f
 1443 01f1 00000000 		.4byte	.LFB5
 1444 01f5 02000000 		.4byte	.LFE5-.LFB5
 1445 01f9 01       		.uleb128 0x1
 1446 01fa 9C       		.byte	0x9c
 1447 01fb 0E020000 		.4byte	0x20e
 1448 01ff 0E       		.uleb128 0xe
 1449 0200 41010000 		.4byte	.LASF27
 1450 0204 01       		.byte	0x1
 1451 0205 3F01     		.2byte	0x13f
 1452 0207 6B000000 		.4byte	0x6b
 1453 020b 01       		.uleb128 0x1
 1454 020c 50       		.byte	0x50
 1455 020d 00       		.byte	0
 1456 020e 0D       		.uleb128 0xd
 1457 020f 77040000 		.4byte	.LASF26
 1458 0213 01       		.byte	0x1
 1459 0214 6701     		.2byte	0x167
 1460 0216 00000000 		.4byte	.LFB6
 1461 021a 0C000000 		.4byte	.LFE6-.LFB6
 1462 021e 01       		.uleb128 0x1
 1463 021f 9C       		.byte	0x9c
 1464 0220 33020000 		.4byte	0x233
 1465 0224 0E       		.uleb128 0xe
 1466 0225 09020000 		.4byte	.LASF28
 1467 0229 01       		.byte	0x1
 1468 022a 6701     		.2byte	0x167
 1469 022c 6B000000 		.4byte	0x6b
 1470 0230 01       		.uleb128 0x1
 1471 0231 50       		.byte	0x50
 1472 0232 00       		.byte	0
 1473 0233 0F       		.uleb128 0xf
 1474 0234 FE000000 		.4byte	.LASF30
 1475 0238 01       		.byte	0x1
 1476 0239 8801     		.2byte	0x188
 1477 023b 6B000000 		.4byte	0x6b
 1478 023f 00000000 		.4byte	.LFB7
 1479 0243 0C000000 		.4byte	.LFE7-.LFB7
 1480 0247 01       		.uleb128 0x1
 1481 0248 9C       		.byte	0x9c
 1482 0249 5C020000 		.4byte	0x25c
 1483 024d 10       		.uleb128 0x10
 1484 024e 01040000 		.4byte	.LASF29
 1485 0252 01       		.byte	0x1
 1486 0253 8A01     		.2byte	0x18a
 1487 0255 6B000000 		.4byte	0x6b
 1488 0259 01       		.uleb128 0x1
 1489 025a 50       		.byte	0x50
 1490 025b 00       		.byte	0
 1491 025c 0F       		.uleb128 0xf
ARM GAS  C:\Users\rbhar\AppData\Local\Temp\ccaqTdDy.s 			page 55


 1492 025d 4A020000 		.4byte	.LASF31
 1493 0261 01       		.byte	0x1
 1494 0262 E501     		.2byte	0x1e5
 1495 0264 6B000000 		.4byte	0x6b
 1496 0268 00000000 		.4byte	.LFB8
 1497 026c 10000000 		.4byte	.LFE8-.LFB8
 1498 0270 01       		.uleb128 0x1
 1499 0271 9C       		.byte	0x9c
 1500 0272 87020000 		.4byte	0x287
 1501 0276 11       		.uleb128 0x11
 1502 0277 C9040000 		.4byte	.LASF32
 1503 027b 01       		.byte	0x1
 1504 027c E701     		.2byte	0x1e7
 1505 027e 6B000000 		.4byte	0x6b
 1506 0282 26000000 		.4byte	.LLST2
 1507 0286 00       		.byte	0
 1508 0287 0F       		.uleb128 0xf
 1509 0288 0A030000 		.4byte	.LASF33
 1510 028c 01       		.byte	0x1
 1511 028d 1402     		.2byte	0x214
 1512 028f 6B000000 		.4byte	0x6b
 1513 0293 00000000 		.4byte	.LFB9
 1514 0297 2C000000 		.4byte	.LFE9-.LFB9
 1515 029b 01       		.uleb128 0x1
 1516 029c 9C       		.byte	0x9c
 1517 029d C0020000 		.4byte	0x2c0
 1518 02a1 11       		.uleb128 0x11
 1519 02a2 01040000 		.4byte	.LASF29
 1520 02a6 01       		.byte	0x1
 1521 02a7 1602     		.2byte	0x216
 1522 02a9 6B000000 		.4byte	0x6b
 1523 02ad 3E000000 		.4byte	.LLST3
 1524 02b1 10       		.uleb128 0x10
 1525 02b2 76020000 		.4byte	.LASF34
 1526 02b6 01       		.byte	0x1
 1527 02b7 1702     		.2byte	0x217
 1528 02b9 6B000000 		.4byte	0x6b
 1529 02bd 01       		.uleb128 0x1
 1530 02be 53       		.byte	0x53
 1531 02bf 00       		.byte	0
 1532 02c0 0F       		.uleb128 0xf
 1533 02c1 E4000000 		.4byte	.LASF35
 1534 02c5 01       		.byte	0x1
 1535 02c6 7A02     		.2byte	0x27a
 1536 02c8 77000000 		.4byte	0x77
 1537 02cc 00000000 		.4byte	.LFB10
 1538 02d0 12000000 		.4byte	.LFE10-.LFB10
 1539 02d4 01       		.uleb128 0x1
 1540 02d5 9C       		.byte	0x9c
 1541 02d6 ED020000 		.4byte	0x2ed
 1542 02da 0B       		.uleb128 0xb
 1543 02db 06000000 		.4byte	.LVL25
 1544 02df 5C020000 		.4byte	0x25c
 1545 02e3 0B       		.uleb128 0xb
 1546 02e4 0C000000 		.4byte	.LVL26
 1547 02e8 33020000 		.4byte	0x233
 1548 02ec 00       		.byte	0
ARM GAS  C:\Users\rbhar\AppData\Local\Temp\ccaqTdDy.s 			page 56


 1549 02ed 0F       		.uleb128 0xf
 1550 02ee 45000000 		.4byte	.LASF36
 1551 02f2 01       		.byte	0x1
 1552 02f3 AB02     		.2byte	0x2ab
 1553 02f5 6B000000 		.4byte	0x6b
 1554 02f9 00000000 		.4byte	.LFB11
 1555 02fd 18000000 		.4byte	.LFE11-.LFB11
 1556 0301 01       		.uleb128 0x1
 1557 0302 9C       		.byte	0x9c
 1558 0303 16030000 		.4byte	0x316
 1559 0307 10       		.uleb128 0x10
 1560 0308 D9010000 		.4byte	.LASF37
 1561 030c 01       		.byte	0x1
 1562 030d AE02     		.2byte	0x2ae
 1563 030f 6B000000 		.4byte	0x6b
 1564 0313 01       		.uleb128 0x1
 1565 0314 50       		.byte	0x50
 1566 0315 00       		.byte	0
 1567 0316 0D       		.uleb128 0xd
 1568 0317 10020000 		.4byte	.LASF38
 1569 031b 01       		.byte	0x1
 1570 031c F502     		.2byte	0x2f5
 1571 031e 00000000 		.4byte	.LFB12
 1572 0322 24000000 		.4byte	.LFE12-.LFB12
 1573 0326 01       		.uleb128 0x1
 1574 0327 9C       		.byte	0x9c
 1575 0328 4F030000 		.4byte	0x34f
 1576 032c 11       		.uleb128 0x11
 1577 032d B8040000 		.4byte	.LASF24
 1578 0331 01       		.byte	0x1
 1579 0332 F702     		.2byte	0x2f7
 1580 0334 6B000000 		.4byte	0x6b
 1581 0338 74000000 		.4byte	.LLST4
 1582 033c 0B       		.uleb128 0xb
 1583 033d 06000000 		.4byte	.LVL28
 1584 0341 A4060000 		.4byte	0x6a4
 1585 0345 0B       		.uleb128 0xb
 1586 0346 1C000000 		.4byte	.LVL29
 1587 034a BA060000 		.4byte	0x6ba
 1588 034e 00       		.byte	0
 1589 034f 0D       		.uleb128 0xd
 1590 0350 7F020000 		.4byte	.LASF39
 1591 0354 01       		.byte	0x1
 1592 0355 2D03     		.2byte	0x32d
 1593 0357 00000000 		.4byte	.LFB13
 1594 035b 02000000 		.4byte	.LFE13-.LFB13
 1595 035f 01       		.uleb128 0x1
 1596 0360 9C       		.byte	0x9c
 1597 0361 74030000 		.4byte	0x374
 1598 0365 0E       		.uleb128 0xe
 1599 0366 1F010000 		.4byte	.LASF40
 1600 036a 01       		.byte	0x1
 1601 036b 2D03     		.2byte	0x32d
 1602 036d 6B000000 		.4byte	0x6b
 1603 0371 01       		.uleb128 0x1
 1604 0372 50       		.byte	0x50
 1605 0373 00       		.byte	0
ARM GAS  C:\Users\rbhar\AppData\Local\Temp\ccaqTdDy.s 			page 57


 1606 0374 0D       		.uleb128 0xd
 1607 0375 F7040000 		.4byte	.LASF41
 1608 0379 01       		.byte	0x1
 1609 037a 5903     		.2byte	0x359
 1610 037c 00000000 		.4byte	.LFB14
 1611 0380 0C000000 		.4byte	.LFE14-.LFB14
 1612 0384 01       		.uleb128 0x1
 1613 0385 9C       		.byte	0x9c
 1614 0386 99030000 		.4byte	0x399
 1615 038a 0E       		.uleb128 0xe
 1616 038b 60020000 		.4byte	.LASF42
 1617 038f 01       		.byte	0x1
 1618 0390 5903     		.2byte	0x359
 1619 0392 6B000000 		.4byte	0x6b
 1620 0396 01       		.uleb128 0x1
 1621 0397 50       		.byte	0x50
 1622 0398 00       		.byte	0
 1623 0399 0D       		.uleb128 0xd
 1624 039a 0E050000 		.4byte	.LASF43
 1625 039e 01       		.byte	0x1
 1626 039f 6D03     		.2byte	0x36d
 1627 03a1 00000000 		.4byte	.LFB15
 1628 03a5 0C000000 		.4byte	.LFE15-.LFB15
 1629 03a9 01       		.uleb128 0x1
 1630 03aa 9C       		.byte	0x9c
 1631 03ab BE030000 		.4byte	0x3be
 1632 03af 0E       		.uleb128 0xe
 1633 03b0 60020000 		.4byte	.LASF42
 1634 03b4 01       		.byte	0x1
 1635 03b5 6D03     		.2byte	0x36d
 1636 03b7 6B000000 		.4byte	0x6b
 1637 03bb 01       		.uleb128 0x1
 1638 03bc 50       		.byte	0x50
 1639 03bd 00       		.byte	0
 1640 03be 0D       		.uleb128 0xd
 1641 03bf 25030000 		.4byte	.LASF44
 1642 03c3 01       		.byte	0x1
 1643 03c4 8C03     		.2byte	0x38c
 1644 03c6 00000000 		.4byte	.LFB16
 1645 03ca 0C000000 		.4byte	.LFE16-.LFB16
 1646 03ce 01       		.uleb128 0x1
 1647 03cf 9C       		.byte	0x9c
 1648 03d0 E3030000 		.4byte	0x3e3
 1649 03d4 0E       		.uleb128 0xe
 1650 03d5 09020000 		.4byte	.LASF28
 1651 03d9 01       		.byte	0x1
 1652 03da 8C03     		.2byte	0x38c
 1653 03dc 6B000000 		.4byte	0x6b
 1654 03e0 01       		.uleb128 0x1
 1655 03e1 50       		.byte	0x50
 1656 03e2 00       		.byte	0
 1657 03e3 0D       		.uleb128 0xd
 1658 03e4 AC000000 		.4byte	.LASF45
 1659 03e8 01       		.byte	0x1
 1660 03e9 AE03     		.2byte	0x3ae
 1661 03eb 00000000 		.4byte	.LFB17
 1662 03ef 60000000 		.4byte	.LFE17-.LFB17
ARM GAS  C:\Users\rbhar\AppData\Local\Temp\ccaqTdDy.s 			page 58


 1663 03f3 01       		.uleb128 0x1
 1664 03f4 9C       		.byte	0x9c
 1665 03f5 08040000 		.4byte	0x408
 1666 03f9 0E       		.uleb128 0xe
 1667 03fa 3A000000 		.4byte	.LASF46
 1668 03fe 01       		.byte	0x1
 1669 03ff AE03     		.2byte	0x3ae
 1670 0401 6B000000 		.4byte	0x6b
 1671 0405 01       		.uleb128 0x1
 1672 0406 50       		.byte	0x50
 1673 0407 00       		.byte	0
 1674 0408 0C       		.uleb128 0xc
 1675 0409 E1040000 		.4byte	.LASF48
 1676 040d 01       		.byte	0x1
 1677 040e EB03     		.2byte	0x3eb
 1678 0410 6B000000 		.4byte	0x6b
 1679 0414 00000000 		.4byte	.LFB18
 1680 0418 0C000000 		.4byte	.LFE18-.LFB18
 1681 041c 01       		.uleb128 0x1
 1682 041d 9C       		.byte	0x9c
 1683 041e 0D       		.uleb128 0xd
 1684 041f 08040000 		.4byte	.LASF49
 1685 0423 01       		.byte	0x1
 1686 0424 1104     		.2byte	0x411
 1687 0426 00000000 		.4byte	.LFB19
 1688 042a 70000000 		.4byte	.LFE19-.LFB19
 1689 042e 01       		.uleb128 0x1
 1690 042f 9C       		.byte	0x9c
 1691 0430 61040000 		.4byte	0x461
 1692 0434 0E       		.uleb128 0xe
 1693 0435 3A000000 		.4byte	.LASF46
 1694 0439 01       		.byte	0x1
 1695 043a 1104     		.2byte	0x411
 1696 043c 6B000000 		.4byte	0x6b
 1697 0440 01       		.uleb128 0x1
 1698 0441 50       		.byte	0x50
 1699 0442 10       		.uleb128 0x10
 1700 0443 97010000 		.4byte	.LASF50
 1701 0447 01       		.byte	0x1
 1702 0448 1804     		.2byte	0x418
 1703 044a 6B000000 		.4byte	0x6b
 1704 044e 01       		.uleb128 0x1
 1705 044f 51       		.byte	0x51
 1706 0450 11       		.uleb128 0x11
 1707 0451 60010000 		.4byte	.LASF51
 1708 0455 01       		.byte	0x1
 1709 0456 1904     		.2byte	0x419
 1710 0458 6B000000 		.4byte	0x6b
 1711 045c 87000000 		.4byte	.LLST5
 1712 0460 00       		.byte	0
 1713 0461 0D       		.uleb128 0xd
 1714 0462 A5040000 		.4byte	.LASF52
 1715 0466 01       		.byte	0x1
 1716 0467 7904     		.2byte	0x479
 1717 0469 00000000 		.4byte	.LFB20
 1718 046d 24000000 		.4byte	.LFE20-.LFB20
 1719 0471 01       		.uleb128 0x1
ARM GAS  C:\Users\rbhar\AppData\Local\Temp\ccaqTdDy.s 			page 59


 1720 0472 9C       		.byte	0x9c
 1721 0473 A1040000 		.4byte	0x4a1
 1722 0477 12       		.uleb128 0x12
 1723 0478 5E000000 		.4byte	.LASF53
 1724 047c 01       		.byte	0x1
 1725 047d 7904     		.2byte	0x479
 1726 047f A1040000 		.4byte	0x4a1
 1727 0483 9A000000 		.4byte	.LLST6
 1728 0487 11       		.uleb128 0x11
 1729 0488 00020000 		.4byte	.LASF54
 1730 048c 01       		.byte	0x1
 1731 048d 7B04     		.2byte	0x47b
 1732 048f 77000000 		.4byte	0x77
 1733 0493 DC000000 		.4byte	.LLST7
 1734 0497 0B       		.uleb128 0xb
 1735 0498 0E000000 		.4byte	.LVL44
 1736 049c 1E040000 		.4byte	0x41e
 1737 04a0 00       		.byte	0
 1738 04a1 13       		.uleb128 0x13
 1739 04a2 04       		.byte	0x4
 1740 04a3 A7040000 		.4byte	0x4a7
 1741 04a7 14       		.uleb128 0x14
 1742 04a8 9D000000 		.4byte	0x9d
 1743 04ac 0D       		.uleb128 0xd
 1744 04ad 93040000 		.4byte	.LASF55
 1745 04b1 01       		.byte	0x1
 1746 04b2 A704     		.2byte	0x4a7
 1747 04b4 00000000 		.4byte	.LFB21
 1748 04b8 28000000 		.4byte	.LFE21-.LFB21
 1749 04bc 01       		.uleb128 0x1
 1750 04bd 9C       		.byte	0x9c
 1751 04be FC040000 		.4byte	0x4fc
 1752 04c2 12       		.uleb128 0x12
 1753 04c3 5E000000 		.4byte	.LASF53
 1754 04c7 01       		.byte	0x1
 1755 04c8 A704     		.2byte	0x4a7
 1756 04ca FC040000 		.4byte	0x4fc
 1757 04ce 1D010000 		.4byte	.LLST8
 1758 04d2 12       		.uleb128 0x12
 1759 04d3 CF030000 		.4byte	.LASF56
 1760 04d7 01       		.byte	0x1
 1761 04d8 A704     		.2byte	0x4a7
 1762 04da 6B000000 		.4byte	0x6b
 1763 04de 5F010000 		.4byte	.LLST9
 1764 04e2 11       		.uleb128 0x11
 1765 04e3 00020000 		.4byte	.LASF54
 1766 04e7 01       		.byte	0x1
 1767 04e8 AA04     		.2byte	0x4aa
 1768 04ea 6B000000 		.4byte	0x6b
 1769 04ee 99010000 		.4byte	.LLST10
 1770 04f2 0B       		.uleb128 0xb
 1771 04f3 0E000000 		.4byte	.LVL52
 1772 04f7 1E040000 		.4byte	0x41e
 1773 04fb 00       		.byte	0
 1774 04fc 13       		.uleb128 0x13
 1775 04fd 04       		.byte	0x4
 1776 04fe 02050000 		.4byte	0x502
ARM GAS  C:\Users\rbhar\AppData\Local\Temp\ccaqTdDy.s 			page 60


 1777 0502 14       		.uleb128 0x14
 1778 0503 6B000000 		.4byte	0x6b
 1779 0507 0D       		.uleb128 0xd
 1780 0508 D0040000 		.4byte	.LASF57
 1781 050c 01       		.byte	0x1
 1782 050d CE04     		.2byte	0x4ce
 1783 050f 00000000 		.4byte	.LFB22
 1784 0513 20000000 		.4byte	.LFE22-.LFB22
 1785 0517 01       		.uleb128 0x1
 1786 0518 9C       		.byte	0x9c
 1787 0519 59050000 		.4byte	0x559
 1788 051d 12       		.uleb128 0x12
 1789 051e 3A000000 		.4byte	.LASF46
 1790 0522 01       		.byte	0x1
 1791 0523 CE04     		.2byte	0x4ce
 1792 0525 6B000000 		.4byte	0x6b
 1793 0529 DA010000 		.4byte	.LLST11
 1794 052d 0B       		.uleb128 0xb
 1795 052e 0C000000 		.4byte	.LVL59
 1796 0532 1E040000 		.4byte	0x41e
 1797 0536 07       		.uleb128 0x7
 1798 0537 12000000 		.4byte	.LVL60
 1799 053b 1E040000 		.4byte	0x41e
 1800 053f 49050000 		.4byte	0x549
 1801 0543 08       		.uleb128 0x8
 1802 0544 01       		.uleb128 0x1
 1803 0545 50       		.byte	0x50
 1804 0546 01       		.uleb128 0x1
 1805 0547 3D       		.byte	0x3d
 1806 0548 00       		.byte	0
 1807 0549 09       		.uleb128 0x9
 1808 054a 18000000 		.4byte	.LVL61
 1809 054e 1E040000 		.4byte	0x41e
 1810 0552 08       		.uleb128 0x8
 1811 0553 01       		.uleb128 0x1
 1812 0554 50       		.byte	0x50
 1813 0555 01       		.uleb128 0x1
 1814 0556 3A       		.byte	0x3a
 1815 0557 00       		.byte	0
 1816 0558 00       		.byte	0
 1817 0559 0F       		.uleb128 0xf
 1818 055a 1E040000 		.4byte	.LASF58
 1819 055e 01       		.byte	0x1
 1820 055f F904     		.2byte	0x4f9
 1821 0561 6B000000 		.4byte	0x6b
 1822 0565 00000000 		.4byte	.LFB23
 1823 0569 48000000 		.4byte	.LFE23-.LFB23
 1824 056d 01       		.uleb128 0x1
 1825 056e 9C       		.byte	0x9c
 1826 056f 84050000 		.4byte	0x584
 1827 0573 11       		.uleb128 0x11
 1828 0574 D9010000 		.4byte	.LASF37
 1829 0578 01       		.byte	0x1
 1830 0579 FC04     		.2byte	0x4fc
 1831 057b 6B000000 		.4byte	0x6b
 1832 057f FB010000 		.4byte	.LLST12
 1833 0583 00       		.byte	0
ARM GAS  C:\Users\rbhar\AppData\Local\Temp\ccaqTdDy.s 			page 61


 1834 0584 0D       		.uleb128 0xd
 1835 0585 EA030000 		.4byte	.LASF59
 1836 0589 01       		.byte	0x1
 1837 058a 4A05     		.2byte	0x54a
 1838 058c 00000000 		.4byte	.LFB24
 1839 0590 40000000 		.4byte	.LFE24-.LFB24
 1840 0594 01       		.uleb128 0x1
 1841 0595 9C       		.byte	0x9c
 1842 0596 BD050000 		.4byte	0x5bd
 1843 059a 11       		.uleb128 0x11
 1844 059b B8040000 		.4byte	.LASF24
 1845 059f 01       		.byte	0x1
 1846 05a0 4C05     		.2byte	0x54c
 1847 05a2 6B000000 		.4byte	0x6b
 1848 05a6 24020000 		.4byte	.LLST13
 1849 05aa 0B       		.uleb128 0xb
 1850 05ab 06000000 		.4byte	.LVL67
 1851 05af A4060000 		.4byte	0x6a4
 1852 05b3 0B       		.uleb128 0xb
 1853 05b4 1C000000 		.4byte	.LVL68
 1854 05b8 BA060000 		.4byte	0x6ba
 1855 05bc 00       		.byte	0
 1856 05bd 0D       		.uleb128 0xd
 1857 05be E4020000 		.4byte	.LASF60
 1858 05c2 01       		.byte	0x1
 1859 05c3 A005     		.2byte	0x5a0
 1860 05c5 00000000 		.4byte	.LFB25
 1861 05c9 58000000 		.4byte	.LFE25-.LFB25
 1862 05cd 01       		.uleb128 0x1
 1863 05ce 9C       		.byte	0x9c
 1864 05cf 10060000 		.4byte	0x610
 1865 05d3 12       		.uleb128 0x12
 1866 05d4 70010000 		.4byte	.LASF61
 1867 05d8 01       		.byte	0x1
 1868 05d9 A005     		.2byte	0x5a0
 1869 05db 6B000000 		.4byte	0x6b
 1870 05df 37020000 		.4byte	.LLST14
 1871 05e3 15       		.uleb128 0x15
 1872 05e4 06000000 		.4byte	.LBB2
 1873 05e8 52000000 		.4byte	.LBE2-.LBB2
 1874 05ec 11       		.uleb128 0x11
 1875 05ed 2D020000 		.4byte	.LASF62
 1876 05f1 01       		.byte	0x1
 1877 05f2 A805     		.2byte	0x5a8
 1878 05f4 6B000000 		.4byte	0x6b
 1879 05f8 58020000 		.4byte	.LLST15
 1880 05fc 10       		.uleb128 0x10
 1881 05fd DB000000 		.4byte	.LASF63
 1882 0601 01       		.byte	0x1
 1883 0602 D005     		.2byte	0x5d0
 1884 0604 6B000000 		.4byte	0x6b
 1885 0608 05       		.uleb128 0x5
 1886 0609 03       		.byte	0x3
 1887 060a 03000000 		.4byte	txPeriod.5131
 1888 060e 00       		.byte	0
 1889 060f 00       		.byte	0
 1890 0610 0D       		.uleb128 0xd
ARM GAS  C:\Users\rbhar\AppData\Local\Temp\ccaqTdDy.s 			page 62


 1891 0611 BF010000 		.4byte	.LASF64
 1892 0615 01       		.byte	0x1
 1893 0616 2406     		.2byte	0x624
 1894 0618 00000000 		.4byte	.LFB26
 1895 061c 02000000 		.4byte	.LFE26-.LFB26
 1896 0620 01       		.uleb128 0x1
 1897 0621 9C       		.byte	0x9c
 1898 0622 35060000 		.4byte	0x635
 1899 0626 0E       		.uleb128 0xe
 1900 0627 1F010000 		.4byte	.LASF40
 1901 062b 01       		.byte	0x1
 1902 062c 2406     		.2byte	0x624
 1903 062e 6B000000 		.4byte	0x6b
 1904 0632 01       		.uleb128 0x1
 1905 0633 50       		.byte	0x50
 1906 0634 00       		.byte	0
 1907 0635 16       		.uleb128 0x16
 1908 0636 D9030000 		.4byte	.LASF65
 1909 063a 01       		.byte	0x1
 1910 063b 1B       		.byte	0x1b
 1911 063c 6B000000 		.4byte	0x6b
 1912 0640 05       		.uleb128 0x5
 1913 0641 03       		.byte	0x3
 1914 0642 00000000 		.4byte	UART_LOG_initVar
 1915 0646 17       		.uleb128 0x17
 1916 0647 BC000000 		.4byte	0xbc
 1917 064b 56060000 		.4byte	0x656
 1918 064f 18       		.uleb128 0x18
 1919 0650 D9000000 		.4byte	0xd9
 1920 0654 0F       		.byte	0xf
 1921 0655 00       		.byte	0
 1922 0656 16       		.uleb128 0x16
 1923 0657 37040000 		.4byte	.LASF66
 1924 065b 01       		.byte	0x1
 1925 065c 1E       		.byte	0x1e
 1926 065d 67060000 		.4byte	0x667
 1927 0661 05       		.uleb128 0x5
 1928 0662 03       		.byte	0x3
 1929 0663 00000000 		.4byte	UART_LOG_txBuffer
 1930 0667 05       		.uleb128 0x5
 1931 0668 46060000 		.4byte	0x646
 1932 066c 16       		.uleb128 0x16
 1933 066d B0020000 		.4byte	.LASF67
 1934 0671 01       		.byte	0x1
 1935 0672 1F       		.byte	0x1f
 1936 0673 BC000000 		.4byte	0xbc
 1937 0677 05       		.uleb128 0x5
 1938 0678 03       		.byte	0x3
 1939 0679 00000000 		.4byte	UART_LOG_txBufferRead
 1940 067d 16       		.uleb128 0x16
 1941 067e 49010000 		.4byte	.LASF68
 1942 0682 01       		.byte	0x1
 1943 0683 20       		.byte	0x20
 1944 0684 6B000000 		.4byte	0x6b
 1945 0688 05       		.uleb128 0x5
 1946 0689 03       		.byte	0x3
 1947 068a 00000000 		.4byte	UART_LOG_txBufferWrite
ARM GAS  C:\Users\rbhar\AppData\Local\Temp\ccaqTdDy.s 			page 63


 1948 068e 19       		.uleb128 0x19
 1949 068f F1010000 		.4byte	.LASF69
 1950 0693 F1010000 		.4byte	.LASF69
 1951 0697 03       		.byte	0x3
 1952 0698 88       		.byte	0x88
 1953 0699 19       		.uleb128 0x19
 1954 069a 99020000 		.4byte	.LASF70
 1955 069e 99020000 		.4byte	.LASF70
 1956 06a2 03       		.byte	0x3
 1957 06a3 8B       		.byte	0x8b
 1958 06a4 19       		.uleb128 0x19
 1959 06a5 A8010000 		.4byte	.LASF71
 1960 06a9 A8010000 		.4byte	.LASF71
 1961 06ad 03       		.byte	0x3
 1962 06ae 7D       		.byte	0x7d
 1963 06af 19       		.uleb128 0x19
 1964 06b0 5F040000 		.4byte	.LASF72
 1965 06b4 5F040000 		.4byte	.LASF72
 1966 06b8 04       		.byte	0x4
 1967 06b9 27       		.byte	0x27
 1968 06ba 19       		.uleb128 0x19
 1969 06bb 24000000 		.4byte	.LASF73
 1970 06bf 24000000 		.4byte	.LASF73
 1971 06c3 03       		.byte	0x3
 1972 06c4 7E       		.byte	0x7e
 1973 06c5 19       		.uleb128 0x19
 1974 06c6 25050000 		.4byte	.LASF74
 1975 06ca 25050000 		.4byte	.LASF74
 1976 06ce 04       		.byte	0x4
 1977 06cf 28       		.byte	0x28
 1978 06d0 00       		.byte	0
 1979              		.section	.debug_abbrev,"",%progbits
 1980              	.Ldebug_abbrev0:
 1981 0000 01       		.uleb128 0x1
 1982 0001 11       		.uleb128 0x11
 1983 0002 01       		.byte	0x1
 1984 0003 25       		.uleb128 0x25
 1985 0004 0E       		.uleb128 0xe
 1986 0005 13       		.uleb128 0x13
 1987 0006 0B       		.uleb128 0xb
 1988 0007 03       		.uleb128 0x3
 1989 0008 0E       		.uleb128 0xe
 1990 0009 1B       		.uleb128 0x1b
 1991 000a 0E       		.uleb128 0xe
 1992 000b 55       		.uleb128 0x55
 1993 000c 17       		.uleb128 0x17
 1994 000d 11       		.uleb128 0x11
 1995 000e 01       		.uleb128 0x1
 1996 000f 10       		.uleb128 0x10
 1997 0010 17       		.uleb128 0x17
 1998 0011 00       		.byte	0
 1999 0012 00       		.byte	0
 2000 0013 02       		.uleb128 0x2
 2001 0014 24       		.uleb128 0x24
 2002 0015 00       		.byte	0
 2003 0016 0B       		.uleb128 0xb
 2004 0017 0B       		.uleb128 0xb
ARM GAS  C:\Users\rbhar\AppData\Local\Temp\ccaqTdDy.s 			page 64


 2005 0018 3E       		.uleb128 0x3e
 2006 0019 0B       		.uleb128 0xb
 2007 001a 03       		.uleb128 0x3
 2008 001b 0E       		.uleb128 0xe
 2009 001c 00       		.byte	0
 2010 001d 00       		.byte	0
 2011 001e 03       		.uleb128 0x3
 2012 001f 24       		.uleb128 0x24
 2013 0020 00       		.byte	0
 2014 0021 0B       		.uleb128 0xb
 2015 0022 0B       		.uleb128 0xb
 2016 0023 3E       		.uleb128 0x3e
 2017 0024 0B       		.uleb128 0xb
 2018 0025 03       		.uleb128 0x3
 2019 0026 08       		.uleb128 0x8
 2020 0027 00       		.byte	0
 2021 0028 00       		.byte	0
 2022 0029 04       		.uleb128 0x4
 2023 002a 16       		.uleb128 0x16
 2024 002b 00       		.byte	0
 2025 002c 03       		.uleb128 0x3
 2026 002d 0E       		.uleb128 0xe
 2027 002e 3A       		.uleb128 0x3a
 2028 002f 0B       		.uleb128 0xb
 2029 0030 3B       		.uleb128 0x3b
 2030 0031 05       		.uleb128 0x5
 2031 0032 49       		.uleb128 0x49
 2032 0033 13       		.uleb128 0x13
 2033 0034 00       		.byte	0
 2034 0035 00       		.byte	0
 2035 0036 05       		.uleb128 0x5
 2036 0037 35       		.uleb128 0x35
 2037 0038 00       		.byte	0
 2038 0039 49       		.uleb128 0x49
 2039 003a 13       		.uleb128 0x13
 2040 003b 00       		.byte	0
 2041 003c 00       		.byte	0
 2042 003d 06       		.uleb128 0x6
 2043 003e 2E       		.uleb128 0x2e
 2044 003f 01       		.byte	0x1
 2045 0040 3F       		.uleb128 0x3f
 2046 0041 19       		.uleb128 0x19
 2047 0042 03       		.uleb128 0x3
 2048 0043 0E       		.uleb128 0xe
 2049 0044 3A       		.uleb128 0x3a
 2050 0045 0B       		.uleb128 0xb
 2051 0046 3B       		.uleb128 0x3b
 2052 0047 0B       		.uleb128 0xb
 2053 0048 27       		.uleb128 0x27
 2054 0049 19       		.uleb128 0x19
 2055 004a 11       		.uleb128 0x11
 2056 004b 01       		.uleb128 0x1
 2057 004c 12       		.uleb128 0x12
 2058 004d 06       		.uleb128 0x6
 2059 004e 40       		.uleb128 0x40
 2060 004f 18       		.uleb128 0x18
 2061 0050 9742     		.uleb128 0x2117
ARM GAS  C:\Users\rbhar\AppData\Local\Temp\ccaqTdDy.s 			page 65


 2062 0052 19       		.uleb128 0x19
 2063 0053 01       		.uleb128 0x1
 2064 0054 13       		.uleb128 0x13
 2065 0055 00       		.byte	0
 2066 0056 00       		.byte	0
 2067 0057 07       		.uleb128 0x7
 2068 0058 898201   		.uleb128 0x4109
 2069 005b 01       		.byte	0x1
 2070 005c 11       		.uleb128 0x11
 2071 005d 01       		.uleb128 0x1
 2072 005e 31       		.uleb128 0x31
 2073 005f 13       		.uleb128 0x13
 2074 0060 01       		.uleb128 0x1
 2075 0061 13       		.uleb128 0x13
 2076 0062 00       		.byte	0
 2077 0063 00       		.byte	0
 2078 0064 08       		.uleb128 0x8
 2079 0065 8A8201   		.uleb128 0x410a
 2080 0068 00       		.byte	0
 2081 0069 02       		.uleb128 0x2
 2082 006a 18       		.uleb128 0x18
 2083 006b 9142     		.uleb128 0x2111
 2084 006d 18       		.uleb128 0x18
 2085 006e 00       		.byte	0
 2086 006f 00       		.byte	0
 2087 0070 09       		.uleb128 0x9
 2088 0071 898201   		.uleb128 0x4109
 2089 0074 01       		.byte	0x1
 2090 0075 11       		.uleb128 0x11
 2091 0076 01       		.uleb128 0x1
 2092 0077 31       		.uleb128 0x31
 2093 0078 13       		.uleb128 0x13
 2094 0079 00       		.byte	0
 2095 007a 00       		.byte	0
 2096 007b 0A       		.uleb128 0xa
 2097 007c 34       		.uleb128 0x34
 2098 007d 00       		.byte	0
 2099 007e 03       		.uleb128 0x3
 2100 007f 0E       		.uleb128 0xe
 2101 0080 3A       		.uleb128 0x3a
 2102 0081 0B       		.uleb128 0xb
 2103 0082 3B       		.uleb128 0x3b
 2104 0083 0B       		.uleb128 0xb
 2105 0084 49       		.uleb128 0x49
 2106 0085 13       		.uleb128 0x13
 2107 0086 02       		.uleb128 0x2
 2108 0087 17       		.uleb128 0x17
 2109 0088 00       		.byte	0
 2110 0089 00       		.byte	0
 2111 008a 0B       		.uleb128 0xb
 2112 008b 898201   		.uleb128 0x4109
 2113 008e 00       		.byte	0
 2114 008f 11       		.uleb128 0x11
 2115 0090 01       		.uleb128 0x1
 2116 0091 31       		.uleb128 0x31
 2117 0092 13       		.uleb128 0x13
 2118 0093 00       		.byte	0
ARM GAS  C:\Users\rbhar\AppData\Local\Temp\ccaqTdDy.s 			page 66


 2119 0094 00       		.byte	0
 2120 0095 0C       		.uleb128 0xc
 2121 0096 2E       		.uleb128 0x2e
 2122 0097 00       		.byte	0
 2123 0098 3F       		.uleb128 0x3f
 2124 0099 19       		.uleb128 0x19
 2125 009a 03       		.uleb128 0x3
 2126 009b 0E       		.uleb128 0xe
 2127 009c 3A       		.uleb128 0x3a
 2128 009d 0B       		.uleb128 0xb
 2129 009e 3B       		.uleb128 0x3b
 2130 009f 05       		.uleb128 0x5
 2131 00a0 27       		.uleb128 0x27
 2132 00a1 19       		.uleb128 0x19
 2133 00a2 49       		.uleb128 0x49
 2134 00a3 13       		.uleb128 0x13
 2135 00a4 11       		.uleb128 0x11
 2136 00a5 01       		.uleb128 0x1
 2137 00a6 12       		.uleb128 0x12
 2138 00a7 06       		.uleb128 0x6
 2139 00a8 40       		.uleb128 0x40
 2140 00a9 18       		.uleb128 0x18
 2141 00aa 9742     		.uleb128 0x2117
 2142 00ac 19       		.uleb128 0x19
 2143 00ad 00       		.byte	0
 2144 00ae 00       		.byte	0
 2145 00af 0D       		.uleb128 0xd
 2146 00b0 2E       		.uleb128 0x2e
 2147 00b1 01       		.byte	0x1
 2148 00b2 3F       		.uleb128 0x3f
 2149 00b3 19       		.uleb128 0x19
 2150 00b4 03       		.uleb128 0x3
 2151 00b5 0E       		.uleb128 0xe
 2152 00b6 3A       		.uleb128 0x3a
 2153 00b7 0B       		.uleb128 0xb
 2154 00b8 3B       		.uleb128 0x3b
 2155 00b9 05       		.uleb128 0x5
 2156 00ba 27       		.uleb128 0x27
 2157 00bb 19       		.uleb128 0x19
 2158 00bc 11       		.uleb128 0x11
 2159 00bd 01       		.uleb128 0x1
 2160 00be 12       		.uleb128 0x12
 2161 00bf 06       		.uleb128 0x6
 2162 00c0 40       		.uleb128 0x40
 2163 00c1 18       		.uleb128 0x18
 2164 00c2 9742     		.uleb128 0x2117
 2165 00c4 19       		.uleb128 0x19
 2166 00c5 01       		.uleb128 0x1
 2167 00c6 13       		.uleb128 0x13
 2168 00c7 00       		.byte	0
 2169 00c8 00       		.byte	0
 2170 00c9 0E       		.uleb128 0xe
 2171 00ca 05       		.uleb128 0x5
 2172 00cb 00       		.byte	0
 2173 00cc 03       		.uleb128 0x3
 2174 00cd 0E       		.uleb128 0xe
 2175 00ce 3A       		.uleb128 0x3a
ARM GAS  C:\Users\rbhar\AppData\Local\Temp\ccaqTdDy.s 			page 67


 2176 00cf 0B       		.uleb128 0xb
 2177 00d0 3B       		.uleb128 0x3b
 2178 00d1 05       		.uleb128 0x5
 2179 00d2 49       		.uleb128 0x49
 2180 00d3 13       		.uleb128 0x13
 2181 00d4 02       		.uleb128 0x2
 2182 00d5 18       		.uleb128 0x18
 2183 00d6 00       		.byte	0
 2184 00d7 00       		.byte	0
 2185 00d8 0F       		.uleb128 0xf
 2186 00d9 2E       		.uleb128 0x2e
 2187 00da 01       		.byte	0x1
 2188 00db 3F       		.uleb128 0x3f
 2189 00dc 19       		.uleb128 0x19
 2190 00dd 03       		.uleb128 0x3
 2191 00de 0E       		.uleb128 0xe
 2192 00df 3A       		.uleb128 0x3a
 2193 00e0 0B       		.uleb128 0xb
 2194 00e1 3B       		.uleb128 0x3b
 2195 00e2 05       		.uleb128 0x5
 2196 00e3 27       		.uleb128 0x27
 2197 00e4 19       		.uleb128 0x19
 2198 00e5 49       		.uleb128 0x49
 2199 00e6 13       		.uleb128 0x13
 2200 00e7 11       		.uleb128 0x11
 2201 00e8 01       		.uleb128 0x1
 2202 00e9 12       		.uleb128 0x12
 2203 00ea 06       		.uleb128 0x6
 2204 00eb 40       		.uleb128 0x40
 2205 00ec 18       		.uleb128 0x18
 2206 00ed 9742     		.uleb128 0x2117
 2207 00ef 19       		.uleb128 0x19
 2208 00f0 01       		.uleb128 0x1
 2209 00f1 13       		.uleb128 0x13
 2210 00f2 00       		.byte	0
 2211 00f3 00       		.byte	0
 2212 00f4 10       		.uleb128 0x10
 2213 00f5 34       		.uleb128 0x34
 2214 00f6 00       		.byte	0
 2215 00f7 03       		.uleb128 0x3
 2216 00f8 0E       		.uleb128 0xe
 2217 00f9 3A       		.uleb128 0x3a
 2218 00fa 0B       		.uleb128 0xb
 2219 00fb 3B       		.uleb128 0x3b
 2220 00fc 05       		.uleb128 0x5
 2221 00fd 49       		.uleb128 0x49
 2222 00fe 13       		.uleb128 0x13
 2223 00ff 02       		.uleb128 0x2
 2224 0100 18       		.uleb128 0x18
 2225 0101 00       		.byte	0
 2226 0102 00       		.byte	0
 2227 0103 11       		.uleb128 0x11
 2228 0104 34       		.uleb128 0x34
 2229 0105 00       		.byte	0
 2230 0106 03       		.uleb128 0x3
 2231 0107 0E       		.uleb128 0xe
 2232 0108 3A       		.uleb128 0x3a
ARM GAS  C:\Users\rbhar\AppData\Local\Temp\ccaqTdDy.s 			page 68


 2233 0109 0B       		.uleb128 0xb
 2234 010a 3B       		.uleb128 0x3b
 2235 010b 05       		.uleb128 0x5
 2236 010c 49       		.uleb128 0x49
 2237 010d 13       		.uleb128 0x13
 2238 010e 02       		.uleb128 0x2
 2239 010f 17       		.uleb128 0x17
 2240 0110 00       		.byte	0
 2241 0111 00       		.byte	0
 2242 0112 12       		.uleb128 0x12
 2243 0113 05       		.uleb128 0x5
 2244 0114 00       		.byte	0
 2245 0115 03       		.uleb128 0x3
 2246 0116 0E       		.uleb128 0xe
 2247 0117 3A       		.uleb128 0x3a
 2248 0118 0B       		.uleb128 0xb
 2249 0119 3B       		.uleb128 0x3b
 2250 011a 05       		.uleb128 0x5
 2251 011b 49       		.uleb128 0x49
 2252 011c 13       		.uleb128 0x13
 2253 011d 02       		.uleb128 0x2
 2254 011e 17       		.uleb128 0x17
 2255 011f 00       		.byte	0
 2256 0120 00       		.byte	0
 2257 0121 13       		.uleb128 0x13
 2258 0122 0F       		.uleb128 0xf
 2259 0123 00       		.byte	0
 2260 0124 0B       		.uleb128 0xb
 2261 0125 0B       		.uleb128 0xb
 2262 0126 49       		.uleb128 0x49
 2263 0127 13       		.uleb128 0x13
 2264 0128 00       		.byte	0
 2265 0129 00       		.byte	0
 2266 012a 14       		.uleb128 0x14
 2267 012b 26       		.uleb128 0x26
 2268 012c 00       		.byte	0
 2269 012d 49       		.uleb128 0x49
 2270 012e 13       		.uleb128 0x13
 2271 012f 00       		.byte	0
 2272 0130 00       		.byte	0
 2273 0131 15       		.uleb128 0x15
 2274 0132 0B       		.uleb128 0xb
 2275 0133 01       		.byte	0x1
 2276 0134 11       		.uleb128 0x11
 2277 0135 01       		.uleb128 0x1
 2278 0136 12       		.uleb128 0x12
 2279 0137 06       		.uleb128 0x6
 2280 0138 00       		.byte	0
 2281 0139 00       		.byte	0
 2282 013a 16       		.uleb128 0x16
 2283 013b 34       		.uleb128 0x34
 2284 013c 00       		.byte	0
 2285 013d 03       		.uleb128 0x3
 2286 013e 0E       		.uleb128 0xe
 2287 013f 3A       		.uleb128 0x3a
 2288 0140 0B       		.uleb128 0xb
 2289 0141 3B       		.uleb128 0x3b
ARM GAS  C:\Users\rbhar\AppData\Local\Temp\ccaqTdDy.s 			page 69


 2290 0142 0B       		.uleb128 0xb
 2291 0143 49       		.uleb128 0x49
 2292 0144 13       		.uleb128 0x13
 2293 0145 3F       		.uleb128 0x3f
 2294 0146 19       		.uleb128 0x19
 2295 0147 02       		.uleb128 0x2
 2296 0148 18       		.uleb128 0x18
 2297 0149 00       		.byte	0
 2298 014a 00       		.byte	0
 2299 014b 17       		.uleb128 0x17
 2300 014c 01       		.uleb128 0x1
 2301 014d 01       		.byte	0x1
 2302 014e 49       		.uleb128 0x49
 2303 014f 13       		.uleb128 0x13
 2304 0150 01       		.uleb128 0x1
 2305 0151 13       		.uleb128 0x13
 2306 0152 00       		.byte	0
 2307 0153 00       		.byte	0
 2308 0154 18       		.uleb128 0x18
 2309 0155 21       		.uleb128 0x21
 2310 0156 00       		.byte	0
 2311 0157 49       		.uleb128 0x49
 2312 0158 13       		.uleb128 0x13
 2313 0159 2F       		.uleb128 0x2f
 2314 015a 0B       		.uleb128 0xb
 2315 015b 00       		.byte	0
 2316 015c 00       		.byte	0
 2317 015d 19       		.uleb128 0x19
 2318 015e 2E       		.uleb128 0x2e
 2319 015f 00       		.byte	0
 2320 0160 3F       		.uleb128 0x3f
 2321 0161 19       		.uleb128 0x19
 2322 0162 3C       		.uleb128 0x3c
 2323 0163 19       		.uleb128 0x19
 2324 0164 6E       		.uleb128 0x6e
 2325 0165 0E       		.uleb128 0xe
 2326 0166 03       		.uleb128 0x3
 2327 0167 0E       		.uleb128 0xe
 2328 0168 3A       		.uleb128 0x3a
 2329 0169 0B       		.uleb128 0xb
 2330 016a 3B       		.uleb128 0x3b
 2331 016b 0B       		.uleb128 0xb
 2332 016c 00       		.byte	0
 2333 016d 00       		.byte	0
 2334 016e 00       		.byte	0
 2335              		.section	.debug_loc,"",%progbits
 2336              	.Ldebug_loc0:
 2337              	.LLST0:
 2338 0000 08000000 		.4byte	.LVL3
 2339 0004 3E000000 		.4byte	.LVL6
 2340 0008 0100     		.2byte	0x1
 2341 000a 54       		.byte	0x54
 2342 000b 00000000 		.4byte	0
 2343 000f 00000000 		.4byte	0
 2344              	.LLST1:
 2345 0013 08000000 		.4byte	.LVL10
 2346 0017 38000000 		.4byte	.LVL13
ARM GAS  C:\Users\rbhar\AppData\Local\Temp\ccaqTdDy.s 			page 70


 2347 001b 0100     		.2byte	0x1
 2348 001d 54       		.byte	0x54
 2349 001e 00000000 		.4byte	0
 2350 0022 00000000 		.4byte	0
 2351              	.LLST2:
 2352 0026 04000000 		.4byte	.LVL17
 2353 002a 08000000 		.4byte	.LVL18
 2354 002e 0600     		.2byte	0x6
 2355 0030 70       		.byte	0x70
 2356 0031 00       		.sleb128 0
 2357 0032 08       		.byte	0x8
 2358 0033 7F       		.byte	0x7f
 2359 0034 1A       		.byte	0x1a
 2360 0035 9F       		.byte	0x9f
 2361 0036 00000000 		.4byte	0
 2362 003a 00000000 		.4byte	0
 2363              	.LLST3:
 2364 003e 00000000 		.4byte	.LVL19
 2365 0042 12000000 		.4byte	.LVL21
 2366 0046 0200     		.2byte	0x2
 2367 0048 30       		.byte	0x30
 2368 0049 9F       		.byte	0x9f
 2369 004a 12000000 		.4byte	.LVL21
 2370 004e 1A000000 		.4byte	.LVL22
 2371 0052 0100     		.2byte	0x1
 2372 0054 50       		.byte	0x50
 2373 0055 1A000000 		.4byte	.LVL22
 2374 0059 1E000000 		.4byte	.LVL23
 2375 005d 0200     		.2byte	0x2
 2376 005f 30       		.byte	0x30
 2377 0060 9F       		.byte	0x9f
 2378 0061 1E000000 		.4byte	.LVL23
 2379 0065 2C000000 		.4byte	.LFE9
 2380 0069 0100     		.2byte	0x1
 2381 006b 50       		.byte	0x50
 2382 006c 00000000 		.4byte	0
 2383 0070 00000000 		.4byte	0
 2384              	.LLST4:
 2385 0074 06000000 		.4byte	.LVL28
 2386 0078 1B000000 		.4byte	.LVL29-1
 2387 007c 0100     		.2byte	0x1
 2388 007e 50       		.byte	0x50
 2389 007f 00000000 		.4byte	0
 2390 0083 00000000 		.4byte	0
 2391              	.LLST5:
 2392 0087 08000000 		.4byte	.LVL37
 2393 008b 2C000000 		.4byte	.LVL38
 2394 008f 0100     		.2byte	0x1
 2395 0091 53       		.byte	0x53
 2396 0092 00000000 		.4byte	0
 2397 0096 00000000 		.4byte	0
 2398              	.LLST6:
 2399 009a 00000000 		.4byte	.LVL41
 2400 009e 0A000000 		.4byte	.LVL43
 2401 00a2 0100     		.2byte	0x1
 2402 00a4 50       		.byte	0x50
 2403 00a5 0A000000 		.4byte	.LVL43
ARM GAS  C:\Users\rbhar\AppData\Local\Temp\ccaqTdDy.s 			page 71


 2404 00a9 14000000 		.4byte	.LVL47
 2405 00ad 0100     		.2byte	0x1
 2406 00af 55       		.byte	0x55
 2407 00b0 14000000 		.4byte	.LVL47
 2408 00b4 18000000 		.4byte	.LVL48
 2409 00b8 0100     		.2byte	0x1
 2410 00ba 50       		.byte	0x50
 2411 00bb 18000000 		.4byte	.LVL48
 2412 00bf 20000000 		.4byte	.LVL49
 2413 00c3 0100     		.2byte	0x1
 2414 00c5 55       		.byte	0x55
 2415 00c6 20000000 		.4byte	.LVL49
 2416 00ca 24000000 		.4byte	.LFE20
 2417 00ce 0400     		.2byte	0x4
 2418 00d0 F3       		.byte	0xf3
 2419 00d1 01       		.uleb128 0x1
 2420 00d2 50       		.byte	0x50
 2421 00d3 9F       		.byte	0x9f
 2422 00d4 00000000 		.4byte	0
 2423 00d8 00000000 		.4byte	0
 2424              	.LLST7:
 2425 00dc 02000000 		.4byte	.LVL42
 2426 00e0 0A000000 		.4byte	.LVL43
 2427 00e4 0200     		.2byte	0x2
 2428 00e6 30       		.byte	0x30
 2429 00e7 9F       		.byte	0x9f
 2430 00e8 0A000000 		.4byte	.LVL43
 2431 00ec 10000000 		.4byte	.LVL45
 2432 00f0 0100     		.2byte	0x1
 2433 00f2 54       		.byte	0x54
 2434 00f3 12000000 		.4byte	.LVL46
 2435 00f7 14000000 		.4byte	.LVL47
 2436 00fb 0100     		.2byte	0x1
 2437 00fd 54       		.byte	0x54
 2438 00fe 14000000 		.4byte	.LVL47
 2439 0102 18000000 		.4byte	.LVL48
 2440 0106 0200     		.2byte	0x2
 2441 0108 30       		.byte	0x30
 2442 0109 9F       		.byte	0x9f
 2443 010a 18000000 		.4byte	.LVL48
 2444 010e 20000000 		.4byte	.LVL49
 2445 0112 0100     		.2byte	0x1
 2446 0114 54       		.byte	0x54
 2447 0115 00000000 		.4byte	0
 2448 0119 00000000 		.4byte	0
 2449              	.LLST8:
 2450 011d 00000000 		.4byte	.LVL50
 2451 0121 08000000 		.4byte	.LVL51
 2452 0125 0100     		.2byte	0x1
 2453 0127 50       		.byte	0x50
 2454 0128 08000000 		.4byte	.LVL51
 2455 012c 14000000 		.4byte	.LVL55
 2456 0130 0100     		.2byte	0x1
 2457 0132 56       		.byte	0x56
 2458 0133 14000000 		.4byte	.LVL55
 2459 0137 1C000000 		.4byte	.LVL56
 2460 013b 0100     		.2byte	0x1
ARM GAS  C:\Users\rbhar\AppData\Local\Temp\ccaqTdDy.s 			page 72


 2461 013d 50       		.byte	0x50
 2462 013e 1C000000 		.4byte	.LVL56
 2463 0142 22000000 		.4byte	.LVL57
 2464 0146 0100     		.2byte	0x1
 2465 0148 56       		.byte	0x56
 2466 0149 22000000 		.4byte	.LVL57
 2467 014d 28000000 		.4byte	.LFE21
 2468 0151 0400     		.2byte	0x4
 2469 0153 F3       		.byte	0xf3
 2470 0154 01       		.uleb128 0x1
 2471 0155 50       		.byte	0x50
 2472 0156 9F       		.byte	0x9f
 2473 0157 00000000 		.4byte	0
 2474 015b 00000000 		.4byte	0
 2475              	.LLST9:
 2476 015f 00000000 		.4byte	.LVL50
 2477 0163 08000000 		.4byte	.LVL51
 2478 0167 0100     		.2byte	0x1
 2479 0169 51       		.byte	0x51
 2480 016a 08000000 		.4byte	.LVL51
 2481 016e 14000000 		.4byte	.LVL55
 2482 0172 0400     		.2byte	0x4
 2483 0174 F3       		.byte	0xf3
 2484 0175 01       		.uleb128 0x1
 2485 0176 51       		.byte	0x51
 2486 0177 9F       		.byte	0x9f
 2487 0178 14000000 		.4byte	.LVL55
 2488 017c 1C000000 		.4byte	.LVL56
 2489 0180 0100     		.2byte	0x1
 2490 0182 51       		.byte	0x51
 2491 0183 1C000000 		.4byte	.LVL56
 2492 0187 28000000 		.4byte	.LFE21
 2493 018b 0400     		.2byte	0x4
 2494 018d F3       		.byte	0xf3
 2495 018e 01       		.uleb128 0x1
 2496 018f 51       		.byte	0x51
 2497 0190 9F       		.byte	0x9f
 2498 0191 00000000 		.4byte	0
 2499 0195 00000000 		.4byte	0
 2500              	.LLST10:
 2501 0199 00000000 		.4byte	.LVL50
 2502 019d 08000000 		.4byte	.LVL51
 2503 01a1 0200     		.2byte	0x2
 2504 01a3 30       		.byte	0x30
 2505 01a4 9F       		.byte	0x9f
 2506 01a5 08000000 		.4byte	.LVL51
 2507 01a9 10000000 		.4byte	.LVL53
 2508 01ad 0100     		.2byte	0x1
 2509 01af 54       		.byte	0x54
 2510 01b0 12000000 		.4byte	.LVL54
 2511 01b4 14000000 		.4byte	.LVL55
 2512 01b8 0100     		.2byte	0x1
 2513 01ba 54       		.byte	0x54
 2514 01bb 14000000 		.4byte	.LVL55
 2515 01bf 1C000000 		.4byte	.LVL56
 2516 01c3 0200     		.2byte	0x2
 2517 01c5 30       		.byte	0x30
ARM GAS  C:\Users\rbhar\AppData\Local\Temp\ccaqTdDy.s 			page 73


 2518 01c6 9F       		.byte	0x9f
 2519 01c7 1C000000 		.4byte	.LVL56
 2520 01cb 22000000 		.4byte	.LVL57
 2521 01cf 0100     		.2byte	0x1
 2522 01d1 54       		.byte	0x54
 2523 01d2 00000000 		.4byte	0
 2524 01d6 00000000 		.4byte	0
 2525              	.LLST11:
 2526 01da 00000000 		.4byte	.LVL58
 2527 01de 0B000000 		.4byte	.LVL59-1
 2528 01e2 0100     		.2byte	0x1
 2529 01e4 50       		.byte	0x50
 2530 01e5 0B000000 		.4byte	.LVL59-1
 2531 01e9 20000000 		.4byte	.LFE22
 2532 01ed 0400     		.2byte	0x4
 2533 01ef F3       		.byte	0xf3
 2534 01f0 01       		.uleb128 0x1
 2535 01f1 50       		.byte	0x50
 2536 01f2 9F       		.byte	0x9f
 2537 01f3 00000000 		.4byte	0
 2538 01f7 00000000 		.4byte	0
 2539              	.LLST12:
 2540 01fb 24000000 		.4byte	.LVL62
 2541 01ff 26000000 		.4byte	.LVL63
 2542 0203 0100     		.2byte	0x1
 2543 0205 50       		.byte	0x50
 2544 0206 30000000 		.4byte	.LVL64
 2545 020a 32000000 		.4byte	.LVL65
 2546 020e 0100     		.2byte	0x1
 2547 0210 50       		.byte	0x50
 2548 0211 34000000 		.4byte	.LVL66
 2549 0215 48000000 		.4byte	.LFE23
 2550 0219 0100     		.2byte	0x1
 2551 021b 50       		.byte	0x50
 2552 021c 00000000 		.4byte	0
 2553 0220 00000000 		.4byte	0
 2554              	.LLST13:
 2555 0224 06000000 		.4byte	.LVL67
 2556 0228 1B000000 		.4byte	.LVL68-1
 2557 022c 0100     		.2byte	0x1
 2558 022e 50       		.byte	0x50
 2559 022f 00000000 		.4byte	0
 2560 0233 00000000 		.4byte	0
 2561              	.LLST14:
 2562 0237 00000000 		.4byte	.LVL69
 2563 023b 3C000000 		.4byte	.LVL74
 2564 023f 0100     		.2byte	0x1
 2565 0241 50       		.byte	0x50
 2566 0242 3C000000 		.4byte	.LVL74
 2567 0246 58000000 		.4byte	.LFE25
 2568 024a 0400     		.2byte	0x4
 2569 024c F3       		.byte	0xf3
 2570 024d 01       		.uleb128 0x1
 2571 024e 50       		.byte	0x50
 2572 024f 9F       		.byte	0x9f
 2573 0250 00000000 		.4byte	0
 2574 0254 00000000 		.4byte	0
ARM GAS  C:\Users\rbhar\AppData\Local\Temp\ccaqTdDy.s 			page 74


 2575              	.LLST15:
 2576 0258 22000000 		.4byte	.LVL70
 2577 025c 28000000 		.4byte	.LVL71
 2578 0260 0100     		.2byte	0x1
 2579 0262 53       		.byte	0x53
 2580 0263 34000000 		.4byte	.LVL72
 2581 0267 3A000000 		.4byte	.LVL73
 2582 026b 0100     		.2byte	0x1
 2583 026d 53       		.byte	0x53
 2584 026e 00000000 		.4byte	0
 2585 0272 00000000 		.4byte	0
 2586              		.section	.debug_aranges,"",%progbits
 2587 0000 EC000000 		.4byte	0xec
 2588 0004 0200     		.2byte	0x2
 2589 0006 00000000 		.4byte	.Ldebug_info0
 2590 000a 04       		.byte	0x4
 2591 000b 00       		.byte	0
 2592 000c 0000     		.2byte	0
 2593 000e 0000     		.2byte	0
 2594 0010 00000000 		.4byte	.LFB1
 2595 0014 40000000 		.4byte	.LFE1-.LFB1
 2596 0018 00000000 		.4byte	.LFB2
 2597 001c 48000000 		.4byte	.LFE2-.LFB2
 2598 0020 00000000 		.4byte	.LFB0
 2599 0024 1C000000 		.4byte	.LFE0-.LFB0
 2600 0028 00000000 		.4byte	.LFB3
 2601 002c 44000000 		.4byte	.LFE3-.LFB3
 2602 0030 00000000 		.4byte	.LFB4
 2603 0034 04000000 		.4byte	.LFE4-.LFB4
 2604 0038 00000000 		.4byte	.LFB5
 2605 003c 02000000 		.4byte	.LFE5-.LFB5
 2606 0040 00000000 		.4byte	.LFB6
 2607 0044 0C000000 		.4byte	.LFE6-.LFB6
 2608 0048 00000000 		.4byte	.LFB7
 2609 004c 0C000000 		.4byte	.LFE7-.LFB7
 2610 0050 00000000 		.4byte	.LFB8
 2611 0054 10000000 		.4byte	.LFE8-.LFB8
 2612 0058 00000000 		.4byte	.LFB9
 2613 005c 2C000000 		.4byte	.LFE9-.LFB9
 2614 0060 00000000 		.4byte	.LFB10
 2615 0064 12000000 		.4byte	.LFE10-.LFB10
 2616 0068 00000000 		.4byte	.LFB11
 2617 006c 18000000 		.4byte	.LFE11-.LFB11
 2618 0070 00000000 		.4byte	.LFB12
 2619 0074 24000000 		.4byte	.LFE12-.LFB12
 2620 0078 00000000 		.4byte	.LFB13
 2621 007c 02000000 		.4byte	.LFE13-.LFB13
 2622 0080 00000000 		.4byte	.LFB14
 2623 0084 0C000000 		.4byte	.LFE14-.LFB14
 2624 0088 00000000 		.4byte	.LFB15
 2625 008c 0C000000 		.4byte	.LFE15-.LFB15
 2626 0090 00000000 		.4byte	.LFB16
 2627 0094 0C000000 		.4byte	.LFE16-.LFB16
 2628 0098 00000000 		.4byte	.LFB17
 2629 009c 60000000 		.4byte	.LFE17-.LFB17
 2630 00a0 00000000 		.4byte	.LFB18
 2631 00a4 0C000000 		.4byte	.LFE18-.LFB18
ARM GAS  C:\Users\rbhar\AppData\Local\Temp\ccaqTdDy.s 			page 75


 2632 00a8 00000000 		.4byte	.LFB19
 2633 00ac 70000000 		.4byte	.LFE19-.LFB19
 2634 00b0 00000000 		.4byte	.LFB20
 2635 00b4 24000000 		.4byte	.LFE20-.LFB20
 2636 00b8 00000000 		.4byte	.LFB21
 2637 00bc 28000000 		.4byte	.LFE21-.LFB21
 2638 00c0 00000000 		.4byte	.LFB22
 2639 00c4 20000000 		.4byte	.LFE22-.LFB22
 2640 00c8 00000000 		.4byte	.LFB23
 2641 00cc 48000000 		.4byte	.LFE23-.LFB23
 2642 00d0 00000000 		.4byte	.LFB24
 2643 00d4 40000000 		.4byte	.LFE24-.LFB24
 2644 00d8 00000000 		.4byte	.LFB25
 2645 00dc 58000000 		.4byte	.LFE25-.LFB25
 2646 00e0 00000000 		.4byte	.LFB26
 2647 00e4 02000000 		.4byte	.LFE26-.LFB26
 2648 00e8 00000000 		.4byte	0
 2649 00ec 00000000 		.4byte	0
 2650              		.section	.debug_ranges,"",%progbits
 2651              	.Ldebug_ranges0:
 2652 0000 00000000 		.4byte	.LFB1
 2653 0004 40000000 		.4byte	.LFE1
 2654 0008 00000000 		.4byte	.LFB2
 2655 000c 48000000 		.4byte	.LFE2
 2656 0010 00000000 		.4byte	.LFB0
 2657 0014 1C000000 		.4byte	.LFE0
 2658 0018 00000000 		.4byte	.LFB3
 2659 001c 44000000 		.4byte	.LFE3
 2660 0020 00000000 		.4byte	.LFB4
 2661 0024 04000000 		.4byte	.LFE4
 2662 0028 00000000 		.4byte	.LFB5
 2663 002c 02000000 		.4byte	.LFE5
 2664 0030 00000000 		.4byte	.LFB6
 2665 0034 0C000000 		.4byte	.LFE6
 2666 0038 00000000 		.4byte	.LFB7
 2667 003c 0C000000 		.4byte	.LFE7
 2668 0040 00000000 		.4byte	.LFB8
 2669 0044 10000000 		.4byte	.LFE8
 2670 0048 00000000 		.4byte	.LFB9
 2671 004c 2C000000 		.4byte	.LFE9
 2672 0050 00000000 		.4byte	.LFB10
 2673 0054 12000000 		.4byte	.LFE10
 2674 0058 00000000 		.4byte	.LFB11
 2675 005c 18000000 		.4byte	.LFE11
 2676 0060 00000000 		.4byte	.LFB12
 2677 0064 24000000 		.4byte	.LFE12
 2678 0068 00000000 		.4byte	.LFB13
 2679 006c 02000000 		.4byte	.LFE13
 2680 0070 00000000 		.4byte	.LFB14
 2681 0074 0C000000 		.4byte	.LFE14
 2682 0078 00000000 		.4byte	.LFB15
 2683 007c 0C000000 		.4byte	.LFE15
 2684 0080 00000000 		.4byte	.LFB16
 2685 0084 0C000000 		.4byte	.LFE16
 2686 0088 00000000 		.4byte	.LFB17
 2687 008c 60000000 		.4byte	.LFE17
 2688 0090 00000000 		.4byte	.LFB18
ARM GAS  C:\Users\rbhar\AppData\Local\Temp\ccaqTdDy.s 			page 76


 2689 0094 0C000000 		.4byte	.LFE18
 2690 0098 00000000 		.4byte	.LFB19
 2691 009c 70000000 		.4byte	.LFE19
 2692 00a0 00000000 		.4byte	.LFB20
 2693 00a4 24000000 		.4byte	.LFE20
 2694 00a8 00000000 		.4byte	.LFB21
 2695 00ac 28000000 		.4byte	.LFE21
 2696 00b0 00000000 		.4byte	.LFB22
 2697 00b4 20000000 		.4byte	.LFE22
 2698 00b8 00000000 		.4byte	.LFB23
 2699 00bc 48000000 		.4byte	.LFE23
 2700 00c0 00000000 		.4byte	.LFB24
 2701 00c4 40000000 		.4byte	.LFE24
 2702 00c8 00000000 		.4byte	.LFB25
 2703 00cc 58000000 		.4byte	.LFE25
 2704 00d0 00000000 		.4byte	.LFB26
 2705 00d4 02000000 		.4byte	.LFE26
 2706 00d8 00000000 		.4byte	0
 2707 00dc 00000000 		.4byte	0
 2708              		.section	.debug_line,"",%progbits
 2709              	.Ldebug_line0:
 2710 0000 F9020000 		.section	.debug_str,"MS",%progbits,1
 2710      02006700 
 2710      00000201 
 2710      FB0E0D00 
 2710      01010101 
 2711              	.LASF10:
 2712 0000 75696E74 		.ascii	"uint16\000"
 2712      313600
 2713              	.LASF47:
 2714 0007 55415254 		.ascii	"UART_LOG_ReadControlRegister\000"
 2714      5F4C4F47 
 2714      5F526561 
 2714      64436F6E 
 2714      74726F6C 
 2715              	.LASF73:
 2716 0024 43794578 		.ascii	"CyExitCriticalSection\000"
 2716      69744372 
 2716      69746963 
 2716      616C5365 
 2716      6374696F 
 2717              	.LASF46:
 2718 003a 74784461 		.ascii	"txDataByte\000"
 2718      74614279 
 2718      746500
 2719              	.LASF36:
 2720 0045 55415254 		.ascii	"UART_LOG_GetRxBufferSize\000"
 2720      5F4C4F47 
 2720      5F476574 
 2720      52784275 
 2720      66666572 
 2721              	.LASF53:
 2722 005e 73747269 		.ascii	"string\000"
 2722      6E6700
 2723              	.LASF76:
 2724 0065 47656E65 		.ascii	"Generated_Source\\PSoC5\\UART_LOG.c\000"
 2724      72617465 
ARM GAS  C:\Users\rbhar\AppData\Local\Temp\ccaqTdDy.s 			page 77


 2724      645F536F 
 2724      75726365 
 2724      5C50536F 
 2725              	.LASF7:
 2726 0087 6C6F6E67 		.ascii	"long long unsigned int\000"
 2726      206C6F6E 
 2726      6720756E 
 2726      7369676E 
 2726      65642069 
 2727              	.LASF23:
 2728 009e 55415254 		.ascii	"UART_LOG_Stop\000"
 2728      5F4C4F47 
 2728      5F53746F 
 2728      7000
 2729              	.LASF45:
 2730 00ac 55415254 		.ascii	"UART_LOG_WriteTxData\000"
 2730      5F4C4F47 
 2730      5F577269 
 2730      74655478 
 2730      44617461 
 2731              	.LASF6:
 2732 00c1 6C6F6E67 		.ascii	"long long int\000"
 2732      206C6F6E 
 2732      6720696E 
 2732      7400
 2733              	.LASF0:
 2734 00cf 7369676E 		.ascii	"signed char\000"
 2734      65642063 
 2734      68617200 
 2735              	.LASF63:
 2736 00db 74785065 		.ascii	"txPeriod\000"
 2736      72696F64 
 2736      00
 2737              	.LASF35:
 2738 00e4 55415254 		.ascii	"UART_LOG_GetByte\000"
 2738      5F4C4F47 
 2738      5F476574 
 2738      42797465 
 2738      00
 2739              	.LASF4:
 2740 00f5 6C6F6E67 		.ascii	"long int\000"
 2740      20696E74 
 2740      00
 2741              	.LASF30:
 2742 00fe 55415254 		.ascii	"UART_LOG_ReadRxData\000"
 2742      5F4C4F47 
 2742      5F526561 
 2742      64527844 
 2742      61746100 
 2743              	.LASF9:
 2744 0112 75696E74 		.ascii	"uint8\000"
 2744      3800
 2745              	.LASF13:
 2746 0118 646F7562 		.ascii	"double\000"
 2746      6C6500
 2747              	.LASF40:
 2748 011f 61646472 		.ascii	"addressMode\000"
ARM GAS  C:\Users\rbhar\AppData\Local\Temp\ccaqTdDy.s 			page 78


 2748      6573734D 
 2748      6F646500 
 2749              	.LASF22:
 2750 012b 55415254 		.ascii	"UART_LOG_Start\000"
 2750      5F4C4F47 
 2750      5F537461 
 2750      727400
 2751              	.LASF11:
 2752 013a 75696E74 		.ascii	"uint32\000"
 2752      333200
 2753              	.LASF27:
 2754 0141 636F6E74 		.ascii	"control\000"
 2754      726F6C00 
 2755              	.LASF68:
 2756 0149 55415254 		.ascii	"UART_LOG_txBufferWrite\000"
 2756      5F4C4F47 
 2756      5F747842 
 2756      75666665 
 2756      72577269 
 2757              	.LASF51:
 2758 0160 6C6F6354 		.ascii	"locTxBufferRead\000"
 2758      78427566 
 2758      66657252 
 2758      65616400 
 2759              	.LASF61:
 2760 0170 7265744D 		.ascii	"retMode\000"
 2760      6F646500 
 2761              	.LASF8:
 2762 0178 756E7369 		.ascii	"unsigned int\000"
 2762      676E6564 
 2762      20696E74 
 2762      00
 2763              	.LASF5:
 2764 0185 6C6F6E67 		.ascii	"long unsigned int\000"
 2764      20756E73 
 2764      69676E65 
 2764      6420696E 
 2764      7400
 2765              	.LASF50:
 2766 0197 6C6F6354 		.ascii	"locTxBufferWrite\000"
 2766      78427566 
 2766      66657257 
 2766      72697465 
 2766      00
 2767              	.LASF71:
 2768 01a8 4379456E 		.ascii	"CyEnterCriticalSection\000"
 2768      74657243 
 2768      72697469 
 2768      63616C53 
 2768      65637469 
 2769              	.LASF64:
 2770 01bf 55415254 		.ascii	"UART_LOG_SetTxAddressMode\000"
 2770      5F4C4F47 
 2770      5F536574 
 2770      54784164 
 2770      64726573 
 2771              	.LASF37:
ARM GAS  C:\Users\rbhar\AppData\Local\Temp\ccaqTdDy.s 			page 79


 2772 01d9 73697A65 		.ascii	"size\000"
 2772      00
 2773              	.LASF3:
 2774 01de 73686F72 		.ascii	"short unsigned int\000"
 2774      7420756E 
 2774      7369676E 
 2774      65642069 
 2774      6E7400
 2775              	.LASF69:
 2776 01f1 4379496E 		.ascii	"CyIntSetVector\000"
 2776      74536574 
 2776      56656374 
 2776      6F7200
 2777              	.LASF54:
 2778 0200 62756649 		.ascii	"bufIndex\000"
 2778      6E646578 
 2778      00
 2779              	.LASF28:
 2780 0209 696E7453 		.ascii	"intSrc\000"
 2780      726300
 2781              	.LASF38:
 2782 0210 55415254 		.ascii	"UART_LOG_ClearRxBuffer\000"
 2782      5F4C4F47 
 2782      5F436C65 
 2782      61725278 
 2782      42756666 
 2783              	.LASF17:
 2784 0227 72656733 		.ascii	"reg32\000"
 2784      3200
 2785              	.LASF62:
 2786 022d 746D7053 		.ascii	"tmpStat\000"
 2786      74617400 
 2787              	.LASF19:
 2788 0235 73697A65 		.ascii	"sizetype\000"
 2788      74797065 
 2788      00
 2789              	.LASF18:
 2790 023e 6C6F6E67 		.ascii	"long double\000"
 2790      20646F75 
 2790      626C6500 
 2791              	.LASF31:
 2792 024a 55415254 		.ascii	"UART_LOG_ReadRxStatus\000"
 2792      5F4C4F47 
 2792      5F526561 
 2792      64527853 
 2792      74617475 
 2793              	.LASF42:
 2794 0260 61646472 		.ascii	"address\000"
 2794      65737300 
 2795              	.LASF20:
 2796 0268 55415254 		.ascii	"UART_LOG_Init\000"
 2796      5F4C4F47 
 2796      5F496E69 
 2796      7400
 2797              	.LASF34:
 2798 0276 72785374 		.ascii	"rxStatus\000"
 2798      61747573 
ARM GAS  C:\Users\rbhar\AppData\Local\Temp\ccaqTdDy.s 			page 80


 2798      00
 2799              	.LASF39:
 2800 027f 55415254 		.ascii	"UART_LOG_SetRxAddressMode\000"
 2800      5F4C4F47 
 2800      5F536574 
 2800      52784164 
 2800      64726573 
 2801              	.LASF70:
 2802 0299 4379496E 		.ascii	"CyIntSetPriority\000"
 2802      74536574 
 2802      5072696F 
 2802      72697479 
 2802      00
 2803              	.LASF12:
 2804 02aa 666C6F61 		.ascii	"float\000"
 2804      7400
 2805              	.LASF67:
 2806 02b0 55415254 		.ascii	"UART_LOG_txBufferRead\000"
 2806      5F4C4F47 
 2806      5F747842 
 2806      75666665 
 2806      72526561 
 2807              	.LASF25:
 2808 02c6 55415254 		.ascii	"UART_LOG_WriteControlRegister\000"
 2808      5F4C4F47 
 2808      5F577269 
 2808      7465436F 
 2808      6E74726F 
 2809              	.LASF60:
 2810 02e4 55415254 		.ascii	"UART_LOG_SendBreak\000"
 2810      5F4C4F47 
 2810      5F53656E 
 2810      64427265 
 2810      616B00
 2811              	.LASF16:
 2812 02f7 72656738 		.ascii	"reg8\000"
 2812      00
 2813              	.LASF1:
 2814 02fc 756E7369 		.ascii	"unsigned char\000"
 2814      676E6564 
 2814      20636861 
 2814      7200
 2815              	.LASF33:
 2816 030a 55415254 		.ascii	"UART_LOG_GetChar\000"
 2816      5F4C4F47 
 2816      5F476574 
 2816      43686172 
 2816      00
 2817              	.LASF2:
 2818 031b 73686F72 		.ascii	"short int\000"
 2818      7420696E 
 2818      7400
 2819              	.LASF44:
 2820 0325 55415254 		.ascii	"UART_LOG_SetTxInterruptMode\000"
 2820      5F4C4F47 
 2820      5F536574 
 2820      5478496E 
ARM GAS  C:\Users\rbhar\AppData\Local\Temp\ccaqTdDy.s 			page 81


 2820      74657272 
 2821              	.LASF75:
 2822 0341 474E5520 		.ascii	"GNU C11 5.4.1 20160609 (release) [ARM/embedded-5-br"
 2822      43313120 
 2822      352E342E 
 2822      31203230 
 2822      31363036 
 2823 0374 616E6368 		.ascii	"anch revision 237715] -mcpu=cortex-m3 -mthumb -g -O"
 2823      20726576 
 2823      6973696F 
 2823      6E203233 
 2823      37373135 
 2824 03a7 67202D66 		.ascii	"g -ffunction-sections -ffat-lto-objects\000"
 2824      66756E63 
 2824      74696F6E 
 2824      2D736563 
 2824      74696F6E 
 2825              	.LASF56:
 2826 03cf 62797465 		.ascii	"byteCount\000"
 2826      436F756E 
 2826      7400
 2827              	.LASF65:
 2828 03d9 55415254 		.ascii	"UART_LOG_initVar\000"
 2828      5F4C4F47 
 2828      5F696E69 
 2828      74566172 
 2828      00
 2829              	.LASF59:
 2830 03ea 55415254 		.ascii	"UART_LOG_ClearTxBuffer\000"
 2830      5F4C4F47 
 2830      5F436C65 
 2830      61725478 
 2830      42756666 
 2831              	.LASF29:
 2832 0401 72784461 		.ascii	"rxData\000"
 2832      746100
 2833              	.LASF49:
 2834 0408 55415254 		.ascii	"UART_LOG_PutChar\000"
 2834      5F4C4F47 
 2834      5F507574 
 2834      43686172 
 2834      00
 2835              	.LASF15:
 2836 0419 63686172 		.ascii	"char\000"
 2836      00
 2837              	.LASF58:
 2838 041e 55415254 		.ascii	"UART_LOG_GetTxBufferSize\000"
 2838      5F4C4F47 
 2838      5F476574 
 2838      54784275 
 2838      66666572 
 2839              	.LASF66:
 2840 0437 55415254 		.ascii	"UART_LOG_txBuffer\000"
 2840      5F4C4F47 
 2840      5F747842 
 2840      75666665 
 2840      7200
ARM GAS  C:\Users\rbhar\AppData\Local\Temp\ccaqTdDy.s 			page 82


 2841              	.LASF21:
 2842 0449 55415254 		.ascii	"UART_LOG_Enable\000"
 2842      5F4C4F47 
 2842      5F456E61 
 2842      626C6500 
 2843              	.LASF14:
 2844 0459 63686172 		.ascii	"char8\000"
 2844      3800
 2845              	.LASF72:
 2846 045f 55415254 		.ascii	"UART_LOG_IntClock_Start\000"
 2846      5F4C4F47 
 2846      5F496E74 
 2846      436C6F63 
 2846      6B5F5374 
 2847              	.LASF26:
 2848 0477 55415254 		.ascii	"UART_LOG_SetRxInterruptMode\000"
 2848      5F4C4F47 
 2848      5F536574 
 2848      5278496E 
 2848      74657272 
 2849              	.LASF55:
 2850 0493 55415254 		.ascii	"UART_LOG_PutArray\000"
 2850      5F4C4F47 
 2850      5F507574 
 2850      41727261 
 2850      7900
 2851              	.LASF52:
 2852 04a5 55415254 		.ascii	"UART_LOG_PutString\000"
 2852      5F4C4F47 
 2852      5F507574 
 2852      53747269 
 2852      6E6700
 2853              	.LASF24:
 2854 04b8 656E6162 		.ascii	"enableInterrupts\000"
 2854      6C65496E 
 2854      74657272 
 2854      75707473 
 2854      00
 2855              	.LASF32:
 2856 04c9 73746174 		.ascii	"status\000"
 2856      757300
 2857              	.LASF57:
 2858 04d0 55415254 		.ascii	"UART_LOG_PutCRLF\000"
 2858      5F4C4F47 
 2858      5F507574 
 2858      43524C46 
 2858      00
 2859              	.LASF48:
 2860 04e1 55415254 		.ascii	"UART_LOG_ReadTxStatus\000"
 2860      5F4C4F47 
 2860      5F526561 
 2860      64547853 
 2860      74617475 
 2861              	.LASF41:
 2862 04f7 55415254 		.ascii	"UART_LOG_SetRxAddress1\000"
 2862      5F4C4F47 
 2862      5F536574 
ARM GAS  C:\Users\rbhar\AppData\Local\Temp\ccaqTdDy.s 			page 83


 2862      52784164 
 2862      64726573 
 2863              	.LASF43:
 2864 050e 55415254 		.ascii	"UART_LOG_SetRxAddress2\000"
 2864      5F4C4F47 
 2864      5F536574 
 2864      52784164 
 2864      64726573 
 2865              	.LASF74:
 2866 0525 55415254 		.ascii	"UART_LOG_IntClock_Stop\000"
 2866      5F4C4F47 
 2866      5F496E74 
 2866      436C6F63 
 2866      6B5F5374 
 2867              	.LASF77:
 2868 053c 443A5C48 		.ascii	"D:\\HDA\\1_sem\\Embedded System Design\\Lab\\Assign"
 2868      44415C31 
 2868      5F73656D 
 2868      5C456D62 
 2868      65646465 
 2869 056a 6D656E74 		.ascii	"ment_1\\ReactionGame_OS\\ReactionGame.cydsn\000"
 2869      5F315C52 
 2869      65616374 
 2869      696F6E47 
 2869      616D655F 
 2870              		.ident	"GCC: (GNU Tools for ARM Embedded Processors) 5.4.1 20160609 (release) [ARM/embedded-5-bran
