ARM GAS  C:\Users\rbhar\AppData\Local\Temp\ccaqTdDy.s 			page 1


   1              		.syntax unified
   2              		.cpu cortex-m3
   3              		.fpu softvfp
   4              		.eabi_attribute 20, 1
   5              		.eabi_attribute 21, 1
   6              		.eabi_attribute 23, 3
   7              		.eabi_attribute 24, 1
   8              		.eabi_attribute 25, 1
   9              		.eabi_attribute 26, 1
  10              		.eabi_attribute 30, 1
  11              		.eabi_attribute 34, 1
  12              		.eabi_attribute 18, 4
  13              		.thumb
  14              		.syntax unified
  15              		.file	"UART_LOG.c"
  16              		.text
  17              	.Ltext0:
  18              		.cfi_sections	.debug_frame
  19              		.section	.text.UART_LOG_Init,"ax",%progbits
  20              		.align	2
  21              		.global	UART_LOG_Init
  22              		.thumb
  23              		.thumb_func
  24              		.type	UART_LOG_Init, %function
  25              	UART_LOG_Init:
  26              	.LFB1:
  27              		.file 1 "Generated_Source\\PSoC5\\UART_LOG.c"
   1:Generated_Source\PSoC5/UART_LOG.c **** /*******************************************************************************
   2:Generated_Source\PSoC5/UART_LOG.c **** * File Name: UART_LOG.c
   3:Generated_Source\PSoC5/UART_LOG.c **** * Version 2.50
   4:Generated_Source\PSoC5/UART_LOG.c **** *
   5:Generated_Source\PSoC5/UART_LOG.c **** * Description:
   6:Generated_Source\PSoC5/UART_LOG.c **** *  This file provides all API functionality of the UART component
   7:Generated_Source\PSoC5/UART_LOG.c **** *
   8:Generated_Source\PSoC5/UART_LOG.c **** * Note:
   9:Generated_Source\PSoC5/UART_LOG.c **** *
  10:Generated_Source\PSoC5/UART_LOG.c **** ********************************************************************************
  11:Generated_Source\PSoC5/UART_LOG.c **** * Copyright 2008-2015, Cypress Semiconductor Corporation.  All rights reserved.
  12:Generated_Source\PSoC5/UART_LOG.c **** * You may use this file only in accordance with the license, terms, conditions,
  13:Generated_Source\PSoC5/UART_LOG.c **** * disclaimers, and limitations in the end user license agreement accompanying
  14:Generated_Source\PSoC5/UART_LOG.c **** * the software package with which this file was provided.
  15:Generated_Source\PSoC5/UART_LOG.c **** *******************************************************************************/
  16:Generated_Source\PSoC5/UART_LOG.c **** 
  17:Generated_Source\PSoC5/UART_LOG.c **** #include "UART_LOG.h"
  18:Generated_Source\PSoC5/UART_LOG.c **** #if (UART_LOG_INTERNAL_CLOCK_USED)
  19:Generated_Source\PSoC5/UART_LOG.c ****     #include "UART_LOG_IntClock.h"
  20:Generated_Source\PSoC5/UART_LOG.c **** #endif /* End UART_LOG_INTERNAL_CLOCK_USED */
  21:Generated_Source\PSoC5/UART_LOG.c **** 
  22:Generated_Source\PSoC5/UART_LOG.c **** 
  23:Generated_Source\PSoC5/UART_LOG.c **** /***************************************
  24:Generated_Source\PSoC5/UART_LOG.c **** * Global data allocation
  25:Generated_Source\PSoC5/UART_LOG.c **** ***************************************/
  26:Generated_Source\PSoC5/UART_LOG.c **** 
  27:Generated_Source\PSoC5/UART_LOG.c **** uint8 UART_LOG_initVar = 0u;
  28:Generated_Source\PSoC5/UART_LOG.c **** 
  29:Generated_Source\PSoC5/UART_LOG.c **** #if (UART_LOG_TX_INTERRUPT_ENABLED && UART_LOG_TX_ENABLED)
  30:Generated_Source\PSoC5/UART_LOG.c ****     volatile uint8 UART_LOG_txBuffer[UART_LOG_TX_BUFFER_SIZE];
ARM GAS  C:\Users\rbhar\AppData\Local\Temp\ccaqTdDy.s 			page 2


  31:Generated_Source\PSoC5/UART_LOG.c ****     volatile uint8 UART_LOG_txBufferRead = 0u;
  32:Generated_Source\PSoC5/UART_LOG.c ****     uint8 UART_LOG_txBufferWrite = 0u;
  33:Generated_Source\PSoC5/UART_LOG.c **** #endif /* (UART_LOG_TX_INTERRUPT_ENABLED && UART_LOG_TX_ENABLED) */
  34:Generated_Source\PSoC5/UART_LOG.c **** 
  35:Generated_Source\PSoC5/UART_LOG.c **** #if (UART_LOG_RX_INTERRUPT_ENABLED && (UART_LOG_RX_ENABLED || UART_LOG_HD_ENABLED))
  36:Generated_Source\PSoC5/UART_LOG.c ****     uint8 UART_LOG_errorStatus = 0u;
  37:Generated_Source\PSoC5/UART_LOG.c ****     volatile uint8 UART_LOG_rxBuffer[UART_LOG_RX_BUFFER_SIZE];
  38:Generated_Source\PSoC5/UART_LOG.c ****     volatile uint8 UART_LOG_rxBufferRead  = 0u;
  39:Generated_Source\PSoC5/UART_LOG.c ****     volatile uint8 UART_LOG_rxBufferWrite = 0u;
  40:Generated_Source\PSoC5/UART_LOG.c ****     volatile uint8 UART_LOG_rxBufferLoopDetect = 0u;
  41:Generated_Source\PSoC5/UART_LOG.c ****     volatile uint8 UART_LOG_rxBufferOverflow   = 0u;
  42:Generated_Source\PSoC5/UART_LOG.c ****     #if (UART_LOG_RXHW_ADDRESS_ENABLED)
  43:Generated_Source\PSoC5/UART_LOG.c ****         volatile uint8 UART_LOG_rxAddressMode = UART_LOG_RX_ADDRESS_MODE;
  44:Generated_Source\PSoC5/UART_LOG.c ****         volatile uint8 UART_LOG_rxAddressDetected = 0u;
  45:Generated_Source\PSoC5/UART_LOG.c ****     #endif /* (UART_LOG_RXHW_ADDRESS_ENABLED) */
  46:Generated_Source\PSoC5/UART_LOG.c **** #endif /* (UART_LOG_RX_INTERRUPT_ENABLED && (UART_LOG_RX_ENABLED || UART_LOG_HD_ENABLED)) */
  47:Generated_Source\PSoC5/UART_LOG.c **** 
  48:Generated_Source\PSoC5/UART_LOG.c **** 
  49:Generated_Source\PSoC5/UART_LOG.c **** /*******************************************************************************
  50:Generated_Source\PSoC5/UART_LOG.c **** * Function Name: UART_LOG_Start
  51:Generated_Source\PSoC5/UART_LOG.c **** ********************************************************************************
  52:Generated_Source\PSoC5/UART_LOG.c **** *
  53:Generated_Source\PSoC5/UART_LOG.c **** * Summary:
  54:Generated_Source\PSoC5/UART_LOG.c **** *  This is the preferred method to begin component operation.
  55:Generated_Source\PSoC5/UART_LOG.c **** *  UART_LOG_Start() sets the initVar variable, calls the
  56:Generated_Source\PSoC5/UART_LOG.c **** *  UART_LOG_Init() function, and then calls the
  57:Generated_Source\PSoC5/UART_LOG.c **** *  UART_LOG_Enable() function.
  58:Generated_Source\PSoC5/UART_LOG.c **** *
  59:Generated_Source\PSoC5/UART_LOG.c **** * Parameters:
  60:Generated_Source\PSoC5/UART_LOG.c **** *  None.
  61:Generated_Source\PSoC5/UART_LOG.c **** *
  62:Generated_Source\PSoC5/UART_LOG.c **** * Return:
  63:Generated_Source\PSoC5/UART_LOG.c **** *  None.
  64:Generated_Source\PSoC5/UART_LOG.c **** *
  65:Generated_Source\PSoC5/UART_LOG.c **** * Global variables:
  66:Generated_Source\PSoC5/UART_LOG.c **** *  The UART_LOG_intiVar variable is used to indicate initial
  67:Generated_Source\PSoC5/UART_LOG.c **** *  configuration of this component. The variable is initialized to zero (0u)
  68:Generated_Source\PSoC5/UART_LOG.c **** *  and set to one (1u) the first time UART_LOG_Start() is called. This
  69:Generated_Source\PSoC5/UART_LOG.c **** *  allows for component initialization without re-initialization in all
  70:Generated_Source\PSoC5/UART_LOG.c **** *  subsequent calls to the UART_LOG_Start() routine.
  71:Generated_Source\PSoC5/UART_LOG.c **** *
  72:Generated_Source\PSoC5/UART_LOG.c **** * Reentrant:
  73:Generated_Source\PSoC5/UART_LOG.c **** *  No.
  74:Generated_Source\PSoC5/UART_LOG.c **** *
  75:Generated_Source\PSoC5/UART_LOG.c **** *******************************************************************************/
  76:Generated_Source\PSoC5/UART_LOG.c **** void UART_LOG_Start(void) 
  77:Generated_Source\PSoC5/UART_LOG.c **** {
  78:Generated_Source\PSoC5/UART_LOG.c ****     /* If not initialized then initialize all required hardware and software */
  79:Generated_Source\PSoC5/UART_LOG.c ****     if(UART_LOG_initVar == 0u)
  80:Generated_Source\PSoC5/UART_LOG.c ****     {
  81:Generated_Source\PSoC5/UART_LOG.c ****         UART_LOG_Init();
  82:Generated_Source\PSoC5/UART_LOG.c ****         UART_LOG_initVar = 1u;
  83:Generated_Source\PSoC5/UART_LOG.c ****     }
  84:Generated_Source\PSoC5/UART_LOG.c **** 
  85:Generated_Source\PSoC5/UART_LOG.c ****     UART_LOG_Enable();
  86:Generated_Source\PSoC5/UART_LOG.c **** }
  87:Generated_Source\PSoC5/UART_LOG.c **** 
ARM GAS  C:\Users\rbhar\AppData\Local\Temp\ccaqTdDy.s 			page 3


  88:Generated_Source\PSoC5/UART_LOG.c **** 
  89:Generated_Source\PSoC5/UART_LOG.c **** /*******************************************************************************
  90:Generated_Source\PSoC5/UART_LOG.c **** * Function Name: UART_LOG_Init
  91:Generated_Source\PSoC5/UART_LOG.c **** ********************************************************************************
  92:Generated_Source\PSoC5/UART_LOG.c **** *
  93:Generated_Source\PSoC5/UART_LOG.c **** * Summary:
  94:Generated_Source\PSoC5/UART_LOG.c **** *  Initializes or restores the component according to the customizer Configure
  95:Generated_Source\PSoC5/UART_LOG.c **** *  dialog settings. It is not necessary to call UART_LOG_Init() because
  96:Generated_Source\PSoC5/UART_LOG.c **** *  the UART_LOG_Start() API calls this function and is the preferred
  97:Generated_Source\PSoC5/UART_LOG.c **** *  method to begin component operation.
  98:Generated_Source\PSoC5/UART_LOG.c **** *
  99:Generated_Source\PSoC5/UART_LOG.c **** * Parameters:
 100:Generated_Source\PSoC5/UART_LOG.c **** *  None.
 101:Generated_Source\PSoC5/UART_LOG.c **** *
 102:Generated_Source\PSoC5/UART_LOG.c **** * Return:
 103:Generated_Source\PSoC5/UART_LOG.c **** *  None.
 104:Generated_Source\PSoC5/UART_LOG.c **** *
 105:Generated_Source\PSoC5/UART_LOG.c **** *******************************************************************************/
 106:Generated_Source\PSoC5/UART_LOG.c **** void UART_LOG_Init(void) 
 107:Generated_Source\PSoC5/UART_LOG.c **** {
  28              		.loc 1 107 0
  29              		.cfi_startproc
  30              		@ args = 0, pretend = 0, frame = 0
  31              		@ frame_needed = 0, uses_anonymous_args = 0
  32 0000 08B5     		push	{r3, lr}
  33              		.cfi_def_cfa_offset 8
  34              		.cfi_offset 3, -8
  35              		.cfi_offset 14, -4
 108:Generated_Source\PSoC5/UART_LOG.c ****     #if(UART_LOG_RX_ENABLED || UART_LOG_HD_ENABLED)
 109:Generated_Source\PSoC5/UART_LOG.c **** 
 110:Generated_Source\PSoC5/UART_LOG.c ****         #if (UART_LOG_RX_INTERRUPT_ENABLED)
 111:Generated_Source\PSoC5/UART_LOG.c ****             /* Set RX interrupt vector and priority */
 112:Generated_Source\PSoC5/UART_LOG.c ****             (void) CyIntSetVector(UART_LOG_RX_VECT_NUM, &UART_LOG_RXISR);
 113:Generated_Source\PSoC5/UART_LOG.c ****             CyIntSetPriority(UART_LOG_RX_VECT_NUM, UART_LOG_RX_PRIOR_NUM);
 114:Generated_Source\PSoC5/UART_LOG.c ****             UART_LOG_errorStatus = 0u;
 115:Generated_Source\PSoC5/UART_LOG.c ****         #endif /* (UART_LOG_RX_INTERRUPT_ENABLED) */
 116:Generated_Source\PSoC5/UART_LOG.c **** 
 117:Generated_Source\PSoC5/UART_LOG.c ****         #if (UART_LOG_RXHW_ADDRESS_ENABLED)
 118:Generated_Source\PSoC5/UART_LOG.c ****             UART_LOG_SetRxAddressMode(UART_LOG_RX_ADDRESS_MODE);
 119:Generated_Source\PSoC5/UART_LOG.c ****             UART_LOG_SetRxAddress1(UART_LOG_RX_HW_ADDRESS1);
 120:Generated_Source\PSoC5/UART_LOG.c ****             UART_LOG_SetRxAddress2(UART_LOG_RX_HW_ADDRESS2);
 121:Generated_Source\PSoC5/UART_LOG.c ****         #endif /* End UART_LOG_RXHW_ADDRESS_ENABLED */
 122:Generated_Source\PSoC5/UART_LOG.c **** 
 123:Generated_Source\PSoC5/UART_LOG.c ****         /* Init Count7 period */
 124:Generated_Source\PSoC5/UART_LOG.c ****         UART_LOG_RXBITCTR_PERIOD_REG = UART_LOG_RXBITCTR_INIT;
  36              		.loc 1 124 0
  37 0002 7222     		movs	r2, #114
  38 0004 0B4B     		ldr	r3, .L3
  39 0006 1A70     		strb	r2, [r3]
 125:Generated_Source\PSoC5/UART_LOG.c ****         /* Configure the Initial RX interrupt mask */
 126:Generated_Source\PSoC5/UART_LOG.c ****         UART_LOG_RXSTATUS_MASK_REG  = UART_LOG_INIT_RX_INTERRUPTS_MASK;
  40              		.loc 1 126 0
  41 0008 2022     		movs	r2, #32
  42 000a 043B     		subs	r3, r3, #4
  43 000c 1A70     		strb	r2, [r3]
 127:Generated_Source\PSoC5/UART_LOG.c ****     #endif /* End UART_LOG_RX_ENABLED || UART_LOG_HD_ENABLED*/
 128:Generated_Source\PSoC5/UART_LOG.c **** 
ARM GAS  C:\Users\rbhar\AppData\Local\Temp\ccaqTdDy.s 			page 4


 129:Generated_Source\PSoC5/UART_LOG.c ****     #if(UART_LOG_TX_ENABLED)
 130:Generated_Source\PSoC5/UART_LOG.c ****         #if (UART_LOG_TX_INTERRUPT_ENABLED)
 131:Generated_Source\PSoC5/UART_LOG.c ****             /* Set TX interrupt vector and priority */
 132:Generated_Source\PSoC5/UART_LOG.c ****             (void) CyIntSetVector(UART_LOG_TX_VECT_NUM, &UART_LOG_TXISR);
  44              		.loc 1 132 0
  45 000e 0A49     		ldr	r1, .L3+4
  46 0010 0020     		movs	r0, #0
  47 0012 FFF7FEFF 		bl	CyIntSetVector
  48              	.LVL0:
 133:Generated_Source\PSoC5/UART_LOG.c ****             CyIntSetPriority(UART_LOG_TX_VECT_NUM, UART_LOG_TX_PRIOR_NUM);
  49              		.loc 1 133 0
  50 0016 0721     		movs	r1, #7
  51 0018 0020     		movs	r0, #0
  52 001a FFF7FEFF 		bl	CyIntSetPriority
  53              	.LVL1:
 134:Generated_Source\PSoC5/UART_LOG.c ****         #endif /* (UART_LOG_TX_INTERRUPT_ENABLED) */
 135:Generated_Source\PSoC5/UART_LOG.c **** 
 136:Generated_Source\PSoC5/UART_LOG.c ****         /* Write Counter Value for TX Bit Clk Generator*/
 137:Generated_Source\PSoC5/UART_LOG.c ****         #if (UART_LOG_TXCLKGEN_DP)
 138:Generated_Source\PSoC5/UART_LOG.c ****             UART_LOG_TXBITCLKGEN_CTR_REG = UART_LOG_BIT_CENTER;
  54              		.loc 1 138 0
  55 001e 0622     		movs	r2, #6
  56 0020 064B     		ldr	r3, .L3+8
  57 0022 1A70     		strb	r2, [r3]
 139:Generated_Source\PSoC5/UART_LOG.c ****             UART_LOG_TXBITCLKTX_COMPLETE_REG = ((UART_LOG_NUMBER_OF_DATA_BITS +
  58              		.loc 1 139 0
  59 0024 4722     		movs	r2, #71
  60 0026 1033     		adds	r3, r3, #16
  61 0028 1A70     		strb	r2, [r3]
 140:Generated_Source\PSoC5/UART_LOG.c ****                         UART_LOG_NUMBER_OF_START_BIT) * UART_LOG_OVER_SAMPLE_COUNT) - 1u;
 141:Generated_Source\PSoC5/UART_LOG.c ****         #else
 142:Generated_Source\PSoC5/UART_LOG.c ****             UART_LOG_TXBITCTR_PERIOD_REG = ((UART_LOG_NUMBER_OF_DATA_BITS +
 143:Generated_Source\PSoC5/UART_LOG.c ****                         UART_LOG_NUMBER_OF_START_BIT) * UART_LOG_OVER_SAMPLE_8) - 1u;
 144:Generated_Source\PSoC5/UART_LOG.c ****         #endif /* End UART_LOG_TXCLKGEN_DP */
 145:Generated_Source\PSoC5/UART_LOG.c **** 
 146:Generated_Source\PSoC5/UART_LOG.c ****         /* Configure the Initial TX interrupt mask */
 147:Generated_Source\PSoC5/UART_LOG.c ****         #if (UART_LOG_TX_INTERRUPT_ENABLED)
 148:Generated_Source\PSoC5/UART_LOG.c ****             UART_LOG_TXSTATUS_MASK_REG = UART_LOG_TX_STS_FIFO_EMPTY;
  62              		.loc 1 148 0
  63 002a 0222     		movs	r2, #2
  64 002c 5033     		adds	r3, r3, #80
  65 002e 1A70     		strb	r2, [r3]
  66 0030 08BD     		pop	{r3, pc}
  67              	.L4:
  68 0032 00BF     		.align	2
  69              	.L3:
  70 0034 85640040 		.word	1073767557
  71 0038 00000000 		.word	UART_LOG_TXISR
  72 003c 23640040 		.word	1073767459
  73              		.cfi_endproc
  74              	.LFE1:
  75              		.size	UART_LOG_Init, .-UART_LOG_Init
  76              		.section	.text.UART_LOG_Enable,"ax",%progbits
  77              		.align	2
  78              		.global	UART_LOG_Enable
  79              		.thumb
  80              		.thumb_func
ARM GAS  C:\Users\rbhar\AppData\Local\Temp\ccaqTdDy.s 			page 5


  81              		.type	UART_LOG_Enable, %function
  82              	UART_LOG_Enable:
  83              	.LFB2:
 149:Generated_Source\PSoC5/UART_LOG.c ****         #else
 150:Generated_Source\PSoC5/UART_LOG.c ****             UART_LOG_TXSTATUS_MASK_REG = UART_LOG_INIT_TX_INTERRUPTS_MASK;
 151:Generated_Source\PSoC5/UART_LOG.c ****         #endif /*End UART_LOG_TX_INTERRUPT_ENABLED*/
 152:Generated_Source\PSoC5/UART_LOG.c **** 
 153:Generated_Source\PSoC5/UART_LOG.c ****     #endif /* End UART_LOG_TX_ENABLED */
 154:Generated_Source\PSoC5/UART_LOG.c **** 
 155:Generated_Source\PSoC5/UART_LOG.c ****     #if(UART_LOG_PARITY_TYPE_SW)  /* Write Parity to Control Register */
 156:Generated_Source\PSoC5/UART_LOG.c ****         UART_LOG_WriteControlRegister( \
 157:Generated_Source\PSoC5/UART_LOG.c ****             (UART_LOG_ReadControlRegister() & (uint8)~UART_LOG_CTRL_PARITY_TYPE_MASK) | \
 158:Generated_Source\PSoC5/UART_LOG.c ****             (uint8)(UART_LOG_PARITY_TYPE << UART_LOG_CTRL_PARITY_TYPE0_SHIFT) );
 159:Generated_Source\PSoC5/UART_LOG.c ****     #endif /* End UART_LOG_PARITY_TYPE_SW */
 160:Generated_Source\PSoC5/UART_LOG.c **** }
 161:Generated_Source\PSoC5/UART_LOG.c **** 
 162:Generated_Source\PSoC5/UART_LOG.c **** 
 163:Generated_Source\PSoC5/UART_LOG.c **** /*******************************************************************************
 164:Generated_Source\PSoC5/UART_LOG.c **** * Function Name: UART_LOG_Enable
 165:Generated_Source\PSoC5/UART_LOG.c **** ********************************************************************************
 166:Generated_Source\PSoC5/UART_LOG.c **** *
 167:Generated_Source\PSoC5/UART_LOG.c **** * Summary:
 168:Generated_Source\PSoC5/UART_LOG.c **** *  Activates the hardware and begins component operation. It is not necessary
 169:Generated_Source\PSoC5/UART_LOG.c **** *  to call UART_LOG_Enable() because the UART_LOG_Start() API
 170:Generated_Source\PSoC5/UART_LOG.c **** *  calls this function, which is the preferred method to begin component
 171:Generated_Source\PSoC5/UART_LOG.c **** *  operation.
 172:Generated_Source\PSoC5/UART_LOG.c **** 
 173:Generated_Source\PSoC5/UART_LOG.c **** * Parameters:
 174:Generated_Source\PSoC5/UART_LOG.c **** *  None.
 175:Generated_Source\PSoC5/UART_LOG.c **** *
 176:Generated_Source\PSoC5/UART_LOG.c **** * Return:
 177:Generated_Source\PSoC5/UART_LOG.c **** *  None.
 178:Generated_Source\PSoC5/UART_LOG.c **** *
 179:Generated_Source\PSoC5/UART_LOG.c **** * Global Variables:
 180:Generated_Source\PSoC5/UART_LOG.c **** *  UART_LOG_rxAddressDetected - set to initial state (0).
 181:Generated_Source\PSoC5/UART_LOG.c **** *
 182:Generated_Source\PSoC5/UART_LOG.c **** *******************************************************************************/
 183:Generated_Source\PSoC5/UART_LOG.c **** void UART_LOG_Enable(void) 
 184:Generated_Source\PSoC5/UART_LOG.c **** {
  84              		.loc 1 184 0
  85              		.cfi_startproc
  86              		@ args = 0, pretend = 0, frame = 0
  87              		@ frame_needed = 0, uses_anonymous_args = 0
  88 0000 10B5     		push	{r4, lr}
  89              		.cfi_def_cfa_offset 8
  90              		.cfi_offset 4, -8
  91              		.cfi_offset 14, -4
 185:Generated_Source\PSoC5/UART_LOG.c ****     uint8 enableInterrupts;
 186:Generated_Source\PSoC5/UART_LOG.c ****     enableInterrupts = CyEnterCriticalSection();
  92              		.loc 1 186 0
  93 0002 FFF7FEFF 		bl	CyEnterCriticalSection
  94              	.LVL2:
  95 0006 0446     		mov	r4, r0
  96              	.LVL3:
 187:Generated_Source\PSoC5/UART_LOG.c **** 
 188:Generated_Source\PSoC5/UART_LOG.c ****     #if (UART_LOG_RX_ENABLED || UART_LOG_HD_ENABLED)
 189:Generated_Source\PSoC5/UART_LOG.c ****         /* RX Counter (Count7) Enable */
ARM GAS  C:\Users\rbhar\AppData\Local\Temp\ccaqTdDy.s 			page 6


 190:Generated_Source\PSoC5/UART_LOG.c ****         UART_LOG_RXBITCTR_CONTROL_REG |= UART_LOG_CNTR_ENABLE;
  97              		.loc 1 190 0
  98 0008 0D4A     		ldr	r2, .L7
  99 000a 1378     		ldrb	r3, [r2]	@ zero_extendqisi2
 100 000c 43F02003 		orr	r3, r3, #32
 101 0010 1370     		strb	r3, [r2]
 191:Generated_Source\PSoC5/UART_LOG.c **** 
 192:Generated_Source\PSoC5/UART_LOG.c ****         /* Enable the RX Interrupt */
 193:Generated_Source\PSoC5/UART_LOG.c ****         UART_LOG_RXSTATUS_ACTL_REG  |= UART_LOG_INT_ENABLE;
 102              		.loc 1 193 0
 103 0012 043A     		subs	r2, r2, #4
 104 0014 1378     		ldrb	r3, [r2]	@ zero_extendqisi2
 105 0016 43F01003 		orr	r3, r3, #16
 106 001a 1370     		strb	r3, [r2]
 194:Generated_Source\PSoC5/UART_LOG.c **** 
 195:Generated_Source\PSoC5/UART_LOG.c ****         #if (UART_LOG_RX_INTERRUPT_ENABLED)
 196:Generated_Source\PSoC5/UART_LOG.c ****             UART_LOG_EnableRxInt();
 197:Generated_Source\PSoC5/UART_LOG.c **** 
 198:Generated_Source\PSoC5/UART_LOG.c ****             #if (UART_LOG_RXHW_ADDRESS_ENABLED)
 199:Generated_Source\PSoC5/UART_LOG.c ****                 UART_LOG_rxAddressDetected = 0u;
 200:Generated_Source\PSoC5/UART_LOG.c ****             #endif /* (UART_LOG_RXHW_ADDRESS_ENABLED) */
 201:Generated_Source\PSoC5/UART_LOG.c ****         #endif /* (UART_LOG_RX_INTERRUPT_ENABLED) */
 202:Generated_Source\PSoC5/UART_LOG.c ****     #endif /* (UART_LOG_RX_ENABLED || UART_LOG_HD_ENABLED) */
 203:Generated_Source\PSoC5/UART_LOG.c **** 
 204:Generated_Source\PSoC5/UART_LOG.c ****     #if(UART_LOG_TX_ENABLED)
 205:Generated_Source\PSoC5/UART_LOG.c ****         /* TX Counter (DP/Count7) Enable */
 206:Generated_Source\PSoC5/UART_LOG.c ****         #if(!UART_LOG_TXCLKGEN_DP)
 207:Generated_Source\PSoC5/UART_LOG.c ****             UART_LOG_TXBITCTR_CONTROL_REG |= UART_LOG_CNTR_ENABLE;
 208:Generated_Source\PSoC5/UART_LOG.c ****         #endif /* End UART_LOG_TXCLKGEN_DP */
 209:Generated_Source\PSoC5/UART_LOG.c **** 
 210:Generated_Source\PSoC5/UART_LOG.c ****         /* Enable the TX Interrupt */
 211:Generated_Source\PSoC5/UART_LOG.c ****         UART_LOG_TXSTATUS_ACTL_REG |= UART_LOG_INT_ENABLE;
 107              		.loc 1 211 0
 108 001c 0232     		adds	r2, r2, #2
 109 001e 1378     		ldrb	r3, [r2]	@ zero_extendqisi2
 110 0020 43F01003 		orr	r3, r3, #16
 111 0024 1370     		strb	r3, [r2]
 212:Generated_Source\PSoC5/UART_LOG.c ****         #if (UART_LOG_TX_INTERRUPT_ENABLED)
 213:Generated_Source\PSoC5/UART_LOG.c ****             UART_LOG_ClearPendingTxInt(); /* Clear history of TX_NOT_EMPTY */
 112              		.loc 1 213 0
 113 0026 0123     		movs	r3, #1
 114 0028 064A     		ldr	r2, .L7+4
 115 002a 1360     		str	r3, [r2]
 214:Generated_Source\PSoC5/UART_LOG.c ****             UART_LOG_EnableTxInt();
 116              		.loc 1 214 0
 117 002c A2F5C072 		sub	r2, r2, #384
 118 0030 1360     		str	r3, [r2]
 215:Generated_Source\PSoC5/UART_LOG.c ****         #endif /* (UART_LOG_TX_INTERRUPT_ENABLED) */
 216:Generated_Source\PSoC5/UART_LOG.c ****      #endif /* (UART_LOG_TX_INTERRUPT_ENABLED) */
 217:Generated_Source\PSoC5/UART_LOG.c **** 
 218:Generated_Source\PSoC5/UART_LOG.c ****     #if (UART_LOG_INTERNAL_CLOCK_USED)
 219:Generated_Source\PSoC5/UART_LOG.c ****         UART_LOG_IntClock_Start();  /* Enable the clock */
 119              		.loc 1 219 0
 120 0032 FFF7FEFF 		bl	UART_LOG_IntClock_Start
 121              	.LVL4:
 220:Generated_Source\PSoC5/UART_LOG.c ****     #endif /* (UART_LOG_INTERNAL_CLOCK_USED) */
 221:Generated_Source\PSoC5/UART_LOG.c **** 
ARM GAS  C:\Users\rbhar\AppData\Local\Temp\ccaqTdDy.s 			page 7


 222:Generated_Source\PSoC5/UART_LOG.c ****     CyExitCriticalSection(enableInterrupts);
 122              		.loc 1 222 0
 123 0036 2046     		mov	r0, r4
 124 0038 FFF7FEFF 		bl	CyExitCriticalSection
 125              	.LVL5:
 126 003c 10BD     		pop	{r4, pc}
 127              	.LVL6:
 128              	.L8:
 129 003e 00BF     		.align	2
 130              	.L7:
 131 0040 95640040 		.word	1073767573
 132 0044 80E200E0 		.word	-536812928
 133              		.cfi_endproc
 134              	.LFE2:
 135              		.size	UART_LOG_Enable, .-UART_LOG_Enable
 136              		.section	.text.UART_LOG_Start,"ax",%progbits
 137              		.align	2
 138              		.global	UART_LOG_Start
 139              		.thumb
 140              		.thumb_func
 141              		.type	UART_LOG_Start, %function
 142              	UART_LOG_Start:
 143              	.LFB0:
  77:Generated_Source\PSoC5/UART_LOG.c ****     /* If not initialized then initialize all required hardware and software */
 144              		.loc 1 77 0
 145              		.cfi_startproc
 146              		@ args = 0, pretend = 0, frame = 0
 147              		@ frame_needed = 0, uses_anonymous_args = 0
 148 0000 08B5     		push	{r3, lr}
 149              		.cfi_def_cfa_offset 8
 150              		.cfi_offset 3, -8
 151              		.cfi_offset 14, -4
  79:Generated_Source\PSoC5/UART_LOG.c ****     {
 152              		.loc 1 79 0
 153 0002 054B     		ldr	r3, .L12
 154 0004 1B78     		ldrb	r3, [r3]	@ zero_extendqisi2
 155 0006 23B9     		cbnz	r3, .L10
  81:Generated_Source\PSoC5/UART_LOG.c ****         UART_LOG_initVar = 1u;
 156              		.loc 1 81 0
 157 0008 FFF7FEFF 		bl	UART_LOG_Init
 158              	.LVL7:
  82:Generated_Source\PSoC5/UART_LOG.c ****     }
 159              		.loc 1 82 0
 160 000c 0122     		movs	r2, #1
 161 000e 024B     		ldr	r3, .L12
 162 0010 1A70     		strb	r2, [r3]
 163              	.L10:
  85:Generated_Source\PSoC5/UART_LOG.c **** }
 164              		.loc 1 85 0
 165 0012 FFF7FEFF 		bl	UART_LOG_Enable
 166              	.LVL8:
 167 0016 08BD     		pop	{r3, pc}
 168              	.L13:
 169              		.align	2
 170              	.L12:
 171 0018 00000000 		.word	.LANCHOR0
 172              		.cfi_endproc
ARM GAS  C:\Users\rbhar\AppData\Local\Temp\ccaqTdDy.s 			page 8


 173              	.LFE0:
 174              		.size	UART_LOG_Start, .-UART_LOG_Start
 175              		.section	.text.UART_LOG_Stop,"ax",%progbits
 176              		.align	2
 177              		.global	UART_LOG_Stop
 178              		.thumb
 179              		.thumb_func
 180              		.type	UART_LOG_Stop, %function
 181              	UART_LOG_Stop:
 182              	.LFB3:
 223:Generated_Source\PSoC5/UART_LOG.c **** }
 224:Generated_Source\PSoC5/UART_LOG.c **** 
 225:Generated_Source\PSoC5/UART_LOG.c **** 
 226:Generated_Source\PSoC5/UART_LOG.c **** /*******************************************************************************
 227:Generated_Source\PSoC5/UART_LOG.c **** * Function Name: UART_LOG_Stop
 228:Generated_Source\PSoC5/UART_LOG.c **** ********************************************************************************
 229:Generated_Source\PSoC5/UART_LOG.c **** *
 230:Generated_Source\PSoC5/UART_LOG.c **** * Summary:
 231:Generated_Source\PSoC5/UART_LOG.c **** *  Disables the UART operation.
 232:Generated_Source\PSoC5/UART_LOG.c **** *
 233:Generated_Source\PSoC5/UART_LOG.c **** * Parameters:
 234:Generated_Source\PSoC5/UART_LOG.c **** *  None.
 235:Generated_Source\PSoC5/UART_LOG.c **** *
 236:Generated_Source\PSoC5/UART_LOG.c **** * Return:
 237:Generated_Source\PSoC5/UART_LOG.c **** *  None.
 238:Generated_Source\PSoC5/UART_LOG.c **** *
 239:Generated_Source\PSoC5/UART_LOG.c **** *******************************************************************************/
 240:Generated_Source\PSoC5/UART_LOG.c **** void UART_LOG_Stop(void) 
 241:Generated_Source\PSoC5/UART_LOG.c **** {
 183              		.loc 1 241 0
 184              		.cfi_startproc
 185              		@ args = 0, pretend = 0, frame = 0
 186              		@ frame_needed = 0, uses_anonymous_args = 0
 187 0000 10B5     		push	{r4, lr}
 188              		.cfi_def_cfa_offset 8
 189              		.cfi_offset 4, -8
 190              		.cfi_offset 14, -4
 242:Generated_Source\PSoC5/UART_LOG.c ****     uint8 enableInterrupts;
 243:Generated_Source\PSoC5/UART_LOG.c ****     enableInterrupts = CyEnterCriticalSection();
 191              		.loc 1 243 0
 192 0002 FFF7FEFF 		bl	CyEnterCriticalSection
 193              	.LVL9:
 194 0006 0446     		mov	r4, r0
 195              	.LVL10:
 244:Generated_Source\PSoC5/UART_LOG.c **** 
 245:Generated_Source\PSoC5/UART_LOG.c ****     /* Write Bit Counter Disable */
 246:Generated_Source\PSoC5/UART_LOG.c ****     #if (UART_LOG_RX_ENABLED || UART_LOG_HD_ENABLED)
 247:Generated_Source\PSoC5/UART_LOG.c ****         UART_LOG_RXBITCTR_CONTROL_REG &= (uint8) ~UART_LOG_CNTR_ENABLE;
 196              		.loc 1 247 0
 197 0008 0B4A     		ldr	r2, .L16
 198 000a 1378     		ldrb	r3, [r2]	@ zero_extendqisi2
 199 000c 03F0DF03 		and	r3, r3, #223
 200 0010 1370     		strb	r3, [r2]
 248:Generated_Source\PSoC5/UART_LOG.c ****     #endif /* (UART_LOG_RX_ENABLED || UART_LOG_HD_ENABLED) */
 249:Generated_Source\PSoC5/UART_LOG.c **** 
 250:Generated_Source\PSoC5/UART_LOG.c ****     #if (UART_LOG_TX_ENABLED)
 251:Generated_Source\PSoC5/UART_LOG.c ****         #if(!UART_LOG_TXCLKGEN_DP)
ARM GAS  C:\Users\rbhar\AppData\Local\Temp\ccaqTdDy.s 			page 9


 252:Generated_Source\PSoC5/UART_LOG.c ****             UART_LOG_TXBITCTR_CONTROL_REG &= (uint8) ~UART_LOG_CNTR_ENABLE;
 253:Generated_Source\PSoC5/UART_LOG.c ****         #endif /* (!UART_LOG_TXCLKGEN_DP) */
 254:Generated_Source\PSoC5/UART_LOG.c ****     #endif /* (UART_LOG_TX_ENABLED) */
 255:Generated_Source\PSoC5/UART_LOG.c **** 
 256:Generated_Source\PSoC5/UART_LOG.c ****     #if (UART_LOG_INTERNAL_CLOCK_USED)
 257:Generated_Source\PSoC5/UART_LOG.c ****         UART_LOG_IntClock_Stop();   /* Disable the clock */
 201              		.loc 1 257 0
 202 0012 FFF7FEFF 		bl	UART_LOG_IntClock_Stop
 203              	.LVL11:
 258:Generated_Source\PSoC5/UART_LOG.c ****     #endif /* (UART_LOG_INTERNAL_CLOCK_USED) */
 259:Generated_Source\PSoC5/UART_LOG.c **** 
 260:Generated_Source\PSoC5/UART_LOG.c ****     /* Disable internal interrupt component */
 261:Generated_Source\PSoC5/UART_LOG.c ****     #if (UART_LOG_RX_ENABLED || UART_LOG_HD_ENABLED)
 262:Generated_Source\PSoC5/UART_LOG.c ****         UART_LOG_RXSTATUS_ACTL_REG  &= (uint8) ~UART_LOG_INT_ENABLE;
 204              		.loc 1 262 0
 205 0016 094A     		ldr	r2, .L16+4
 206 0018 1378     		ldrb	r3, [r2]	@ zero_extendqisi2
 207 001a 03F0EF03 		and	r3, r3, #239
 208 001e 1370     		strb	r3, [r2]
 263:Generated_Source\PSoC5/UART_LOG.c **** 
 264:Generated_Source\PSoC5/UART_LOG.c ****         #if (UART_LOG_RX_INTERRUPT_ENABLED)
 265:Generated_Source\PSoC5/UART_LOG.c ****             UART_LOG_DisableRxInt();
 266:Generated_Source\PSoC5/UART_LOG.c ****         #endif /* (UART_LOG_RX_INTERRUPT_ENABLED) */
 267:Generated_Source\PSoC5/UART_LOG.c ****     #endif /* (UART_LOG_RX_ENABLED || UART_LOG_HD_ENABLED) */
 268:Generated_Source\PSoC5/UART_LOG.c **** 
 269:Generated_Source\PSoC5/UART_LOG.c ****     #if (UART_LOG_TX_ENABLED)
 270:Generated_Source\PSoC5/UART_LOG.c ****         UART_LOG_TXSTATUS_ACTL_REG &= (uint8) ~UART_LOG_INT_ENABLE;
 209              		.loc 1 270 0
 210 0020 0232     		adds	r2, r2, #2
 211 0022 1378     		ldrb	r3, [r2]	@ zero_extendqisi2
 212 0024 03F0EF03 		and	r3, r3, #239
 213 0028 1370     		strb	r3, [r2]
 271:Generated_Source\PSoC5/UART_LOG.c **** 
 272:Generated_Source\PSoC5/UART_LOG.c ****         #if (UART_LOG_TX_INTERRUPT_ENABLED)
 273:Generated_Source\PSoC5/UART_LOG.c ****             UART_LOG_DisableTxInt();
 214              		.loc 1 273 0
 215 002a 0122     		movs	r2, #1
 216 002c 044B     		ldr	r3, .L16+8
 217 002e 1A60     		str	r2, [r3]
 274:Generated_Source\PSoC5/UART_LOG.c ****         #endif /* (UART_LOG_TX_INTERRUPT_ENABLED) */
 275:Generated_Source\PSoC5/UART_LOG.c ****     #endif /* (UART_LOG_TX_ENABLED) */
 276:Generated_Source\PSoC5/UART_LOG.c **** 
 277:Generated_Source\PSoC5/UART_LOG.c ****     CyExitCriticalSection(enableInterrupts);
 218              		.loc 1 277 0
 219 0030 2046     		mov	r0, r4
 220 0032 FFF7FEFF 		bl	CyExitCriticalSection
 221              	.LVL12:
 222 0036 10BD     		pop	{r4, pc}
 223              	.LVL13:
 224              	.L17:
 225              		.align	2
 226              	.L16:
 227 0038 95640040 		.word	1073767573
 228 003c 91640040 		.word	1073767569
 229 0040 80E100E0 		.word	-536813184
 230              		.cfi_endproc
 231              	.LFE3:
ARM GAS  C:\Users\rbhar\AppData\Local\Temp\ccaqTdDy.s 			page 10


 232              		.size	UART_LOG_Stop, .-UART_LOG_Stop
 233              		.section	.text.UART_LOG_ReadControlRegister,"ax",%progbits
 234              		.align	2
 235              		.global	UART_LOG_ReadControlRegister
 236              		.thumb
 237              		.thumb_func
 238              		.type	UART_LOG_ReadControlRegister, %function
 239              	UART_LOG_ReadControlRegister:
 240              	.LFB4:
 278:Generated_Source\PSoC5/UART_LOG.c **** }
 279:Generated_Source\PSoC5/UART_LOG.c **** 
 280:Generated_Source\PSoC5/UART_LOG.c **** 
 281:Generated_Source\PSoC5/UART_LOG.c **** /*******************************************************************************
 282:Generated_Source\PSoC5/UART_LOG.c **** * Function Name: UART_LOG_ReadControlRegister
 283:Generated_Source\PSoC5/UART_LOG.c **** ********************************************************************************
 284:Generated_Source\PSoC5/UART_LOG.c **** *
 285:Generated_Source\PSoC5/UART_LOG.c **** * Summary:
 286:Generated_Source\PSoC5/UART_LOG.c **** *  Returns the current value of the control register.
 287:Generated_Source\PSoC5/UART_LOG.c **** *
 288:Generated_Source\PSoC5/UART_LOG.c **** * Parameters:
 289:Generated_Source\PSoC5/UART_LOG.c **** *  None.
 290:Generated_Source\PSoC5/UART_LOG.c **** *
 291:Generated_Source\PSoC5/UART_LOG.c **** * Return:
 292:Generated_Source\PSoC5/UART_LOG.c **** *  Contents of the control register.
 293:Generated_Source\PSoC5/UART_LOG.c **** *
 294:Generated_Source\PSoC5/UART_LOG.c **** *******************************************************************************/
 295:Generated_Source\PSoC5/UART_LOG.c **** uint8 UART_LOG_ReadControlRegister(void) 
 296:Generated_Source\PSoC5/UART_LOG.c **** {
 241              		.loc 1 296 0
 242              		.cfi_startproc
 243              		@ args = 0, pretend = 0, frame = 0
 244              		@ frame_needed = 0, uses_anonymous_args = 0
 245              		@ link register save eliminated.
 297:Generated_Source\PSoC5/UART_LOG.c ****     #if (UART_LOG_CONTROL_REG_REMOVED)
 298:Generated_Source\PSoC5/UART_LOG.c ****         return(0u);
 299:Generated_Source\PSoC5/UART_LOG.c ****     #else
 300:Generated_Source\PSoC5/UART_LOG.c ****         return(UART_LOG_CONTROL_REG);
 301:Generated_Source\PSoC5/UART_LOG.c ****     #endif /* (UART_LOG_CONTROL_REG_REMOVED) */
 302:Generated_Source\PSoC5/UART_LOG.c **** }
 246              		.loc 1 302 0
 247 0000 0020     		movs	r0, #0
 248 0002 7047     		bx	lr
 249              		.cfi_endproc
 250              	.LFE4:
 251              		.size	UART_LOG_ReadControlRegister, .-UART_LOG_ReadControlRegister
 252              		.section	.text.UART_LOG_WriteControlRegister,"ax",%progbits
 253              		.align	2
 254              		.global	UART_LOG_WriteControlRegister
 255              		.thumb
 256              		.thumb_func
 257              		.type	UART_LOG_WriteControlRegister, %function
 258              	UART_LOG_WriteControlRegister:
 259              	.LFB5:
 303:Generated_Source\PSoC5/UART_LOG.c **** 
 304:Generated_Source\PSoC5/UART_LOG.c **** 
 305:Generated_Source\PSoC5/UART_LOG.c **** /*******************************************************************************
 306:Generated_Source\PSoC5/UART_LOG.c **** * Function Name: UART_LOG_WriteControlRegister
ARM GAS  C:\Users\rbhar\AppData\Local\Temp\ccaqTdDy.s 			page 11


 307:Generated_Source\PSoC5/UART_LOG.c **** ********************************************************************************
 308:Generated_Source\PSoC5/UART_LOG.c **** *
 309:Generated_Source\PSoC5/UART_LOG.c **** * Summary:
 310:Generated_Source\PSoC5/UART_LOG.c **** *  Writes an 8-bit value into the control register
 311:Generated_Source\PSoC5/UART_LOG.c **** *
 312:Generated_Source\PSoC5/UART_LOG.c **** * Parameters:
 313:Generated_Source\PSoC5/UART_LOG.c **** *  control:  control register value
 314:Generated_Source\PSoC5/UART_LOG.c **** *
 315:Generated_Source\PSoC5/UART_LOG.c **** * Return:
 316:Generated_Source\PSoC5/UART_LOG.c **** *  None.
 317:Generated_Source\PSoC5/UART_LOG.c **** *
 318:Generated_Source\PSoC5/UART_LOG.c **** *******************************************************************************/
 319:Generated_Source\PSoC5/UART_LOG.c **** void  UART_LOG_WriteControlRegister(uint8 control) 
 320:Generated_Source\PSoC5/UART_LOG.c **** {
 260              		.loc 1 320 0
 261              		.cfi_startproc
 262              		@ args = 0, pretend = 0, frame = 0
 263              		@ frame_needed = 0, uses_anonymous_args = 0
 264              		@ link register save eliminated.
 265              	.LVL14:
 266 0000 7047     		bx	lr
 267              		.cfi_endproc
 268              	.LFE5:
 269              		.size	UART_LOG_WriteControlRegister, .-UART_LOG_WriteControlRegister
 270 0002 00BF     		.section	.text.UART_LOG_SetRxInterruptMode,"ax",%progbits
 271              		.align	2
 272              		.global	UART_LOG_SetRxInterruptMode
 273              		.thumb
 274              		.thumb_func
 275              		.type	UART_LOG_SetRxInterruptMode, %function
 276              	UART_LOG_SetRxInterruptMode:
 277              	.LFB6:
 321:Generated_Source\PSoC5/UART_LOG.c ****     #if (UART_LOG_CONTROL_REG_REMOVED)
 322:Generated_Source\PSoC5/UART_LOG.c ****         if(0u != control)
 323:Generated_Source\PSoC5/UART_LOG.c ****         {
 324:Generated_Source\PSoC5/UART_LOG.c ****             /* Suppress compiler warning */
 325:Generated_Source\PSoC5/UART_LOG.c ****         }
 326:Generated_Source\PSoC5/UART_LOG.c ****     #else
 327:Generated_Source\PSoC5/UART_LOG.c ****        UART_LOG_CONTROL_REG = control;
 328:Generated_Source\PSoC5/UART_LOG.c ****     #endif /* (UART_LOG_CONTROL_REG_REMOVED) */
 329:Generated_Source\PSoC5/UART_LOG.c **** }
 330:Generated_Source\PSoC5/UART_LOG.c **** 
 331:Generated_Source\PSoC5/UART_LOG.c **** 
 332:Generated_Source\PSoC5/UART_LOG.c **** #if(UART_LOG_RX_ENABLED || UART_LOG_HD_ENABLED)
 333:Generated_Source\PSoC5/UART_LOG.c ****     /*******************************************************************************
 334:Generated_Source\PSoC5/UART_LOG.c ****     * Function Name: UART_LOG_SetRxInterruptMode
 335:Generated_Source\PSoC5/UART_LOG.c ****     ********************************************************************************
 336:Generated_Source\PSoC5/UART_LOG.c ****     *
 337:Generated_Source\PSoC5/UART_LOG.c ****     * Summary:
 338:Generated_Source\PSoC5/UART_LOG.c ****     *  Configures the RX interrupt sources enabled.
 339:Generated_Source\PSoC5/UART_LOG.c ****     *
 340:Generated_Source\PSoC5/UART_LOG.c ****     * Parameters:
 341:Generated_Source\PSoC5/UART_LOG.c ****     *  IntSrc:  Bit field containing the RX interrupts to enable. Based on the 
 342:Generated_Source\PSoC5/UART_LOG.c ****     *  bit-field arrangement of the status register. This value must be a 
 343:Generated_Source\PSoC5/UART_LOG.c ****     *  combination of status register bit-masks shown below:
 344:Generated_Source\PSoC5/UART_LOG.c ****     *      UART_LOG_RX_STS_FIFO_NOTEMPTY    Interrupt on byte received.
 345:Generated_Source\PSoC5/UART_LOG.c ****     *      UART_LOG_RX_STS_PAR_ERROR        Interrupt on parity error.
ARM GAS  C:\Users\rbhar\AppData\Local\Temp\ccaqTdDy.s 			page 12


 346:Generated_Source\PSoC5/UART_LOG.c ****     *      UART_LOG_RX_STS_STOP_ERROR       Interrupt on stop error.
 347:Generated_Source\PSoC5/UART_LOG.c ****     *      UART_LOG_RX_STS_BREAK            Interrupt on break.
 348:Generated_Source\PSoC5/UART_LOG.c ****     *      UART_LOG_RX_STS_OVERRUN          Interrupt on overrun error.
 349:Generated_Source\PSoC5/UART_LOG.c ****     *      UART_LOG_RX_STS_ADDR_MATCH       Interrupt on address match.
 350:Generated_Source\PSoC5/UART_LOG.c ****     *      UART_LOG_RX_STS_MRKSPC           Interrupt on address detect.
 351:Generated_Source\PSoC5/UART_LOG.c ****     *
 352:Generated_Source\PSoC5/UART_LOG.c ****     * Return:
 353:Generated_Source\PSoC5/UART_LOG.c ****     *  None.
 354:Generated_Source\PSoC5/UART_LOG.c ****     *
 355:Generated_Source\PSoC5/UART_LOG.c ****     * Theory:
 356:Generated_Source\PSoC5/UART_LOG.c ****     *  Enables the output of specific status bits to the interrupt controller
 357:Generated_Source\PSoC5/UART_LOG.c ****     *
 358:Generated_Source\PSoC5/UART_LOG.c ****     *******************************************************************************/
 359:Generated_Source\PSoC5/UART_LOG.c ****     void UART_LOG_SetRxInterruptMode(uint8 intSrc) 
 360:Generated_Source\PSoC5/UART_LOG.c ****     {
 278              		.loc 1 360 0
 279              		.cfi_startproc
 280              		@ args = 0, pretend = 0, frame = 0
 281              		@ frame_needed = 0, uses_anonymous_args = 0
 282              		@ link register save eliminated.
 283              	.LVL15:
 361:Generated_Source\PSoC5/UART_LOG.c ****         UART_LOG_RXSTATUS_MASK_REG  = intSrc;
 284              		.loc 1 361 0
 285 0000 014B     		ldr	r3, .L21
 286 0002 1870     		strb	r0, [r3]
 287 0004 7047     		bx	lr
 288              	.L22:
 289 0006 00BF     		.align	2
 290              	.L21:
 291 0008 81640040 		.word	1073767553
 292              		.cfi_endproc
 293              	.LFE6:
 294              		.size	UART_LOG_SetRxInterruptMode, .-UART_LOG_SetRxInterruptMode
 295              		.section	.text.UART_LOG_ReadRxData,"ax",%progbits
 296              		.align	2
 297              		.global	UART_LOG_ReadRxData
 298              		.thumb
 299              		.thumb_func
 300              		.type	UART_LOG_ReadRxData, %function
 301              	UART_LOG_ReadRxData:
 302              	.LFB7:
 362:Generated_Source\PSoC5/UART_LOG.c ****     }
 363:Generated_Source\PSoC5/UART_LOG.c **** 
 364:Generated_Source\PSoC5/UART_LOG.c **** 
 365:Generated_Source\PSoC5/UART_LOG.c ****     /*******************************************************************************
 366:Generated_Source\PSoC5/UART_LOG.c ****     * Function Name: UART_LOG_ReadRxData
 367:Generated_Source\PSoC5/UART_LOG.c ****     ********************************************************************************
 368:Generated_Source\PSoC5/UART_LOG.c ****     *
 369:Generated_Source\PSoC5/UART_LOG.c ****     * Summary:
 370:Generated_Source\PSoC5/UART_LOG.c ****     *  Returns the next byte of received data. This function returns data without
 371:Generated_Source\PSoC5/UART_LOG.c ****     *  checking the status. You must check the status separately.
 372:Generated_Source\PSoC5/UART_LOG.c ****     *
 373:Generated_Source\PSoC5/UART_LOG.c ****     * Parameters:
 374:Generated_Source\PSoC5/UART_LOG.c ****     *  None.
 375:Generated_Source\PSoC5/UART_LOG.c ****     *
 376:Generated_Source\PSoC5/UART_LOG.c ****     * Return:
 377:Generated_Source\PSoC5/UART_LOG.c ****     *  Received data from RX register
ARM GAS  C:\Users\rbhar\AppData\Local\Temp\ccaqTdDy.s 			page 13


 378:Generated_Source\PSoC5/UART_LOG.c ****     *
 379:Generated_Source\PSoC5/UART_LOG.c ****     * Global Variables:
 380:Generated_Source\PSoC5/UART_LOG.c ****     *  UART_LOG_rxBuffer - RAM buffer pointer for save received data.
 381:Generated_Source\PSoC5/UART_LOG.c ****     *  UART_LOG_rxBufferWrite - cyclic index for write to rxBuffer,
 382:Generated_Source\PSoC5/UART_LOG.c ****     *     checked to identify new data.
 383:Generated_Source\PSoC5/UART_LOG.c ****     *  UART_LOG_rxBufferRead - cyclic index for read from rxBuffer,
 384:Generated_Source\PSoC5/UART_LOG.c ****     *     incremented after each byte has been read from buffer.
 385:Generated_Source\PSoC5/UART_LOG.c ****     *  UART_LOG_rxBufferLoopDetect - cleared if loop condition was detected
 386:Generated_Source\PSoC5/UART_LOG.c ****     *     in RX ISR.
 387:Generated_Source\PSoC5/UART_LOG.c ****     *
 388:Generated_Source\PSoC5/UART_LOG.c ****     * Reentrant:
 389:Generated_Source\PSoC5/UART_LOG.c ****     *  No.
 390:Generated_Source\PSoC5/UART_LOG.c ****     *
 391:Generated_Source\PSoC5/UART_LOG.c ****     *******************************************************************************/
 392:Generated_Source\PSoC5/UART_LOG.c ****     uint8 UART_LOG_ReadRxData(void) 
 393:Generated_Source\PSoC5/UART_LOG.c ****     {
 303              		.loc 1 393 0
 304              		.cfi_startproc
 305              		@ args = 0, pretend = 0, frame = 0
 306              		@ frame_needed = 0, uses_anonymous_args = 0
 307              		@ link register save eliminated.
 394:Generated_Source\PSoC5/UART_LOG.c ****         uint8 rxData;
 395:Generated_Source\PSoC5/UART_LOG.c **** 
 396:Generated_Source\PSoC5/UART_LOG.c ****     #if (UART_LOG_RX_INTERRUPT_ENABLED)
 397:Generated_Source\PSoC5/UART_LOG.c **** 
 398:Generated_Source\PSoC5/UART_LOG.c ****         uint8 locRxBufferRead;
 399:Generated_Source\PSoC5/UART_LOG.c ****         uint8 locRxBufferWrite;
 400:Generated_Source\PSoC5/UART_LOG.c **** 
 401:Generated_Source\PSoC5/UART_LOG.c ****         /* Protect variables that could change on interrupt */
 402:Generated_Source\PSoC5/UART_LOG.c ****         UART_LOG_DisableRxInt();
 403:Generated_Source\PSoC5/UART_LOG.c **** 
 404:Generated_Source\PSoC5/UART_LOG.c ****         locRxBufferRead  = UART_LOG_rxBufferRead;
 405:Generated_Source\PSoC5/UART_LOG.c ****         locRxBufferWrite = UART_LOG_rxBufferWrite;
 406:Generated_Source\PSoC5/UART_LOG.c **** 
 407:Generated_Source\PSoC5/UART_LOG.c ****         if( (UART_LOG_rxBufferLoopDetect != 0u) || (locRxBufferRead != locRxBufferWrite) )
 408:Generated_Source\PSoC5/UART_LOG.c ****         {
 409:Generated_Source\PSoC5/UART_LOG.c ****             rxData = UART_LOG_rxBuffer[locRxBufferRead];
 410:Generated_Source\PSoC5/UART_LOG.c ****             locRxBufferRead++;
 411:Generated_Source\PSoC5/UART_LOG.c **** 
 412:Generated_Source\PSoC5/UART_LOG.c ****             if(locRxBufferRead >= UART_LOG_RX_BUFFER_SIZE)
 413:Generated_Source\PSoC5/UART_LOG.c ****             {
 414:Generated_Source\PSoC5/UART_LOG.c ****                 locRxBufferRead = 0u;
 415:Generated_Source\PSoC5/UART_LOG.c ****             }
 416:Generated_Source\PSoC5/UART_LOG.c ****             /* Update the real pointer */
 417:Generated_Source\PSoC5/UART_LOG.c ****             UART_LOG_rxBufferRead = locRxBufferRead;
 418:Generated_Source\PSoC5/UART_LOG.c **** 
 419:Generated_Source\PSoC5/UART_LOG.c ****             if(UART_LOG_rxBufferLoopDetect != 0u)
 420:Generated_Source\PSoC5/UART_LOG.c ****             {
 421:Generated_Source\PSoC5/UART_LOG.c ****                 UART_LOG_rxBufferLoopDetect = 0u;
 422:Generated_Source\PSoC5/UART_LOG.c ****                 #if ((UART_LOG_RX_INTERRUPT_ENABLED) && (UART_LOG_FLOW_CONTROL != 0u))
 423:Generated_Source\PSoC5/UART_LOG.c ****                     /* When Hardware Flow Control selected - return RX mask */
 424:Generated_Source\PSoC5/UART_LOG.c ****                     #if( UART_LOG_HD_ENABLED )
 425:Generated_Source\PSoC5/UART_LOG.c ****                         if((UART_LOG_CONTROL_REG & UART_LOG_CTRL_HD_SEND) == 0u)
 426:Generated_Source\PSoC5/UART_LOG.c ****                         {   /* In Half duplex mode return RX mask only in RX
 427:Generated_Source\PSoC5/UART_LOG.c ****                             *  configuration set, otherwise
 428:Generated_Source\PSoC5/UART_LOG.c ****                             *  mask will be returned in LoadRxConfig() API.
 429:Generated_Source\PSoC5/UART_LOG.c ****                             */
ARM GAS  C:\Users\rbhar\AppData\Local\Temp\ccaqTdDy.s 			page 14


 430:Generated_Source\PSoC5/UART_LOG.c ****                             UART_LOG_RXSTATUS_MASK_REG  |= UART_LOG_RX_STS_FIFO_NOTEMPTY;
 431:Generated_Source\PSoC5/UART_LOG.c ****                         }
 432:Generated_Source\PSoC5/UART_LOG.c ****                     #else
 433:Generated_Source\PSoC5/UART_LOG.c ****                         UART_LOG_RXSTATUS_MASK_REG  |= UART_LOG_RX_STS_FIFO_NOTEMPTY;
 434:Generated_Source\PSoC5/UART_LOG.c ****                     #endif /* end UART_LOG_HD_ENABLED */
 435:Generated_Source\PSoC5/UART_LOG.c ****                 #endif /* ((UART_LOG_RX_INTERRUPT_ENABLED) && (UART_LOG_FLOW_CONTROL != 0u)) */
 436:Generated_Source\PSoC5/UART_LOG.c ****             }
 437:Generated_Source\PSoC5/UART_LOG.c ****         }
 438:Generated_Source\PSoC5/UART_LOG.c ****         else
 439:Generated_Source\PSoC5/UART_LOG.c ****         {   /* Needs to check status for RX_STS_FIFO_NOTEMPTY bit */
 440:Generated_Source\PSoC5/UART_LOG.c ****             rxData = UART_LOG_RXDATA_REG;
 441:Generated_Source\PSoC5/UART_LOG.c ****         }
 442:Generated_Source\PSoC5/UART_LOG.c **** 
 443:Generated_Source\PSoC5/UART_LOG.c ****         UART_LOG_EnableRxInt();
 444:Generated_Source\PSoC5/UART_LOG.c **** 
 445:Generated_Source\PSoC5/UART_LOG.c ****     #else
 446:Generated_Source\PSoC5/UART_LOG.c **** 
 447:Generated_Source\PSoC5/UART_LOG.c ****         /* Needs to check status for RX_STS_FIFO_NOTEMPTY bit */
 448:Generated_Source\PSoC5/UART_LOG.c ****         rxData = UART_LOG_RXDATA_REG;
 308              		.loc 1 448 0
 309 0000 014B     		ldr	r3, .L24
 310 0002 1878     		ldrb	r0, [r3]	@ zero_extendqisi2
 311              	.LVL16:
 449:Generated_Source\PSoC5/UART_LOG.c **** 
 450:Generated_Source\PSoC5/UART_LOG.c ****     #endif /* (UART_LOG_RX_INTERRUPT_ENABLED) */
 451:Generated_Source\PSoC5/UART_LOG.c **** 
 452:Generated_Source\PSoC5/UART_LOG.c ****         return(rxData);
 453:Generated_Source\PSoC5/UART_LOG.c ****     }
 312              		.loc 1 453 0
 313 0004 7047     		bx	lr
 314              	.L25:
 315 0006 00BF     		.align	2
 316              	.L24:
 317 0008 42640040 		.word	1073767490
 318              		.cfi_endproc
 319              	.LFE7:
 320              		.size	UART_LOG_ReadRxData, .-UART_LOG_ReadRxData
 321              		.section	.text.UART_LOG_ReadRxStatus,"ax",%progbits
 322              		.align	2
 323              		.global	UART_LOG_ReadRxStatus
 324              		.thumb
 325              		.thumb_func
 326              		.type	UART_LOG_ReadRxStatus, %function
 327              	UART_LOG_ReadRxStatus:
 328              	.LFB8:
 454:Generated_Source\PSoC5/UART_LOG.c **** 
 455:Generated_Source\PSoC5/UART_LOG.c **** 
 456:Generated_Source\PSoC5/UART_LOG.c ****     /*******************************************************************************
 457:Generated_Source\PSoC5/UART_LOG.c ****     * Function Name: UART_LOG_ReadRxStatus
 458:Generated_Source\PSoC5/UART_LOG.c ****     ********************************************************************************
 459:Generated_Source\PSoC5/UART_LOG.c ****     *
 460:Generated_Source\PSoC5/UART_LOG.c ****     * Summary:
 461:Generated_Source\PSoC5/UART_LOG.c ****     *  Returns the current state of the receiver status register and the software
 462:Generated_Source\PSoC5/UART_LOG.c ****     *  buffer overflow status.
 463:Generated_Source\PSoC5/UART_LOG.c ****     *
 464:Generated_Source\PSoC5/UART_LOG.c ****     * Parameters:
 465:Generated_Source\PSoC5/UART_LOG.c ****     *  None.
ARM GAS  C:\Users\rbhar\AppData\Local\Temp\ccaqTdDy.s 			page 15


 466:Generated_Source\PSoC5/UART_LOG.c ****     *
 467:Generated_Source\PSoC5/UART_LOG.c ****     * Return:
 468:Generated_Source\PSoC5/UART_LOG.c ****     *  Current state of the status register.
 469:Generated_Source\PSoC5/UART_LOG.c ****     *
 470:Generated_Source\PSoC5/UART_LOG.c ****     * Side Effect:
 471:Generated_Source\PSoC5/UART_LOG.c ****     *  All status register bits are clear-on-read except
 472:Generated_Source\PSoC5/UART_LOG.c ****     *  UART_LOG_RX_STS_FIFO_NOTEMPTY.
 473:Generated_Source\PSoC5/UART_LOG.c ****     *  UART_LOG_RX_STS_FIFO_NOTEMPTY clears immediately after RX data
 474:Generated_Source\PSoC5/UART_LOG.c ****     *  register read.
 475:Generated_Source\PSoC5/UART_LOG.c ****     *
 476:Generated_Source\PSoC5/UART_LOG.c ****     * Global Variables:
 477:Generated_Source\PSoC5/UART_LOG.c ****     *  UART_LOG_rxBufferOverflow - used to indicate overload condition.
 478:Generated_Source\PSoC5/UART_LOG.c ****     *   It set to one in RX interrupt when there isn't free space in
 479:Generated_Source\PSoC5/UART_LOG.c ****     *   UART_LOG_rxBufferRead to write new data. This condition returned
 480:Generated_Source\PSoC5/UART_LOG.c ****     *   and cleared to zero by this API as an
 481:Generated_Source\PSoC5/UART_LOG.c ****     *   UART_LOG_RX_STS_SOFT_BUFF_OVER bit along with RX Status register
 482:Generated_Source\PSoC5/UART_LOG.c ****     *   bits.
 483:Generated_Source\PSoC5/UART_LOG.c ****     *
 484:Generated_Source\PSoC5/UART_LOG.c ****     *******************************************************************************/
 485:Generated_Source\PSoC5/UART_LOG.c ****     uint8 UART_LOG_ReadRxStatus(void) 
 486:Generated_Source\PSoC5/UART_LOG.c ****     {
 329              		.loc 1 486 0
 330              		.cfi_startproc
 331              		@ args = 0, pretend = 0, frame = 0
 332              		@ frame_needed = 0, uses_anonymous_args = 0
 333              		@ link register save eliminated.
 487:Generated_Source\PSoC5/UART_LOG.c ****         uint8 status;
 488:Generated_Source\PSoC5/UART_LOG.c **** 
 489:Generated_Source\PSoC5/UART_LOG.c ****         status = UART_LOG_RXSTATUS_REG & UART_LOG_RX_HW_MASK;
 334              		.loc 1 489 0
 335 0000 024B     		ldr	r3, .L27
 336 0002 1878     		ldrb	r0, [r3]	@ zero_extendqisi2
 337              	.LVL17:
 490:Generated_Source\PSoC5/UART_LOG.c **** 
 491:Generated_Source\PSoC5/UART_LOG.c ****     #if (UART_LOG_RX_INTERRUPT_ENABLED)
 492:Generated_Source\PSoC5/UART_LOG.c ****         if(UART_LOG_rxBufferOverflow != 0u)
 493:Generated_Source\PSoC5/UART_LOG.c ****         {
 494:Generated_Source\PSoC5/UART_LOG.c ****             status |= UART_LOG_RX_STS_SOFT_BUFF_OVER;
 495:Generated_Source\PSoC5/UART_LOG.c ****             UART_LOG_rxBufferOverflow = 0u;
 496:Generated_Source\PSoC5/UART_LOG.c ****         }
 497:Generated_Source\PSoC5/UART_LOG.c ****     #endif /* (UART_LOG_RX_INTERRUPT_ENABLED) */
 498:Generated_Source\PSoC5/UART_LOG.c **** 
 499:Generated_Source\PSoC5/UART_LOG.c ****         return(status);
 500:Generated_Source\PSoC5/UART_LOG.c ****     }
 338              		.loc 1 500 0
 339 0004 00F07F00 		and	r0, r0, #127
 340              	.LVL18:
 341 0008 7047     		bx	lr
 342              	.L28:
 343 000a 00BF     		.align	2
 344              	.L27:
 345 000c 61640040 		.word	1073767521
 346              		.cfi_endproc
 347              	.LFE8:
 348              		.size	UART_LOG_ReadRxStatus, .-UART_LOG_ReadRxStatus
 349              		.section	.text.UART_LOG_GetChar,"ax",%progbits
 350              		.align	2
ARM GAS  C:\Users\rbhar\AppData\Local\Temp\ccaqTdDy.s 			page 16


 351              		.global	UART_LOG_GetChar
 352              		.thumb
 353              		.thumb_func
 354              		.type	UART_LOG_GetChar, %function
 355              	UART_LOG_GetChar:
 356              	.LFB9:
 501:Generated_Source\PSoC5/UART_LOG.c **** 
 502:Generated_Source\PSoC5/UART_LOG.c **** 
 503:Generated_Source\PSoC5/UART_LOG.c ****     /*******************************************************************************
 504:Generated_Source\PSoC5/UART_LOG.c ****     * Function Name: UART_LOG_GetChar
 505:Generated_Source\PSoC5/UART_LOG.c ****     ********************************************************************************
 506:Generated_Source\PSoC5/UART_LOG.c ****     *
 507:Generated_Source\PSoC5/UART_LOG.c ****     * Summary:
 508:Generated_Source\PSoC5/UART_LOG.c ****     *  Returns the last received byte of data. UART_LOG_GetChar() is
 509:Generated_Source\PSoC5/UART_LOG.c ****     *  designed for ASCII characters and returns a uint8 where 1 to 255 are values
 510:Generated_Source\PSoC5/UART_LOG.c ****     *  for valid characters and 0 indicates an error occurred or no data is present.
 511:Generated_Source\PSoC5/UART_LOG.c ****     *
 512:Generated_Source\PSoC5/UART_LOG.c ****     * Parameters:
 513:Generated_Source\PSoC5/UART_LOG.c ****     *  None.
 514:Generated_Source\PSoC5/UART_LOG.c ****     *
 515:Generated_Source\PSoC5/UART_LOG.c ****     * Return:
 516:Generated_Source\PSoC5/UART_LOG.c ****     *  Character read from UART RX buffer. ASCII characters from 1 to 255 are valid.
 517:Generated_Source\PSoC5/UART_LOG.c ****     *  A returned zero signifies an error condition or no data available.
 518:Generated_Source\PSoC5/UART_LOG.c ****     *
 519:Generated_Source\PSoC5/UART_LOG.c ****     * Global Variables:
 520:Generated_Source\PSoC5/UART_LOG.c ****     *  UART_LOG_rxBuffer - RAM buffer pointer for save received data.
 521:Generated_Source\PSoC5/UART_LOG.c ****     *  UART_LOG_rxBufferWrite - cyclic index for write to rxBuffer,
 522:Generated_Source\PSoC5/UART_LOG.c ****     *     checked to identify new data.
 523:Generated_Source\PSoC5/UART_LOG.c ****     *  UART_LOG_rxBufferRead - cyclic index for read from rxBuffer,
 524:Generated_Source\PSoC5/UART_LOG.c ****     *     incremented after each byte has been read from buffer.
 525:Generated_Source\PSoC5/UART_LOG.c ****     *  UART_LOG_rxBufferLoopDetect - cleared if loop condition was detected
 526:Generated_Source\PSoC5/UART_LOG.c ****     *     in RX ISR.
 527:Generated_Source\PSoC5/UART_LOG.c ****     *
 528:Generated_Source\PSoC5/UART_LOG.c ****     * Reentrant:
 529:Generated_Source\PSoC5/UART_LOG.c ****     *  No.
 530:Generated_Source\PSoC5/UART_LOG.c ****     *
 531:Generated_Source\PSoC5/UART_LOG.c ****     *******************************************************************************/
 532:Generated_Source\PSoC5/UART_LOG.c ****     uint8 UART_LOG_GetChar(void) 
 533:Generated_Source\PSoC5/UART_LOG.c ****     {
 357              		.loc 1 533 0
 358              		.cfi_startproc
 359              		@ args = 0, pretend = 0, frame = 0
 360              		@ frame_needed = 0, uses_anonymous_args = 0
 361              		@ link register save eliminated.
 362              	.LVL19:
 534:Generated_Source\PSoC5/UART_LOG.c ****         uint8 rxData = 0u;
 535:Generated_Source\PSoC5/UART_LOG.c ****         uint8 rxStatus;
 536:Generated_Source\PSoC5/UART_LOG.c **** 
 537:Generated_Source\PSoC5/UART_LOG.c ****     #if (UART_LOG_RX_INTERRUPT_ENABLED)
 538:Generated_Source\PSoC5/UART_LOG.c ****         uint8 locRxBufferRead;
 539:Generated_Source\PSoC5/UART_LOG.c ****         uint8 locRxBufferWrite;
 540:Generated_Source\PSoC5/UART_LOG.c **** 
 541:Generated_Source\PSoC5/UART_LOG.c ****         /* Protect variables that could change on interrupt */
 542:Generated_Source\PSoC5/UART_LOG.c ****         UART_LOG_DisableRxInt();
 543:Generated_Source\PSoC5/UART_LOG.c **** 
 544:Generated_Source\PSoC5/UART_LOG.c ****         locRxBufferRead  = UART_LOG_rxBufferRead;
 545:Generated_Source\PSoC5/UART_LOG.c ****         locRxBufferWrite = UART_LOG_rxBufferWrite;
ARM GAS  C:\Users\rbhar\AppData\Local\Temp\ccaqTdDy.s 			page 17


 546:Generated_Source\PSoC5/UART_LOG.c **** 
 547:Generated_Source\PSoC5/UART_LOG.c ****         if( (UART_LOG_rxBufferLoopDetect != 0u) || (locRxBufferRead != locRxBufferWrite) )
 548:Generated_Source\PSoC5/UART_LOG.c ****         {
 549:Generated_Source\PSoC5/UART_LOG.c ****             rxData = UART_LOG_rxBuffer[locRxBufferRead];
 550:Generated_Source\PSoC5/UART_LOG.c ****             locRxBufferRead++;
 551:Generated_Source\PSoC5/UART_LOG.c ****             if(locRxBufferRead >= UART_LOG_RX_BUFFER_SIZE)
 552:Generated_Source\PSoC5/UART_LOG.c ****             {
 553:Generated_Source\PSoC5/UART_LOG.c ****                 locRxBufferRead = 0u;
 554:Generated_Source\PSoC5/UART_LOG.c ****             }
 555:Generated_Source\PSoC5/UART_LOG.c ****             /* Update the real pointer */
 556:Generated_Source\PSoC5/UART_LOG.c ****             UART_LOG_rxBufferRead = locRxBufferRead;
 557:Generated_Source\PSoC5/UART_LOG.c **** 
 558:Generated_Source\PSoC5/UART_LOG.c ****             if(UART_LOG_rxBufferLoopDetect != 0u)
 559:Generated_Source\PSoC5/UART_LOG.c ****             {
 560:Generated_Source\PSoC5/UART_LOG.c ****                 UART_LOG_rxBufferLoopDetect = 0u;
 561:Generated_Source\PSoC5/UART_LOG.c ****                 #if( (UART_LOG_RX_INTERRUPT_ENABLED) && (UART_LOG_FLOW_CONTROL != 0u) )
 562:Generated_Source\PSoC5/UART_LOG.c ****                     /* When Hardware Flow Control selected - return RX mask */
 563:Generated_Source\PSoC5/UART_LOG.c ****                     #if( UART_LOG_HD_ENABLED )
 564:Generated_Source\PSoC5/UART_LOG.c ****                         if((UART_LOG_CONTROL_REG & UART_LOG_CTRL_HD_SEND) == 0u)
 565:Generated_Source\PSoC5/UART_LOG.c ****                         {   /* In Half duplex mode return RX mask only if
 566:Generated_Source\PSoC5/UART_LOG.c ****                             *  RX configuration set, otherwise
 567:Generated_Source\PSoC5/UART_LOG.c ****                             *  mask will be returned in LoadRxConfig() API.
 568:Generated_Source\PSoC5/UART_LOG.c ****                             */
 569:Generated_Source\PSoC5/UART_LOG.c ****                             UART_LOG_RXSTATUS_MASK_REG |= UART_LOG_RX_STS_FIFO_NOTEMPTY;
 570:Generated_Source\PSoC5/UART_LOG.c ****                         }
 571:Generated_Source\PSoC5/UART_LOG.c ****                     #else
 572:Generated_Source\PSoC5/UART_LOG.c ****                         UART_LOG_RXSTATUS_MASK_REG |= UART_LOG_RX_STS_FIFO_NOTEMPTY;
 573:Generated_Source\PSoC5/UART_LOG.c ****                     #endif /* end UART_LOG_HD_ENABLED */
 574:Generated_Source\PSoC5/UART_LOG.c ****                 #endif /* UART_LOG_RX_INTERRUPT_ENABLED and Hardware flow control*/
 575:Generated_Source\PSoC5/UART_LOG.c ****             }
 576:Generated_Source\PSoC5/UART_LOG.c **** 
 577:Generated_Source\PSoC5/UART_LOG.c ****         }
 578:Generated_Source\PSoC5/UART_LOG.c ****         else
 579:Generated_Source\PSoC5/UART_LOG.c ****         {   rxStatus = UART_LOG_RXSTATUS_REG;
 580:Generated_Source\PSoC5/UART_LOG.c ****             if((rxStatus & UART_LOG_RX_STS_FIFO_NOTEMPTY) != 0u)
 581:Generated_Source\PSoC5/UART_LOG.c ****             {   /* Read received data from FIFO */
 582:Generated_Source\PSoC5/UART_LOG.c ****                 rxData = UART_LOG_RXDATA_REG;
 583:Generated_Source\PSoC5/UART_LOG.c ****                 /*Check status on error*/
 584:Generated_Source\PSoC5/UART_LOG.c ****                 if((rxStatus & (UART_LOG_RX_STS_BREAK | UART_LOG_RX_STS_PAR_ERROR |
 585:Generated_Source\PSoC5/UART_LOG.c ****                                 UART_LOG_RX_STS_STOP_ERROR | UART_LOG_RX_STS_OVERRUN)) != 0u)
 586:Generated_Source\PSoC5/UART_LOG.c ****                 {
 587:Generated_Source\PSoC5/UART_LOG.c ****                     rxData = 0u;
 588:Generated_Source\PSoC5/UART_LOG.c ****                 }
 589:Generated_Source\PSoC5/UART_LOG.c ****             }
 590:Generated_Source\PSoC5/UART_LOG.c ****         }
 591:Generated_Source\PSoC5/UART_LOG.c **** 
 592:Generated_Source\PSoC5/UART_LOG.c ****         UART_LOG_EnableRxInt();
 593:Generated_Source\PSoC5/UART_LOG.c **** 
 594:Generated_Source\PSoC5/UART_LOG.c ****     #else
 595:Generated_Source\PSoC5/UART_LOG.c **** 
 596:Generated_Source\PSoC5/UART_LOG.c ****         rxStatus =UART_LOG_RXSTATUS_REG;
 363              		.loc 1 596 0
 364 0000 084B     		ldr	r3, .L33
 365 0002 1B78     		ldrb	r3, [r3]	@ zero_extendqisi2
 366 0004 DBB2     		uxtb	r3, r3
 367              	.LVL20:
 597:Generated_Source\PSoC5/UART_LOG.c ****         if((rxStatus & UART_LOG_RX_STS_FIFO_NOTEMPTY) != 0u)
ARM GAS  C:\Users\rbhar\AppData\Local\Temp\ccaqTdDy.s 			page 18


 368              		.loc 1 597 0
 369 0006 13F0200F 		tst	r3, #32
 370 000a 06D0     		beq	.L31
 598:Generated_Source\PSoC5/UART_LOG.c ****         {
 599:Generated_Source\PSoC5/UART_LOG.c ****             /* Read received data from FIFO */
 600:Generated_Source\PSoC5/UART_LOG.c ****             rxData = UART_LOG_RXDATA_REG;
 371              		.loc 1 600 0
 372 000c 064A     		ldr	r2, .L33+4
 373 000e 1078     		ldrb	r0, [r2]	@ zero_extendqisi2
 374 0010 C0B2     		uxtb	r0, r0
 375              	.LVL21:
 601:Generated_Source\PSoC5/UART_LOG.c **** 
 602:Generated_Source\PSoC5/UART_LOG.c ****             /*Check status on error*/
 603:Generated_Source\PSoC5/UART_LOG.c ****             if((rxStatus & (UART_LOG_RX_STS_BREAK | UART_LOG_RX_STS_PAR_ERROR |
 376              		.loc 1 603 0
 377 0012 13F01E0F 		tst	r3, #30
 378 0016 02D1     		bne	.L32
 379 0018 7047     		bx	lr
 380              	.LVL22:
 381              	.L31:
 534:Generated_Source\PSoC5/UART_LOG.c ****         uint8 rxStatus;
 382              		.loc 1 534 0
 383 001a 0020     		movs	r0, #0
 384 001c 7047     		bx	lr
 385              	.LVL23:
 386              	.L32:
 604:Generated_Source\PSoC5/UART_LOG.c ****                             UART_LOG_RX_STS_STOP_ERROR | UART_LOG_RX_STS_OVERRUN)) != 0u)
 605:Generated_Source\PSoC5/UART_LOG.c ****             {
 606:Generated_Source\PSoC5/UART_LOG.c ****                 rxData = 0u;
 387              		.loc 1 606 0
 388 001e 0020     		movs	r0, #0
 389              	.LVL24:
 607:Generated_Source\PSoC5/UART_LOG.c ****             }
 608:Generated_Source\PSoC5/UART_LOG.c ****         }
 609:Generated_Source\PSoC5/UART_LOG.c ****     #endif /* (UART_LOG_RX_INTERRUPT_ENABLED) */
 610:Generated_Source\PSoC5/UART_LOG.c **** 
 611:Generated_Source\PSoC5/UART_LOG.c ****         return(rxData);
 612:Generated_Source\PSoC5/UART_LOG.c ****     }
 390              		.loc 1 612 0
 391 0020 7047     		bx	lr
 392              	.L34:
 393 0022 00BF     		.align	2
 394              	.L33:
 395 0024 61640040 		.word	1073767521
 396 0028 42640040 		.word	1073767490
 397              		.cfi_endproc
 398              	.LFE9:
 399              		.size	UART_LOG_GetChar, .-UART_LOG_GetChar
 400              		.section	.text.UART_LOG_GetByte,"ax",%progbits
 401              		.align	2
 402              		.global	UART_LOG_GetByte
 403              		.thumb
 404              		.thumb_func
 405              		.type	UART_LOG_GetByte, %function
 406              	UART_LOG_GetByte:
 407              	.LFB10:
 613:Generated_Source\PSoC5/UART_LOG.c **** 
ARM GAS  C:\Users\rbhar\AppData\Local\Temp\ccaqTdDy.s 			page 19


 614:Generated_Source\PSoC5/UART_LOG.c **** 
 615:Generated_Source\PSoC5/UART_LOG.c ****     /*******************************************************************************
 616:Generated_Source\PSoC5/UART_LOG.c ****     * Function Name: UART_LOG_GetByte
 617:Generated_Source\PSoC5/UART_LOG.c ****     ********************************************************************************
 618:Generated_Source\PSoC5/UART_LOG.c ****     *
 619:Generated_Source\PSoC5/UART_LOG.c ****     * Summary:
 620:Generated_Source\PSoC5/UART_LOG.c ****     *  Reads UART RX buffer immediately, returns received character and error
 621:Generated_Source\PSoC5/UART_LOG.c ****     *  condition.
 622:Generated_Source\PSoC5/UART_LOG.c ****     *
 623:Generated_Source\PSoC5/UART_LOG.c ****     * Parameters:
 624:Generated_Source\PSoC5/UART_LOG.c ****     *  None.
 625:Generated_Source\PSoC5/UART_LOG.c ****     *
 626:Generated_Source\PSoC5/UART_LOG.c ****     * Return:
 627:Generated_Source\PSoC5/UART_LOG.c ****     *  MSB contains status and LSB contains UART RX data. If the MSB is nonzero,
 628:Generated_Source\PSoC5/UART_LOG.c ****     *  an error has occurred.
 629:Generated_Source\PSoC5/UART_LOG.c ****     *
 630:Generated_Source\PSoC5/UART_LOG.c ****     * Reentrant:
 631:Generated_Source\PSoC5/UART_LOG.c ****     *  No.
 632:Generated_Source\PSoC5/UART_LOG.c ****     *
 633:Generated_Source\PSoC5/UART_LOG.c ****     *******************************************************************************/
 634:Generated_Source\PSoC5/UART_LOG.c ****     uint16 UART_LOG_GetByte(void) 
 635:Generated_Source\PSoC5/UART_LOG.c ****     {
 408              		.loc 1 635 0
 409              		.cfi_startproc
 410              		@ args = 0, pretend = 0, frame = 0
 411              		@ frame_needed = 0, uses_anonymous_args = 0
 412 0000 10B5     		push	{r4, lr}
 413              		.cfi_def_cfa_offset 8
 414              		.cfi_offset 4, -8
 415              		.cfi_offset 14, -4
 636:Generated_Source\PSoC5/UART_LOG.c ****         
 637:Generated_Source\PSoC5/UART_LOG.c ****     #if (UART_LOG_RX_INTERRUPT_ENABLED)
 638:Generated_Source\PSoC5/UART_LOG.c ****         uint16 locErrorStatus;
 639:Generated_Source\PSoC5/UART_LOG.c ****         /* Protect variables that could change on interrupt */
 640:Generated_Source\PSoC5/UART_LOG.c ****         UART_LOG_DisableRxInt();
 641:Generated_Source\PSoC5/UART_LOG.c ****         locErrorStatus = (uint16)UART_LOG_errorStatus;
 642:Generated_Source\PSoC5/UART_LOG.c ****         UART_LOG_errorStatus = 0u;
 643:Generated_Source\PSoC5/UART_LOG.c ****         UART_LOG_EnableRxInt();
 644:Generated_Source\PSoC5/UART_LOG.c ****         return ( (uint16)(locErrorStatus << 8u) | UART_LOG_ReadRxData() );
 645:Generated_Source\PSoC5/UART_LOG.c ****     #else
 646:Generated_Source\PSoC5/UART_LOG.c ****         return ( ((uint16)UART_LOG_ReadRxStatus() << 8u) | UART_LOG_ReadRxData() );
 416              		.loc 1 646 0
 417 0002 FFF7FEFF 		bl	UART_LOG_ReadRxStatus
 418              	.LVL25:
 419 0006 0402     		lsls	r4, r0, #8
 420 0008 FFF7FEFF 		bl	UART_LOG_ReadRxData
 421              	.LVL26:
 422 000c 2043     		orrs	r0, r0, r4
 647:Generated_Source\PSoC5/UART_LOG.c ****     #endif /* UART_LOG_RX_INTERRUPT_ENABLED */
 648:Generated_Source\PSoC5/UART_LOG.c ****         
 649:Generated_Source\PSoC5/UART_LOG.c ****     }
 423              		.loc 1 649 0
 424 000e 80B2     		uxth	r0, r0
 425 0010 10BD     		pop	{r4, pc}
 426              		.cfi_endproc
 427              	.LFE10:
 428              		.size	UART_LOG_GetByte, .-UART_LOG_GetByte
ARM GAS  C:\Users\rbhar\AppData\Local\Temp\ccaqTdDy.s 			page 20


 429 0012 00BF     		.section	.text.UART_LOG_GetRxBufferSize,"ax",%progbits
 430              		.align	2
 431              		.global	UART_LOG_GetRxBufferSize
 432              		.thumb
 433              		.thumb_func
 434              		.type	UART_LOG_GetRxBufferSize, %function
 435              	UART_LOG_GetRxBufferSize:
 436              	.LFB11:
 650:Generated_Source\PSoC5/UART_LOG.c **** 
 651:Generated_Source\PSoC5/UART_LOG.c **** 
 652:Generated_Source\PSoC5/UART_LOG.c ****     /*******************************************************************************
 653:Generated_Source\PSoC5/UART_LOG.c ****     * Function Name: UART_LOG_GetRxBufferSize
 654:Generated_Source\PSoC5/UART_LOG.c ****     ********************************************************************************
 655:Generated_Source\PSoC5/UART_LOG.c ****     *
 656:Generated_Source\PSoC5/UART_LOG.c ****     * Summary:
 657:Generated_Source\PSoC5/UART_LOG.c ****     *  Returns the number of received bytes available in the RX buffer.
 658:Generated_Source\PSoC5/UART_LOG.c ****     *  * RX software buffer is disabled (RX Buffer Size parameter is equal to 4): 
 659:Generated_Source\PSoC5/UART_LOG.c ****     *    returns 0 for empty RX FIFO or 1 for not empty RX FIFO.
 660:Generated_Source\PSoC5/UART_LOG.c ****     *  * RX software buffer is enabled: returns the number of bytes available in 
 661:Generated_Source\PSoC5/UART_LOG.c ****     *    the RX software buffer. Bytes available in the RX FIFO do not take to 
 662:Generated_Source\PSoC5/UART_LOG.c ****     *    account.
 663:Generated_Source\PSoC5/UART_LOG.c ****     *
 664:Generated_Source\PSoC5/UART_LOG.c ****     * Parameters:
 665:Generated_Source\PSoC5/UART_LOG.c ****     *  None.
 666:Generated_Source\PSoC5/UART_LOG.c ****     *
 667:Generated_Source\PSoC5/UART_LOG.c ****     * Return:
 668:Generated_Source\PSoC5/UART_LOG.c ****     *  uint8: Number of bytes in the RX buffer. 
 669:Generated_Source\PSoC5/UART_LOG.c ****     *    Return value type depends on RX Buffer Size parameter.
 670:Generated_Source\PSoC5/UART_LOG.c ****     *
 671:Generated_Source\PSoC5/UART_LOG.c ****     * Global Variables:
 672:Generated_Source\PSoC5/UART_LOG.c ****     *  UART_LOG_rxBufferWrite - used to calculate left bytes.
 673:Generated_Source\PSoC5/UART_LOG.c ****     *  UART_LOG_rxBufferRead - used to calculate left bytes.
 674:Generated_Source\PSoC5/UART_LOG.c ****     *  UART_LOG_rxBufferLoopDetect - checked to decide left bytes amount.
 675:Generated_Source\PSoC5/UART_LOG.c ****     *
 676:Generated_Source\PSoC5/UART_LOG.c ****     * Reentrant:
 677:Generated_Source\PSoC5/UART_LOG.c ****     *  No.
 678:Generated_Source\PSoC5/UART_LOG.c ****     *
 679:Generated_Source\PSoC5/UART_LOG.c ****     * Theory:
 680:Generated_Source\PSoC5/UART_LOG.c ****     *  Allows the user to find out how full the RX Buffer is.
 681:Generated_Source\PSoC5/UART_LOG.c ****     *
 682:Generated_Source\PSoC5/UART_LOG.c ****     *******************************************************************************/
 683:Generated_Source\PSoC5/UART_LOG.c ****     uint8 UART_LOG_GetRxBufferSize(void)
 684:Generated_Source\PSoC5/UART_LOG.c ****                                                             
 685:Generated_Source\PSoC5/UART_LOG.c ****     {
 437              		.loc 1 685 0
 438              		.cfi_startproc
 439              		@ args = 0, pretend = 0, frame = 0
 440              		@ frame_needed = 0, uses_anonymous_args = 0
 441              		@ link register save eliminated.
 686:Generated_Source\PSoC5/UART_LOG.c ****         uint8 size;
 687:Generated_Source\PSoC5/UART_LOG.c **** 
 688:Generated_Source\PSoC5/UART_LOG.c ****     #if (UART_LOG_RX_INTERRUPT_ENABLED)
 689:Generated_Source\PSoC5/UART_LOG.c **** 
 690:Generated_Source\PSoC5/UART_LOG.c ****         /* Protect variables that could change on interrupt */
 691:Generated_Source\PSoC5/UART_LOG.c ****         UART_LOG_DisableRxInt();
 692:Generated_Source\PSoC5/UART_LOG.c **** 
 693:Generated_Source\PSoC5/UART_LOG.c ****         if(UART_LOG_rxBufferRead == UART_LOG_rxBufferWrite)
ARM GAS  C:\Users\rbhar\AppData\Local\Temp\ccaqTdDy.s 			page 21


 694:Generated_Source\PSoC5/UART_LOG.c ****         {
 695:Generated_Source\PSoC5/UART_LOG.c ****             if(UART_LOG_rxBufferLoopDetect != 0u)
 696:Generated_Source\PSoC5/UART_LOG.c ****             {
 697:Generated_Source\PSoC5/UART_LOG.c ****                 size = UART_LOG_RX_BUFFER_SIZE;
 698:Generated_Source\PSoC5/UART_LOG.c ****             }
 699:Generated_Source\PSoC5/UART_LOG.c ****             else
 700:Generated_Source\PSoC5/UART_LOG.c ****             {
 701:Generated_Source\PSoC5/UART_LOG.c ****                 size = 0u;
 702:Generated_Source\PSoC5/UART_LOG.c ****             }
 703:Generated_Source\PSoC5/UART_LOG.c ****         }
 704:Generated_Source\PSoC5/UART_LOG.c ****         else if(UART_LOG_rxBufferRead < UART_LOG_rxBufferWrite)
 705:Generated_Source\PSoC5/UART_LOG.c ****         {
 706:Generated_Source\PSoC5/UART_LOG.c ****             size = (UART_LOG_rxBufferWrite - UART_LOG_rxBufferRead);
 707:Generated_Source\PSoC5/UART_LOG.c ****         }
 708:Generated_Source\PSoC5/UART_LOG.c ****         else
 709:Generated_Source\PSoC5/UART_LOG.c ****         {
 710:Generated_Source\PSoC5/UART_LOG.c ****             size = (UART_LOG_RX_BUFFER_SIZE - UART_LOG_rxBufferRead) + UART_LOG_rxBufferWrite;
 711:Generated_Source\PSoC5/UART_LOG.c ****         }
 712:Generated_Source\PSoC5/UART_LOG.c **** 
 713:Generated_Source\PSoC5/UART_LOG.c ****         UART_LOG_EnableRxInt();
 714:Generated_Source\PSoC5/UART_LOG.c **** 
 715:Generated_Source\PSoC5/UART_LOG.c ****     #else
 716:Generated_Source\PSoC5/UART_LOG.c **** 
 717:Generated_Source\PSoC5/UART_LOG.c ****         /* We can only know if there is data in the fifo. */
 718:Generated_Source\PSoC5/UART_LOG.c ****         size = ((UART_LOG_RXSTATUS_REG & UART_LOG_RX_STS_FIFO_NOTEMPTY) != 0u) ? 1u : 0u;
 442              		.loc 1 718 0
 443 0000 044B     		ldr	r3, .L40
 444 0002 1B78     		ldrb	r3, [r3]	@ zero_extendqisi2
 445 0004 13F0200F 		tst	r3, #32
 446 0008 01D0     		beq	.L39
 447 000a 0120     		movs	r0, #1
 448 000c 7047     		bx	lr
 449              	.L39:
 450 000e 0020     		movs	r0, #0
 451              	.LVL27:
 719:Generated_Source\PSoC5/UART_LOG.c **** 
 720:Generated_Source\PSoC5/UART_LOG.c ****     #endif /* (UART_LOG_RX_INTERRUPT_ENABLED) */
 721:Generated_Source\PSoC5/UART_LOG.c **** 
 722:Generated_Source\PSoC5/UART_LOG.c ****         return(size);
 723:Generated_Source\PSoC5/UART_LOG.c ****     }
 452              		.loc 1 723 0
 453 0010 7047     		bx	lr
 454              	.L41:
 455 0012 00BF     		.align	2
 456              	.L40:
 457 0014 61640040 		.word	1073767521
 458              		.cfi_endproc
 459              	.LFE11:
 460              		.size	UART_LOG_GetRxBufferSize, .-UART_LOG_GetRxBufferSize
 461              		.section	.text.UART_LOG_ClearRxBuffer,"ax",%progbits
 462              		.align	2
 463              		.global	UART_LOG_ClearRxBuffer
 464              		.thumb
 465              		.thumb_func
 466              		.type	UART_LOG_ClearRxBuffer, %function
 467              	UART_LOG_ClearRxBuffer:
 468              	.LFB12:
ARM GAS  C:\Users\rbhar\AppData\Local\Temp\ccaqTdDy.s 			page 22


 724:Generated_Source\PSoC5/UART_LOG.c **** 
 725:Generated_Source\PSoC5/UART_LOG.c **** 
 726:Generated_Source\PSoC5/UART_LOG.c ****     /*******************************************************************************
 727:Generated_Source\PSoC5/UART_LOG.c ****     * Function Name: UART_LOG_ClearRxBuffer
 728:Generated_Source\PSoC5/UART_LOG.c ****     ********************************************************************************
 729:Generated_Source\PSoC5/UART_LOG.c ****     *
 730:Generated_Source\PSoC5/UART_LOG.c ****     * Summary:
 731:Generated_Source\PSoC5/UART_LOG.c ****     *  Clears the receiver memory buffer and hardware RX FIFO of all received data.
 732:Generated_Source\PSoC5/UART_LOG.c ****     *
 733:Generated_Source\PSoC5/UART_LOG.c ****     * Parameters:
 734:Generated_Source\PSoC5/UART_LOG.c ****     *  None.
 735:Generated_Source\PSoC5/UART_LOG.c ****     *
 736:Generated_Source\PSoC5/UART_LOG.c ****     * Return:
 737:Generated_Source\PSoC5/UART_LOG.c ****     *  None.
 738:Generated_Source\PSoC5/UART_LOG.c ****     *
 739:Generated_Source\PSoC5/UART_LOG.c ****     * Global Variables:
 740:Generated_Source\PSoC5/UART_LOG.c ****     *  UART_LOG_rxBufferWrite - cleared to zero.
 741:Generated_Source\PSoC5/UART_LOG.c ****     *  UART_LOG_rxBufferRead - cleared to zero.
 742:Generated_Source\PSoC5/UART_LOG.c ****     *  UART_LOG_rxBufferLoopDetect - cleared to zero.
 743:Generated_Source\PSoC5/UART_LOG.c ****     *  UART_LOG_rxBufferOverflow - cleared to zero.
 744:Generated_Source\PSoC5/UART_LOG.c ****     *
 745:Generated_Source\PSoC5/UART_LOG.c ****     * Reentrant:
 746:Generated_Source\PSoC5/UART_LOG.c ****     *  No.
 747:Generated_Source\PSoC5/UART_LOG.c ****     *
 748:Generated_Source\PSoC5/UART_LOG.c ****     * Theory:
 749:Generated_Source\PSoC5/UART_LOG.c ****     *  Setting the pointers to zero makes the system believe there is no data to
 750:Generated_Source\PSoC5/UART_LOG.c ****     *  read and writing will resume at address 0 overwriting any data that may
 751:Generated_Source\PSoC5/UART_LOG.c ****     *  have remained in the RAM.
 752:Generated_Source\PSoC5/UART_LOG.c ****     *
 753:Generated_Source\PSoC5/UART_LOG.c ****     * Side Effects:
 754:Generated_Source\PSoC5/UART_LOG.c ****     *  Any received data not read from the RAM or FIFO buffer will be lost.
 755:Generated_Source\PSoC5/UART_LOG.c ****     *
 756:Generated_Source\PSoC5/UART_LOG.c ****     *******************************************************************************/
 757:Generated_Source\PSoC5/UART_LOG.c ****     void UART_LOG_ClearRxBuffer(void) 
 758:Generated_Source\PSoC5/UART_LOG.c ****     {
 469              		.loc 1 758 0
 470              		.cfi_startproc
 471              		@ args = 0, pretend = 0, frame = 0
 472              		@ frame_needed = 0, uses_anonymous_args = 0
 473 0000 08B5     		push	{r3, lr}
 474              		.cfi_def_cfa_offset 8
 475              		.cfi_offset 3, -8
 476              		.cfi_offset 14, -4
 759:Generated_Source\PSoC5/UART_LOG.c ****         uint8 enableInterrupts;
 760:Generated_Source\PSoC5/UART_LOG.c **** 
 761:Generated_Source\PSoC5/UART_LOG.c ****         /* Clear the HW FIFO */
 762:Generated_Source\PSoC5/UART_LOG.c ****         enableInterrupts = CyEnterCriticalSection();
 477              		.loc 1 762 0
 478 0002 FFF7FEFF 		bl	CyEnterCriticalSection
 479              	.LVL28:
 763:Generated_Source\PSoC5/UART_LOG.c ****         UART_LOG_RXDATA_AUX_CTL_REG |= (uint8)  UART_LOG_RX_FIFO_CLR;
 480              		.loc 1 763 0
 481 0006 064B     		ldr	r3, .L44
 482 0008 1A78     		ldrb	r2, [r3]	@ zero_extendqisi2
 483 000a 42F00102 		orr	r2, r2, #1
 484 000e 1A70     		strb	r2, [r3]
 764:Generated_Source\PSoC5/UART_LOG.c ****         UART_LOG_RXDATA_AUX_CTL_REG &= (uint8) ~UART_LOG_RX_FIFO_CLR;
ARM GAS  C:\Users\rbhar\AppData\Local\Temp\ccaqTdDy.s 			page 23


 485              		.loc 1 764 0
 486 0010 1A78     		ldrb	r2, [r3]	@ zero_extendqisi2
 487 0012 02F0FE02 		and	r2, r2, #254
 488 0016 1A70     		strb	r2, [r3]
 765:Generated_Source\PSoC5/UART_LOG.c ****         CyExitCriticalSection(enableInterrupts);
 489              		.loc 1 765 0
 490 0018 FFF7FEFF 		bl	CyExitCriticalSection
 491              	.LVL29:
 492 001c 08BD     		pop	{r3, pc}
 493              	.L45:
 494 001e 00BF     		.align	2
 495              	.L44:
 496 0020 92640040 		.word	1073767570
 497              		.cfi_endproc
 498              	.LFE12:
 499              		.size	UART_LOG_ClearRxBuffer, .-UART_LOG_ClearRxBuffer
 500              		.section	.text.UART_LOG_SetRxAddressMode,"ax",%progbits
 501              		.align	2
 502              		.global	UART_LOG_SetRxAddressMode
 503              		.thumb
 504              		.thumb_func
 505              		.type	UART_LOG_SetRxAddressMode, %function
 506              	UART_LOG_SetRxAddressMode:
 507              	.LFB13:
 766:Generated_Source\PSoC5/UART_LOG.c **** 
 767:Generated_Source\PSoC5/UART_LOG.c ****     #if (UART_LOG_RX_INTERRUPT_ENABLED)
 768:Generated_Source\PSoC5/UART_LOG.c **** 
 769:Generated_Source\PSoC5/UART_LOG.c ****         /* Protect variables that could change on interrupt. */
 770:Generated_Source\PSoC5/UART_LOG.c ****         UART_LOG_DisableRxInt();
 771:Generated_Source\PSoC5/UART_LOG.c **** 
 772:Generated_Source\PSoC5/UART_LOG.c ****         UART_LOG_rxBufferRead = 0u;
 773:Generated_Source\PSoC5/UART_LOG.c ****         UART_LOG_rxBufferWrite = 0u;
 774:Generated_Source\PSoC5/UART_LOG.c ****         UART_LOG_rxBufferLoopDetect = 0u;
 775:Generated_Source\PSoC5/UART_LOG.c ****         UART_LOG_rxBufferOverflow = 0u;
 776:Generated_Source\PSoC5/UART_LOG.c **** 
 777:Generated_Source\PSoC5/UART_LOG.c ****         UART_LOG_EnableRxInt();
 778:Generated_Source\PSoC5/UART_LOG.c **** 
 779:Generated_Source\PSoC5/UART_LOG.c ****     #endif /* (UART_LOG_RX_INTERRUPT_ENABLED) */
 780:Generated_Source\PSoC5/UART_LOG.c **** 
 781:Generated_Source\PSoC5/UART_LOG.c ****     }
 782:Generated_Source\PSoC5/UART_LOG.c **** 
 783:Generated_Source\PSoC5/UART_LOG.c **** 
 784:Generated_Source\PSoC5/UART_LOG.c ****     /*******************************************************************************
 785:Generated_Source\PSoC5/UART_LOG.c ****     * Function Name: UART_LOG_SetRxAddressMode
 786:Generated_Source\PSoC5/UART_LOG.c ****     ********************************************************************************
 787:Generated_Source\PSoC5/UART_LOG.c ****     *
 788:Generated_Source\PSoC5/UART_LOG.c ****     * Summary:
 789:Generated_Source\PSoC5/UART_LOG.c ****     *  Sets the software controlled Addressing mode used by the RX portion of the
 790:Generated_Source\PSoC5/UART_LOG.c ****     *  UART.
 791:Generated_Source\PSoC5/UART_LOG.c ****     *
 792:Generated_Source\PSoC5/UART_LOG.c ****     * Parameters:
 793:Generated_Source\PSoC5/UART_LOG.c ****     *  addressMode: Enumerated value indicating the mode of RX addressing
 794:Generated_Source\PSoC5/UART_LOG.c ****     *  UART_LOG__B_UART__AM_SW_BYTE_BYTE -  Software Byte-by-Byte address
 795:Generated_Source\PSoC5/UART_LOG.c ****     *                                               detection
 796:Generated_Source\PSoC5/UART_LOG.c ****     *  UART_LOG__B_UART__AM_SW_DETECT_TO_BUFFER - Software Detect to Buffer
 797:Generated_Source\PSoC5/UART_LOG.c ****     *                                               address detection
 798:Generated_Source\PSoC5/UART_LOG.c ****     *  UART_LOG__B_UART__AM_HW_BYTE_BY_BYTE - Hardware Byte-by-Byte address
ARM GAS  C:\Users\rbhar\AppData\Local\Temp\ccaqTdDy.s 			page 24


 799:Generated_Source\PSoC5/UART_LOG.c ****     *                                               detection
 800:Generated_Source\PSoC5/UART_LOG.c ****     *  UART_LOG__B_UART__AM_HW_DETECT_TO_BUFFER - Hardware Detect to Buffer
 801:Generated_Source\PSoC5/UART_LOG.c ****     *                                               address detection
 802:Generated_Source\PSoC5/UART_LOG.c ****     *  UART_LOG__B_UART__AM_NONE - No address detection
 803:Generated_Source\PSoC5/UART_LOG.c ****     *
 804:Generated_Source\PSoC5/UART_LOG.c ****     * Return:
 805:Generated_Source\PSoC5/UART_LOG.c ****     *  None.
 806:Generated_Source\PSoC5/UART_LOG.c ****     *
 807:Generated_Source\PSoC5/UART_LOG.c ****     * Global Variables:
 808:Generated_Source\PSoC5/UART_LOG.c ****     *  UART_LOG_rxAddressMode - the parameter stored in this variable for
 809:Generated_Source\PSoC5/UART_LOG.c ****     *   the farther usage in RX ISR.
 810:Generated_Source\PSoC5/UART_LOG.c ****     *  UART_LOG_rxAddressDetected - set to initial state (0).
 811:Generated_Source\PSoC5/UART_LOG.c ****     *
 812:Generated_Source\PSoC5/UART_LOG.c ****     *******************************************************************************/
 813:Generated_Source\PSoC5/UART_LOG.c ****     void UART_LOG_SetRxAddressMode(uint8 addressMode)
 814:Generated_Source\PSoC5/UART_LOG.c ****                                                         
 815:Generated_Source\PSoC5/UART_LOG.c ****     {
 508              		.loc 1 815 0
 509              		.cfi_startproc
 510              		@ args = 0, pretend = 0, frame = 0
 511              		@ frame_needed = 0, uses_anonymous_args = 0
 512              		@ link register save eliminated.
 513              	.LVL30:
 514 0000 7047     		bx	lr
 515              		.cfi_endproc
 516              	.LFE13:
 517              		.size	UART_LOG_SetRxAddressMode, .-UART_LOG_SetRxAddressMode
 518 0002 00BF     		.section	.text.UART_LOG_SetRxAddress1,"ax",%progbits
 519              		.align	2
 520              		.global	UART_LOG_SetRxAddress1
 521              		.thumb
 522              		.thumb_func
 523              		.type	UART_LOG_SetRxAddress1, %function
 524              	UART_LOG_SetRxAddress1:
 525              	.LFB14:
 816:Generated_Source\PSoC5/UART_LOG.c ****         #if(UART_LOG_RXHW_ADDRESS_ENABLED)
 817:Generated_Source\PSoC5/UART_LOG.c ****             #if(UART_LOG_CONTROL_REG_REMOVED)
 818:Generated_Source\PSoC5/UART_LOG.c ****                 if(0u != addressMode)
 819:Generated_Source\PSoC5/UART_LOG.c ****                 {
 820:Generated_Source\PSoC5/UART_LOG.c ****                     /* Suppress compiler warning */
 821:Generated_Source\PSoC5/UART_LOG.c ****                 }
 822:Generated_Source\PSoC5/UART_LOG.c ****             #else /* UART_LOG_CONTROL_REG_REMOVED */
 823:Generated_Source\PSoC5/UART_LOG.c ****                 uint8 tmpCtrl;
 824:Generated_Source\PSoC5/UART_LOG.c ****                 tmpCtrl = UART_LOG_CONTROL_REG & (uint8)~UART_LOG_CTRL_RXADDR_MODE_MASK;
 825:Generated_Source\PSoC5/UART_LOG.c ****                 tmpCtrl |= (uint8)(addressMode << UART_LOG_CTRL_RXADDR_MODE0_SHIFT);
 826:Generated_Source\PSoC5/UART_LOG.c ****                 UART_LOG_CONTROL_REG = tmpCtrl;
 827:Generated_Source\PSoC5/UART_LOG.c **** 
 828:Generated_Source\PSoC5/UART_LOG.c ****                 #if(UART_LOG_RX_INTERRUPT_ENABLED && \
 829:Generated_Source\PSoC5/UART_LOG.c ****                    (UART_LOG_RXBUFFERSIZE > UART_LOG_FIFO_LENGTH) )
 830:Generated_Source\PSoC5/UART_LOG.c ****                     UART_LOG_rxAddressMode = addressMode;
 831:Generated_Source\PSoC5/UART_LOG.c ****                     UART_LOG_rxAddressDetected = 0u;
 832:Generated_Source\PSoC5/UART_LOG.c ****                 #endif /* End UART_LOG_RXBUFFERSIZE > UART_LOG_FIFO_LENGTH*/
 833:Generated_Source\PSoC5/UART_LOG.c ****             #endif /* End UART_LOG_CONTROL_REG_REMOVED */
 834:Generated_Source\PSoC5/UART_LOG.c ****         #else /* UART_LOG_RXHW_ADDRESS_ENABLED */
 835:Generated_Source\PSoC5/UART_LOG.c ****             if(0u != addressMode)
 836:Generated_Source\PSoC5/UART_LOG.c ****             {
 837:Generated_Source\PSoC5/UART_LOG.c ****                 /* Suppress compiler warning */
ARM GAS  C:\Users\rbhar\AppData\Local\Temp\ccaqTdDy.s 			page 25


 838:Generated_Source\PSoC5/UART_LOG.c ****             }
 839:Generated_Source\PSoC5/UART_LOG.c ****         #endif /* End UART_LOG_RXHW_ADDRESS_ENABLED */
 840:Generated_Source\PSoC5/UART_LOG.c ****     }
 841:Generated_Source\PSoC5/UART_LOG.c **** 
 842:Generated_Source\PSoC5/UART_LOG.c **** 
 843:Generated_Source\PSoC5/UART_LOG.c ****     /*******************************************************************************
 844:Generated_Source\PSoC5/UART_LOG.c ****     * Function Name: UART_LOG_SetRxAddress1
 845:Generated_Source\PSoC5/UART_LOG.c ****     ********************************************************************************
 846:Generated_Source\PSoC5/UART_LOG.c ****     *
 847:Generated_Source\PSoC5/UART_LOG.c ****     * Summary:
 848:Generated_Source\PSoC5/UART_LOG.c ****     *  Sets the first of two hardware-detectable receiver addresses.
 849:Generated_Source\PSoC5/UART_LOG.c ****     *
 850:Generated_Source\PSoC5/UART_LOG.c ****     * Parameters:
 851:Generated_Source\PSoC5/UART_LOG.c ****     *  address: Address #1 for hardware address detection.
 852:Generated_Source\PSoC5/UART_LOG.c ****     *
 853:Generated_Source\PSoC5/UART_LOG.c ****     * Return:
 854:Generated_Source\PSoC5/UART_LOG.c ****     *  None.
 855:Generated_Source\PSoC5/UART_LOG.c ****     *
 856:Generated_Source\PSoC5/UART_LOG.c ****     *******************************************************************************/
 857:Generated_Source\PSoC5/UART_LOG.c ****     void UART_LOG_SetRxAddress1(uint8 address) 
 858:Generated_Source\PSoC5/UART_LOG.c ****     {
 526              		.loc 1 858 0
 527              		.cfi_startproc
 528              		@ args = 0, pretend = 0, frame = 0
 529              		@ frame_needed = 0, uses_anonymous_args = 0
 530              		@ link register save eliminated.
 531              	.LVL31:
 859:Generated_Source\PSoC5/UART_LOG.c ****         UART_LOG_RXADDRESS1_REG = address;
 532              		.loc 1 859 0
 533 0000 014B     		ldr	r3, .L48
 534 0002 1870     		strb	r0, [r3]
 535 0004 7047     		bx	lr
 536              	.L49:
 537 0006 00BF     		.align	2
 538              	.L48:
 539 0008 22640040 		.word	1073767458
 540              		.cfi_endproc
 541              	.LFE14:
 542              		.size	UART_LOG_SetRxAddress1, .-UART_LOG_SetRxAddress1
 543              		.section	.text.UART_LOG_SetRxAddress2,"ax",%progbits
 544              		.align	2
 545              		.global	UART_LOG_SetRxAddress2
 546              		.thumb
 547              		.thumb_func
 548              		.type	UART_LOG_SetRxAddress2, %function
 549              	UART_LOG_SetRxAddress2:
 550              	.LFB15:
 860:Generated_Source\PSoC5/UART_LOG.c ****     }
 861:Generated_Source\PSoC5/UART_LOG.c **** 
 862:Generated_Source\PSoC5/UART_LOG.c **** 
 863:Generated_Source\PSoC5/UART_LOG.c ****     /*******************************************************************************
 864:Generated_Source\PSoC5/UART_LOG.c ****     * Function Name: UART_LOG_SetRxAddress2
 865:Generated_Source\PSoC5/UART_LOG.c ****     ********************************************************************************
 866:Generated_Source\PSoC5/UART_LOG.c ****     *
 867:Generated_Source\PSoC5/UART_LOG.c ****     * Summary:
 868:Generated_Source\PSoC5/UART_LOG.c ****     *  Sets the second of two hardware-detectable receiver addresses.
 869:Generated_Source\PSoC5/UART_LOG.c ****     *
ARM GAS  C:\Users\rbhar\AppData\Local\Temp\ccaqTdDy.s 			page 26


 870:Generated_Source\PSoC5/UART_LOG.c ****     * Parameters:
 871:Generated_Source\PSoC5/UART_LOG.c ****     *  address: Address #2 for hardware address detection.
 872:Generated_Source\PSoC5/UART_LOG.c ****     *
 873:Generated_Source\PSoC5/UART_LOG.c ****     * Return:
 874:Generated_Source\PSoC5/UART_LOG.c ****     *  None.
 875:Generated_Source\PSoC5/UART_LOG.c ****     *
 876:Generated_Source\PSoC5/UART_LOG.c ****     *******************************************************************************/
 877:Generated_Source\PSoC5/UART_LOG.c ****     void UART_LOG_SetRxAddress2(uint8 address) 
 878:Generated_Source\PSoC5/UART_LOG.c ****     {
 551              		.loc 1 878 0
 552              		.cfi_startproc
 553              		@ args = 0, pretend = 0, frame = 0
 554              		@ frame_needed = 0, uses_anonymous_args = 0
 555              		@ link register save eliminated.
 556              	.LVL32:
 879:Generated_Source\PSoC5/UART_LOG.c ****         UART_LOG_RXADDRESS2_REG = address;
 557              		.loc 1 879 0
 558 0000 014B     		ldr	r3, .L51
 559 0002 1870     		strb	r0, [r3]
 560 0004 7047     		bx	lr
 561              	.L52:
 562 0006 00BF     		.align	2
 563              	.L51:
 564 0008 32640040 		.word	1073767474
 565              		.cfi_endproc
 566              	.LFE15:
 567              		.size	UART_LOG_SetRxAddress2, .-UART_LOG_SetRxAddress2
 568              		.section	.text.UART_LOG_SetTxInterruptMode,"ax",%progbits
 569              		.align	2
 570              		.global	UART_LOG_SetTxInterruptMode
 571              		.thumb
 572              		.thumb_func
 573              		.type	UART_LOG_SetTxInterruptMode, %function
 574              	UART_LOG_SetTxInterruptMode:
 575              	.LFB16:
 880:Generated_Source\PSoC5/UART_LOG.c ****     }
 881:Generated_Source\PSoC5/UART_LOG.c **** 
 882:Generated_Source\PSoC5/UART_LOG.c **** #endif  /* UART_LOG_RX_ENABLED || UART_LOG_HD_ENABLED*/
 883:Generated_Source\PSoC5/UART_LOG.c **** 
 884:Generated_Source\PSoC5/UART_LOG.c **** 
 885:Generated_Source\PSoC5/UART_LOG.c **** #if( (UART_LOG_TX_ENABLED) || (UART_LOG_HD_ENABLED) )
 886:Generated_Source\PSoC5/UART_LOG.c ****     /*******************************************************************************
 887:Generated_Source\PSoC5/UART_LOG.c ****     * Function Name: UART_LOG_SetTxInterruptMode
 888:Generated_Source\PSoC5/UART_LOG.c ****     ********************************************************************************
 889:Generated_Source\PSoC5/UART_LOG.c ****     *
 890:Generated_Source\PSoC5/UART_LOG.c ****     * Summary:
 891:Generated_Source\PSoC5/UART_LOG.c ****     *  Configures the TX interrupt sources to be enabled, but does not enable the
 892:Generated_Source\PSoC5/UART_LOG.c ****     *  interrupt.
 893:Generated_Source\PSoC5/UART_LOG.c ****     *
 894:Generated_Source\PSoC5/UART_LOG.c ****     * Parameters:
 895:Generated_Source\PSoC5/UART_LOG.c ****     *  intSrc: Bit field containing the TX interrupt sources to enable
 896:Generated_Source\PSoC5/UART_LOG.c ****     *   UART_LOG_TX_STS_COMPLETE        Interrupt on TX byte complete
 897:Generated_Source\PSoC5/UART_LOG.c ****     *   UART_LOG_TX_STS_FIFO_EMPTY      Interrupt when TX FIFO is empty
 898:Generated_Source\PSoC5/UART_LOG.c ****     *   UART_LOG_TX_STS_FIFO_FULL       Interrupt when TX FIFO is full
 899:Generated_Source\PSoC5/UART_LOG.c ****     *   UART_LOG_TX_STS_FIFO_NOT_FULL   Interrupt when TX FIFO is not full
 900:Generated_Source\PSoC5/UART_LOG.c ****     *
 901:Generated_Source\PSoC5/UART_LOG.c ****     * Return:
ARM GAS  C:\Users\rbhar\AppData\Local\Temp\ccaqTdDy.s 			page 27


 902:Generated_Source\PSoC5/UART_LOG.c ****     *  None.
 903:Generated_Source\PSoC5/UART_LOG.c ****     *
 904:Generated_Source\PSoC5/UART_LOG.c ****     * Theory:
 905:Generated_Source\PSoC5/UART_LOG.c ****     *  Enables the output of specific status bits to the interrupt controller
 906:Generated_Source\PSoC5/UART_LOG.c ****     *
 907:Generated_Source\PSoC5/UART_LOG.c ****     *******************************************************************************/
 908:Generated_Source\PSoC5/UART_LOG.c ****     void UART_LOG_SetTxInterruptMode(uint8 intSrc) 
 909:Generated_Source\PSoC5/UART_LOG.c ****     {
 576              		.loc 1 909 0
 577              		.cfi_startproc
 578              		@ args = 0, pretend = 0, frame = 0
 579              		@ frame_needed = 0, uses_anonymous_args = 0
 580              		@ link register save eliminated.
 581              	.LVL33:
 910:Generated_Source\PSoC5/UART_LOG.c ****         UART_LOG_TXSTATUS_MASK_REG = intSrc;
 582              		.loc 1 910 0
 583 0000 014B     		ldr	r3, .L54
 584 0002 1870     		strb	r0, [r3]
 585 0004 7047     		bx	lr
 586              	.L55:
 587 0006 00BF     		.align	2
 588              	.L54:
 589 0008 83640040 		.word	1073767555
 590              		.cfi_endproc
 591              	.LFE16:
 592              		.size	UART_LOG_SetTxInterruptMode, .-UART_LOG_SetTxInterruptMode
 593              		.section	.text.UART_LOG_WriteTxData,"ax",%progbits
 594              		.align	2
 595              		.global	UART_LOG_WriteTxData
 596              		.thumb
 597              		.thumb_func
 598              		.type	UART_LOG_WriteTxData, %function
 599              	UART_LOG_WriteTxData:
 600              	.LFB17:
 911:Generated_Source\PSoC5/UART_LOG.c ****     }
 912:Generated_Source\PSoC5/UART_LOG.c **** 
 913:Generated_Source\PSoC5/UART_LOG.c **** 
 914:Generated_Source\PSoC5/UART_LOG.c ****     /*******************************************************************************
 915:Generated_Source\PSoC5/UART_LOG.c ****     * Function Name: UART_LOG_WriteTxData
 916:Generated_Source\PSoC5/UART_LOG.c ****     ********************************************************************************
 917:Generated_Source\PSoC5/UART_LOG.c ****     *
 918:Generated_Source\PSoC5/UART_LOG.c ****     * Summary:
 919:Generated_Source\PSoC5/UART_LOG.c ****     *  Places a byte of data into the transmit buffer to be sent when the bus is
 920:Generated_Source\PSoC5/UART_LOG.c ****     *  available without checking the TX status register. You must check status
 921:Generated_Source\PSoC5/UART_LOG.c ****     *  separately.
 922:Generated_Source\PSoC5/UART_LOG.c ****     *
 923:Generated_Source\PSoC5/UART_LOG.c ****     * Parameters:
 924:Generated_Source\PSoC5/UART_LOG.c ****     *  txDataByte: data byte
 925:Generated_Source\PSoC5/UART_LOG.c ****     *
 926:Generated_Source\PSoC5/UART_LOG.c ****     * Return:
 927:Generated_Source\PSoC5/UART_LOG.c ****     * None.
 928:Generated_Source\PSoC5/UART_LOG.c ****     *
 929:Generated_Source\PSoC5/UART_LOG.c ****     * Global Variables:
 930:Generated_Source\PSoC5/UART_LOG.c ****     *  UART_LOG_txBuffer - RAM buffer pointer for save data for transmission
 931:Generated_Source\PSoC5/UART_LOG.c ****     *  UART_LOG_txBufferWrite - cyclic index for write to txBuffer,
 932:Generated_Source\PSoC5/UART_LOG.c ****     *    incremented after each byte saved to buffer.
 933:Generated_Source\PSoC5/UART_LOG.c ****     *  UART_LOG_txBufferRead - cyclic index for read from txBuffer,
ARM GAS  C:\Users\rbhar\AppData\Local\Temp\ccaqTdDy.s 			page 28


 934:Generated_Source\PSoC5/UART_LOG.c ****     *    checked to identify the condition to write to FIFO directly or to TX buffer
 935:Generated_Source\PSoC5/UART_LOG.c ****     *  UART_LOG_initVar - checked to identify that the component has been
 936:Generated_Source\PSoC5/UART_LOG.c ****     *    initialized.
 937:Generated_Source\PSoC5/UART_LOG.c ****     *
 938:Generated_Source\PSoC5/UART_LOG.c ****     * Reentrant:
 939:Generated_Source\PSoC5/UART_LOG.c ****     *  No.
 940:Generated_Source\PSoC5/UART_LOG.c ****     *
 941:Generated_Source\PSoC5/UART_LOG.c ****     *******************************************************************************/
 942:Generated_Source\PSoC5/UART_LOG.c ****     void UART_LOG_WriteTxData(uint8 txDataByte) 
 943:Generated_Source\PSoC5/UART_LOG.c ****     {
 601              		.loc 1 943 0
 602              		.cfi_startproc
 603              		@ args = 0, pretend = 0, frame = 0
 604              		@ frame_needed = 0, uses_anonymous_args = 0
 605              		@ link register save eliminated.
 606              	.LVL34:
 944:Generated_Source\PSoC5/UART_LOG.c ****         /* If not Initialized then skip this function*/
 945:Generated_Source\PSoC5/UART_LOG.c ****         if(UART_LOG_initVar != 0u)
 607              		.loc 1 945 0
 608 0000 114B     		ldr	r3, .L61
 609 0002 1B78     		ldrb	r3, [r3]	@ zero_extendqisi2
 610 0004 F3B1     		cbz	r3, .L56
 946:Generated_Source\PSoC5/UART_LOG.c ****         {
 947:Generated_Source\PSoC5/UART_LOG.c ****         #if (UART_LOG_TX_INTERRUPT_ENABLED)
 948:Generated_Source\PSoC5/UART_LOG.c **** 
 949:Generated_Source\PSoC5/UART_LOG.c ****             /* Protect variables that could change on interrupt. */
 950:Generated_Source\PSoC5/UART_LOG.c ****             UART_LOG_DisableTxInt();
 611              		.loc 1 950 0
 612 0006 0122     		movs	r2, #1
 613 0008 104B     		ldr	r3, .L61+4
 614 000a 1A60     		str	r2, [r3]
 951:Generated_Source\PSoC5/UART_LOG.c **** 
 952:Generated_Source\PSoC5/UART_LOG.c ****             if( (UART_LOG_txBufferRead == UART_LOG_txBufferWrite) &&
 615              		.loc 1 952 0
 616 000c 0E4A     		ldr	r2, .L61
 617 000e 5378     		ldrb	r3, [r2, #1]	@ zero_extendqisi2
 618 0010 DBB2     		uxtb	r3, r3
 619 0012 9278     		ldrb	r2, [r2, #2]	@ zero_extendqisi2
 620 0014 9342     		cmp	r3, r2
 621 0016 07D1     		bne	.L58
 953:Generated_Source\PSoC5/UART_LOG.c ****                 ((UART_LOG_TXSTATUS_REG & UART_LOG_TX_STS_FIFO_FULL) == 0u) )
 622              		.loc 1 953 0 discriminator 1
 623 0018 0D4B     		ldr	r3, .L61+8
 624 001a 1B78     		ldrb	r3, [r3]	@ zero_extendqisi2
 952:Generated_Source\PSoC5/UART_LOG.c ****                 ((UART_LOG_TXSTATUS_REG & UART_LOG_TX_STS_FIFO_FULL) == 0u) )
 625              		.loc 1 952 0 discriminator 1
 626 001c 13F0040F 		tst	r3, #4
 627 0020 02D1     		bne	.L58
 954:Generated_Source\PSoC5/UART_LOG.c ****             {
 955:Generated_Source\PSoC5/UART_LOG.c ****                 /* Add directly to the FIFO. */
 956:Generated_Source\PSoC5/UART_LOG.c ****                 UART_LOG_TXDATA_REG = txDataByte;
 628              		.loc 1 956 0
 629 0022 0C4B     		ldr	r3, .L61+12
 630 0024 1870     		strb	r0, [r3]
 631 0026 0AE0     		b	.L59
 632              	.L58:
 957:Generated_Source\PSoC5/UART_LOG.c ****             }
ARM GAS  C:\Users\rbhar\AppData\Local\Temp\ccaqTdDy.s 			page 29


 958:Generated_Source\PSoC5/UART_LOG.c ****             else
 959:Generated_Source\PSoC5/UART_LOG.c ****             {
 960:Generated_Source\PSoC5/UART_LOG.c ****                 if(UART_LOG_txBufferWrite >= UART_LOG_TX_BUFFER_SIZE)
 633              		.loc 1 960 0
 634 0028 0F2A     		cmp	r2, #15
 635 002a 02D9     		bls	.L60
 961:Generated_Source\PSoC5/UART_LOG.c ****                 {
 962:Generated_Source\PSoC5/UART_LOG.c ****                     UART_LOG_txBufferWrite = 0u;
 636              		.loc 1 962 0
 637 002c 0022     		movs	r2, #0
 638 002e 064B     		ldr	r3, .L61
 639 0030 9A70     		strb	r2, [r3, #2]
 640              	.L60:
 963:Generated_Source\PSoC5/UART_LOG.c ****                 }
 964:Generated_Source\PSoC5/UART_LOG.c **** 
 965:Generated_Source\PSoC5/UART_LOG.c ****                 UART_LOG_txBuffer[UART_LOG_txBufferWrite] = txDataByte;
 641              		.loc 1 965 0
 642 0032 054A     		ldr	r2, .L61
 643 0034 9378     		ldrb	r3, [r2, #2]	@ zero_extendqisi2
 644 0036 0849     		ldr	r1, .L61+16
 645 0038 C854     		strb	r0, [r1, r3]
 966:Generated_Source\PSoC5/UART_LOG.c **** 
 967:Generated_Source\PSoC5/UART_LOG.c ****                 /* Add to the software buffer. */
 968:Generated_Source\PSoC5/UART_LOG.c ****                 UART_LOG_txBufferWrite++;
 646              		.loc 1 968 0
 647 003a 0133     		adds	r3, r3, #1
 648 003c 9370     		strb	r3, [r2, #2]
 649              	.L59:
 969:Generated_Source\PSoC5/UART_LOG.c ****             }
 970:Generated_Source\PSoC5/UART_LOG.c **** 
 971:Generated_Source\PSoC5/UART_LOG.c ****             UART_LOG_EnableTxInt();
 650              		.loc 1 971 0
 651 003e 0122     		movs	r2, #1
 652 0040 064B     		ldr	r3, .L61+20
 653 0042 1A60     		str	r2, [r3]
 654              	.L56:
 655 0044 7047     		bx	lr
 656              	.L62:
 657 0046 00BF     		.align	2
 658              	.L61:
 659 0048 00000000 		.word	.LANCHOR0
 660 004c 80E100E0 		.word	-536813184
 661 0050 63640040 		.word	1073767523
 662 0054 40640040 		.word	1073767488
 663 0058 00000000 		.word	UART_LOG_txBuffer
 664 005c 00E100E0 		.word	-536813312
 665              		.cfi_endproc
 666              	.LFE17:
 667              		.size	UART_LOG_WriteTxData, .-UART_LOG_WriteTxData
 668              		.section	.text.UART_LOG_ReadTxStatus,"ax",%progbits
 669              		.align	2
 670              		.global	UART_LOG_ReadTxStatus
 671              		.thumb
 672              		.thumb_func
 673              		.type	UART_LOG_ReadTxStatus, %function
 674              	UART_LOG_ReadTxStatus:
 675              	.LFB18:
ARM GAS  C:\Users\rbhar\AppData\Local\Temp\ccaqTdDy.s 			page 30


 972:Generated_Source\PSoC5/UART_LOG.c **** 
 973:Generated_Source\PSoC5/UART_LOG.c ****         #else
 974:Generated_Source\PSoC5/UART_LOG.c **** 
 975:Generated_Source\PSoC5/UART_LOG.c ****             /* Add directly to the FIFO. */
 976:Generated_Source\PSoC5/UART_LOG.c ****             UART_LOG_TXDATA_REG = txDataByte;
 977:Generated_Source\PSoC5/UART_LOG.c **** 
 978:Generated_Source\PSoC5/UART_LOG.c ****         #endif /*(UART_LOG_TX_INTERRUPT_ENABLED) */
 979:Generated_Source\PSoC5/UART_LOG.c ****         }
 980:Generated_Source\PSoC5/UART_LOG.c ****     }
 981:Generated_Source\PSoC5/UART_LOG.c **** 
 982:Generated_Source\PSoC5/UART_LOG.c **** 
 983:Generated_Source\PSoC5/UART_LOG.c ****     /*******************************************************************************
 984:Generated_Source\PSoC5/UART_LOG.c ****     * Function Name: UART_LOG_ReadTxStatus
 985:Generated_Source\PSoC5/UART_LOG.c ****     ********************************************************************************
 986:Generated_Source\PSoC5/UART_LOG.c ****     *
 987:Generated_Source\PSoC5/UART_LOG.c ****     * Summary:
 988:Generated_Source\PSoC5/UART_LOG.c ****     *  Reads the status register for the TX portion of the UART.
 989:Generated_Source\PSoC5/UART_LOG.c ****     *
 990:Generated_Source\PSoC5/UART_LOG.c ****     * Parameters:
 991:Generated_Source\PSoC5/UART_LOG.c ****     *  None.
 992:Generated_Source\PSoC5/UART_LOG.c ****     *
 993:Generated_Source\PSoC5/UART_LOG.c ****     * Return:
 994:Generated_Source\PSoC5/UART_LOG.c ****     *  Contents of the status register
 995:Generated_Source\PSoC5/UART_LOG.c ****     *
 996:Generated_Source\PSoC5/UART_LOG.c ****     * Theory:
 997:Generated_Source\PSoC5/UART_LOG.c ****     *  This function reads the TX status register, which is cleared on read.
 998:Generated_Source\PSoC5/UART_LOG.c ****     *  It is up to the user to handle all bits in this return value accordingly,
 999:Generated_Source\PSoC5/UART_LOG.c ****     *  even if the bit was not enabled as an interrupt source the event happened
1000:Generated_Source\PSoC5/UART_LOG.c ****     *  and must be handled accordingly.
1001:Generated_Source\PSoC5/UART_LOG.c ****     *
1002:Generated_Source\PSoC5/UART_LOG.c ****     *******************************************************************************/
1003:Generated_Source\PSoC5/UART_LOG.c ****     uint8 UART_LOG_ReadTxStatus(void) 
1004:Generated_Source\PSoC5/UART_LOG.c ****     {
 676              		.loc 1 1004 0
 677              		.cfi_startproc
 678              		@ args = 0, pretend = 0, frame = 0
 679              		@ frame_needed = 0, uses_anonymous_args = 0
 680              		@ link register save eliminated.
1005:Generated_Source\PSoC5/UART_LOG.c ****         return(UART_LOG_TXSTATUS_REG);
 681              		.loc 1 1005 0
 682 0000 014B     		ldr	r3, .L64
 683 0002 1878     		ldrb	r0, [r3]	@ zero_extendqisi2
1006:Generated_Source\PSoC5/UART_LOG.c ****     }
 684              		.loc 1 1006 0
 685 0004 7047     		bx	lr
 686              	.L65:
 687 0006 00BF     		.align	2
 688              	.L64:
 689 0008 63640040 		.word	1073767523
 690              		.cfi_endproc
 691              	.LFE18:
 692              		.size	UART_LOG_ReadTxStatus, .-UART_LOG_ReadTxStatus
 693              		.section	.text.UART_LOG_PutChar,"ax",%progbits
 694              		.align	2
 695              		.global	UART_LOG_PutChar
 696              		.thumb
 697              		.thumb_func
ARM GAS  C:\Users\rbhar\AppData\Local\Temp\ccaqTdDy.s 			page 31


 698              		.type	UART_LOG_PutChar, %function
 699              	UART_LOG_PutChar:
 700              	.LFB19:
1007:Generated_Source\PSoC5/UART_LOG.c **** 
1008:Generated_Source\PSoC5/UART_LOG.c **** 
1009:Generated_Source\PSoC5/UART_LOG.c ****     /*******************************************************************************
1010:Generated_Source\PSoC5/UART_LOG.c ****     * Function Name: UART_LOG_PutChar
1011:Generated_Source\PSoC5/UART_LOG.c ****     ********************************************************************************
1012:Generated_Source\PSoC5/UART_LOG.c ****     *
1013:Generated_Source\PSoC5/UART_LOG.c ****     * Summary:
1014:Generated_Source\PSoC5/UART_LOG.c ****     *  Puts a byte of data into the transmit buffer to be sent when the bus is
1015:Generated_Source\PSoC5/UART_LOG.c ****     *  available. This is a blocking API that waits until the TX buffer has room to
1016:Generated_Source\PSoC5/UART_LOG.c ****     *  hold the data.
1017:Generated_Source\PSoC5/UART_LOG.c ****     *
1018:Generated_Source\PSoC5/UART_LOG.c ****     * Parameters:
1019:Generated_Source\PSoC5/UART_LOG.c ****     *  txDataByte: Byte containing the data to transmit
1020:Generated_Source\PSoC5/UART_LOG.c ****     *
1021:Generated_Source\PSoC5/UART_LOG.c ****     * Return:
1022:Generated_Source\PSoC5/UART_LOG.c ****     *  None.
1023:Generated_Source\PSoC5/UART_LOG.c ****     *
1024:Generated_Source\PSoC5/UART_LOG.c ****     * Global Variables:
1025:Generated_Source\PSoC5/UART_LOG.c ****     *  UART_LOG_txBuffer - RAM buffer pointer for save data for transmission
1026:Generated_Source\PSoC5/UART_LOG.c ****     *  UART_LOG_txBufferWrite - cyclic index for write to txBuffer,
1027:Generated_Source\PSoC5/UART_LOG.c ****     *     checked to identify free space in txBuffer and incremented after each byte
1028:Generated_Source\PSoC5/UART_LOG.c ****     *     saved to buffer.
1029:Generated_Source\PSoC5/UART_LOG.c ****     *  UART_LOG_txBufferRead - cyclic index for read from txBuffer,
1030:Generated_Source\PSoC5/UART_LOG.c ****     *     checked to identify free space in txBuffer.
1031:Generated_Source\PSoC5/UART_LOG.c ****     *  UART_LOG_initVar - checked to identify that the component has been
1032:Generated_Source\PSoC5/UART_LOG.c ****     *     initialized.
1033:Generated_Source\PSoC5/UART_LOG.c ****     *
1034:Generated_Source\PSoC5/UART_LOG.c ****     * Reentrant:
1035:Generated_Source\PSoC5/UART_LOG.c ****     *  No.
1036:Generated_Source\PSoC5/UART_LOG.c ****     *
1037:Generated_Source\PSoC5/UART_LOG.c ****     * Theory:
1038:Generated_Source\PSoC5/UART_LOG.c ****     *  Allows the user to transmit any byte of data in a single transfer
1039:Generated_Source\PSoC5/UART_LOG.c ****     *
1040:Generated_Source\PSoC5/UART_LOG.c ****     *******************************************************************************/
1041:Generated_Source\PSoC5/UART_LOG.c ****     void UART_LOG_PutChar(uint8 txDataByte) 
1042:Generated_Source\PSoC5/UART_LOG.c ****     {
 701              		.loc 1 1042 0
 702              		.cfi_startproc
 703              		@ args = 0, pretend = 0, frame = 0
 704              		@ frame_needed = 0, uses_anonymous_args = 0
 705              		@ link register save eliminated.
 706              	.LVL35:
 707              	.L69:
1043:Generated_Source\PSoC5/UART_LOG.c ****     #if (UART_LOG_TX_INTERRUPT_ENABLED)
1044:Generated_Source\PSoC5/UART_LOG.c ****         /* The temporary output pointer is used since it takes two instructions
1045:Generated_Source\PSoC5/UART_LOG.c ****         *  to increment with a wrap, and we can't risk doing that with the real
1046:Generated_Source\PSoC5/UART_LOG.c ****         *  pointer and getting an interrupt in between instructions.
1047:Generated_Source\PSoC5/UART_LOG.c ****         */
1048:Generated_Source\PSoC5/UART_LOG.c ****         uint8 locTxBufferWrite;
1049:Generated_Source\PSoC5/UART_LOG.c ****         uint8 locTxBufferRead;
1050:Generated_Source\PSoC5/UART_LOG.c **** 
1051:Generated_Source\PSoC5/UART_LOG.c ****         do
1052:Generated_Source\PSoC5/UART_LOG.c ****         { /* Block if software buffer is full, so we don't overwrite. */
1053:Generated_Source\PSoC5/UART_LOG.c **** 
ARM GAS  C:\Users\rbhar\AppData\Local\Temp\ccaqTdDy.s 			page 32


1054:Generated_Source\PSoC5/UART_LOG.c ****         #if ((UART_LOG_TX_BUFFER_SIZE > UART_LOG_MAX_BYTE_VALUE) && (CY_PSOC3))
1055:Generated_Source\PSoC5/UART_LOG.c ****             /* Disable TX interrupt to protect variables from modification */
1056:Generated_Source\PSoC5/UART_LOG.c ****             UART_LOG_DisableTxInt();
1057:Generated_Source\PSoC5/UART_LOG.c ****         #endif /* (UART_LOG_TX_BUFFER_SIZE > UART_LOG_MAX_BYTE_VALUE) && (CY_PSOC3) */
1058:Generated_Source\PSoC5/UART_LOG.c **** 
1059:Generated_Source\PSoC5/UART_LOG.c ****             locTxBufferWrite = UART_LOG_txBufferWrite;
 708              		.loc 1 1059 0
 709 0000 164B     		ldr	r3, .L74
 710 0002 9978     		ldrb	r1, [r3, #2]	@ zero_extendqisi2
 711              	.LVL36:
1060:Generated_Source\PSoC5/UART_LOG.c ****             locTxBufferRead  = UART_LOG_txBufferRead;
 712              		.loc 1 1060 0
 713 0004 5B78     		ldrb	r3, [r3, #1]	@ zero_extendqisi2
 714 0006 DBB2     		uxtb	r3, r3
 715              	.LVL37:
1061:Generated_Source\PSoC5/UART_LOG.c **** 
1062:Generated_Source\PSoC5/UART_LOG.c ****         #if ((UART_LOG_TX_BUFFER_SIZE > UART_LOG_MAX_BYTE_VALUE) && (CY_PSOC3))
1063:Generated_Source\PSoC5/UART_LOG.c ****             /* Enable interrupt to continue transmission */
1064:Generated_Source\PSoC5/UART_LOG.c ****             UART_LOG_EnableTxInt();
1065:Generated_Source\PSoC5/UART_LOG.c ****         #endif /* (UART_LOG_TX_BUFFER_SIZE > UART_LOG_MAX_BYTE_VALUE) && (CY_PSOC3) */
1066:Generated_Source\PSoC5/UART_LOG.c ****         }
1067:Generated_Source\PSoC5/UART_LOG.c ****         while( (locTxBufferWrite < locTxBufferRead) ? (locTxBufferWrite == (locTxBufferRead - 1u)) 
 716              		.loc 1 1067 0
 717 0008 9942     		cmp	r1, r3
 718 000a 05D2     		bcs	.L67
 719              		.loc 1 1067 0 is_stmt 0 discriminator 1
 720 000c 5A1E     		subs	r2, r3, #1
 721 000e 9142     		cmp	r1, r2
 722 0010 14BF     		ite	ne
 723 0012 0022     		movne	r2, #0
 724 0014 0122     		moveq	r2, #1
 725 0016 04E0     		b	.L68
 726              	.L67:
1068:Generated_Source\PSoC5/UART_LOG.c ****                                 ((locTxBufferWrite - locTxBufferRead) ==
 727              		.loc 1 1068 0 is_stmt 1 discriminator 2
 728 0018 CA1A     		subs	r2, r1, r3
1067:Generated_Source\PSoC5/UART_LOG.c ****                                 ((locTxBufferWrite - locTxBufferRead) ==
 729              		.loc 1 1067 0 discriminator 2
 730 001a 0F2A     		cmp	r2, #15
 731 001c 14BF     		ite	ne
 732 001e 0022     		movne	r2, #0
 733 0020 0122     		moveq	r2, #1
 734              	.L68:
1069:Generated_Source\PSoC5/UART_LOG.c ****                                 (uint8)(UART_LOG_TX_BUFFER_SIZE - 1u)) );
 735              		.loc 1 1069 0
 736 0022 002A     		cmp	r2, #0
 737 0024 ECD1     		bne	.L69
1070:Generated_Source\PSoC5/UART_LOG.c **** 
1071:Generated_Source\PSoC5/UART_LOG.c ****         if( (locTxBufferRead == locTxBufferWrite) &&
 738              		.loc 1 1071 0
 739 0026 9942     		cmp	r1, r3
 740 0028 07D1     		bne	.L70
1072:Generated_Source\PSoC5/UART_LOG.c ****             ((UART_LOG_TXSTATUS_REG & UART_LOG_TX_STS_FIFO_FULL) == 0u) )
 741              		.loc 1 1072 0 discriminator 1
 742 002a 0D4B     		ldr	r3, .L74+4
 743              	.LVL38:
 744 002c 1B78     		ldrb	r3, [r3]	@ zero_extendqisi2
ARM GAS  C:\Users\rbhar\AppData\Local\Temp\ccaqTdDy.s 			page 33


1071:Generated_Source\PSoC5/UART_LOG.c ****             ((UART_LOG_TXSTATUS_REG & UART_LOG_TX_STS_FIFO_FULL) == 0u) )
 745              		.loc 1 1071 0 discriminator 1
 746 002e 13F0040F 		tst	r3, #4
 747 0032 02D1     		bne	.L70
1073:Generated_Source\PSoC5/UART_LOG.c ****         {
1074:Generated_Source\PSoC5/UART_LOG.c ****             /* Add directly to the FIFO */
1075:Generated_Source\PSoC5/UART_LOG.c ****             UART_LOG_TXDATA_REG = txDataByte;
 748              		.loc 1 1075 0
 749 0034 0B4B     		ldr	r3, .L74+8
 750 0036 1870     		strb	r0, [r3]
 751 0038 7047     		bx	lr
 752              	.L70:
1076:Generated_Source\PSoC5/UART_LOG.c ****         }
1077:Generated_Source\PSoC5/UART_LOG.c ****         else
1078:Generated_Source\PSoC5/UART_LOG.c ****         {
1079:Generated_Source\PSoC5/UART_LOG.c ****             if(locTxBufferWrite >= UART_LOG_TX_BUFFER_SIZE)
 753              		.loc 1 1079 0
 754 003a 0F29     		cmp	r1, #15
 755 003c 00D9     		bls	.L72
1080:Generated_Source\PSoC5/UART_LOG.c ****             {
1081:Generated_Source\PSoC5/UART_LOG.c ****                 locTxBufferWrite = 0u;
 756              		.loc 1 1081 0
 757 003e 0021     		movs	r1, #0
 758              	.LVL39:
 759              	.L72:
1082:Generated_Source\PSoC5/UART_LOG.c ****             }
1083:Generated_Source\PSoC5/UART_LOG.c ****             /* Add to the software buffer. */
1084:Generated_Source\PSoC5/UART_LOG.c ****             UART_LOG_txBuffer[locTxBufferWrite] = txDataByte;
 760              		.loc 1 1084 0
 761 0040 094B     		ldr	r3, .L74+12
 762 0042 5854     		strb	r0, [r3, r1]
1085:Generated_Source\PSoC5/UART_LOG.c ****             locTxBufferWrite++;
 763              		.loc 1 1085 0
 764 0044 0131     		adds	r1, r1, #1
 765              	.LVL40:
1086:Generated_Source\PSoC5/UART_LOG.c **** 
1087:Generated_Source\PSoC5/UART_LOG.c ****             /* Finally, update the real output pointer */
1088:Generated_Source\PSoC5/UART_LOG.c ****         #if ((UART_LOG_TX_BUFFER_SIZE > UART_LOG_MAX_BYTE_VALUE) && (CY_PSOC3))
1089:Generated_Source\PSoC5/UART_LOG.c ****             UART_LOG_DisableTxInt();
1090:Generated_Source\PSoC5/UART_LOG.c ****         #endif /* (UART_LOG_TX_BUFFER_SIZE > UART_LOG_MAX_BYTE_VALUE) && (CY_PSOC3) */
1091:Generated_Source\PSoC5/UART_LOG.c **** 
1092:Generated_Source\PSoC5/UART_LOG.c ****             UART_LOG_txBufferWrite = locTxBufferWrite;
 766              		.loc 1 1092 0
 767 0046 054B     		ldr	r3, .L74
 768 0048 9970     		strb	r1, [r3, #2]
1093:Generated_Source\PSoC5/UART_LOG.c **** 
1094:Generated_Source\PSoC5/UART_LOG.c ****         #if ((UART_LOG_TX_BUFFER_SIZE > UART_LOG_MAX_BYTE_VALUE) && (CY_PSOC3))
1095:Generated_Source\PSoC5/UART_LOG.c ****             UART_LOG_EnableTxInt();
1096:Generated_Source\PSoC5/UART_LOG.c ****         #endif /* (UART_LOG_TX_BUFFER_SIZE > UART_LOG_MAX_BYTE_VALUE) && (CY_PSOC3) */
1097:Generated_Source\PSoC5/UART_LOG.c **** 
1098:Generated_Source\PSoC5/UART_LOG.c ****             if(0u != (UART_LOG_TXSTATUS_REG & UART_LOG_TX_STS_FIFO_EMPTY))
 769              		.loc 1 1098 0
 770 004a 054B     		ldr	r3, .L74+4
 771 004c 1B78     		ldrb	r3, [r3]	@ zero_extendqisi2
 772 004e 13F0020F 		tst	r3, #2
 773 0052 02D0     		beq	.L66
1099:Generated_Source\PSoC5/UART_LOG.c ****             {
ARM GAS  C:\Users\rbhar\AppData\Local\Temp\ccaqTdDy.s 			page 34


1100:Generated_Source\PSoC5/UART_LOG.c ****                 /* Trigger TX interrupt to send software buffer */
1101:Generated_Source\PSoC5/UART_LOG.c ****                 UART_LOG_SetPendingTxInt();
 774              		.loc 1 1101 0
 775 0054 0122     		movs	r2, #1
 776 0056 054B     		ldr	r3, .L74+16
 777 0058 1A60     		str	r2, [r3]
 778              	.L66:
 779 005a 7047     		bx	lr
 780              	.L75:
 781              		.align	2
 782              	.L74:
 783 005c 00000000 		.word	.LANCHOR0
 784 0060 63640040 		.word	1073767523
 785 0064 40640040 		.word	1073767488
 786 0068 00000000 		.word	UART_LOG_txBuffer
 787 006c 00E200E0 		.word	-536813056
 788              		.cfi_endproc
 789              	.LFE19:
 790              		.size	UART_LOG_PutChar, .-UART_LOG_PutChar
 791              		.section	.text.UART_LOG_PutString,"ax",%progbits
 792              		.align	2
 793              		.global	UART_LOG_PutString
 794              		.thumb
 795              		.thumb_func
 796              		.type	UART_LOG_PutString, %function
 797              	UART_LOG_PutString:
 798              	.LFB20:
1102:Generated_Source\PSoC5/UART_LOG.c ****             }
1103:Generated_Source\PSoC5/UART_LOG.c ****         }
1104:Generated_Source\PSoC5/UART_LOG.c **** 
1105:Generated_Source\PSoC5/UART_LOG.c ****     #else
1106:Generated_Source\PSoC5/UART_LOG.c **** 
1107:Generated_Source\PSoC5/UART_LOG.c ****         while((UART_LOG_TXSTATUS_REG & UART_LOG_TX_STS_FIFO_FULL) != 0u)
1108:Generated_Source\PSoC5/UART_LOG.c ****         {
1109:Generated_Source\PSoC5/UART_LOG.c ****             /* Wait for room in the FIFO */
1110:Generated_Source\PSoC5/UART_LOG.c ****         }
1111:Generated_Source\PSoC5/UART_LOG.c **** 
1112:Generated_Source\PSoC5/UART_LOG.c ****         /* Add directly to the FIFO */
1113:Generated_Source\PSoC5/UART_LOG.c ****         UART_LOG_TXDATA_REG = txDataByte;
1114:Generated_Source\PSoC5/UART_LOG.c **** 
1115:Generated_Source\PSoC5/UART_LOG.c ****     #endif /* UART_LOG_TX_INTERRUPT_ENABLED */
1116:Generated_Source\PSoC5/UART_LOG.c ****     }
1117:Generated_Source\PSoC5/UART_LOG.c **** 
1118:Generated_Source\PSoC5/UART_LOG.c **** 
1119:Generated_Source\PSoC5/UART_LOG.c ****     /*******************************************************************************
1120:Generated_Source\PSoC5/UART_LOG.c ****     * Function Name: UART_LOG_PutString
1121:Generated_Source\PSoC5/UART_LOG.c ****     ********************************************************************************
1122:Generated_Source\PSoC5/UART_LOG.c ****     *
1123:Generated_Source\PSoC5/UART_LOG.c ****     * Summary:
1124:Generated_Source\PSoC5/UART_LOG.c ****     *  Sends a NULL terminated string to the TX buffer for transmission.
1125:Generated_Source\PSoC5/UART_LOG.c ****     *
1126:Generated_Source\PSoC5/UART_LOG.c ****     * Parameters:
1127:Generated_Source\PSoC5/UART_LOG.c ****     *  string[]: Pointer to the null terminated string array residing in RAM or ROM
1128:Generated_Source\PSoC5/UART_LOG.c ****     *
1129:Generated_Source\PSoC5/UART_LOG.c ****     * Return:
1130:Generated_Source\PSoC5/UART_LOG.c ****     *  None.
1131:Generated_Source\PSoC5/UART_LOG.c ****     *
ARM GAS  C:\Users\rbhar\AppData\Local\Temp\ccaqTdDy.s 			page 35


1132:Generated_Source\PSoC5/UART_LOG.c ****     * Global Variables:
1133:Generated_Source\PSoC5/UART_LOG.c ****     *  UART_LOG_initVar - checked to identify that the component has been
1134:Generated_Source\PSoC5/UART_LOG.c ****     *     initialized.
1135:Generated_Source\PSoC5/UART_LOG.c ****     *
1136:Generated_Source\PSoC5/UART_LOG.c ****     * Reentrant:
1137:Generated_Source\PSoC5/UART_LOG.c ****     *  No.
1138:Generated_Source\PSoC5/UART_LOG.c ****     *
1139:Generated_Source\PSoC5/UART_LOG.c ****     * Theory:
1140:Generated_Source\PSoC5/UART_LOG.c ****     *  If there is not enough memory in the TX buffer for the entire string, this
1141:Generated_Source\PSoC5/UART_LOG.c ****     *  function blocks until the last character of the string is loaded into the
1142:Generated_Source\PSoC5/UART_LOG.c ****     *  TX buffer.
1143:Generated_Source\PSoC5/UART_LOG.c ****     *
1144:Generated_Source\PSoC5/UART_LOG.c ****     *******************************************************************************/
1145:Generated_Source\PSoC5/UART_LOG.c ****     void UART_LOG_PutString(const char8 string[]) 
1146:Generated_Source\PSoC5/UART_LOG.c ****     {
 799              		.loc 1 1146 0
 800              		.cfi_startproc
 801              		@ args = 0, pretend = 0, frame = 0
 802              		@ frame_needed = 0, uses_anonymous_args = 0
 803              	.LVL41:
 804 0000 38B5     		push	{r3, r4, r5, lr}
 805              		.cfi_def_cfa_offset 16
 806              		.cfi_offset 3, -16
 807              		.cfi_offset 4, -12
 808              		.cfi_offset 5, -8
 809              		.cfi_offset 14, -4
 810              	.LVL42:
1147:Generated_Source\PSoC5/UART_LOG.c ****         uint16 bufIndex = 0u;
1148:Generated_Source\PSoC5/UART_LOG.c **** 
1149:Generated_Source\PSoC5/UART_LOG.c ****         /* If not Initialized then skip this function */
1150:Generated_Source\PSoC5/UART_LOG.c ****         if(UART_LOG_initVar != 0u)
 811              		.loc 1 1150 0
 812 0002 074B     		ldr	r3, .L82
 813 0004 1B78     		ldrb	r3, [r3]	@ zero_extendqisi2
 814 0006 2BB9     		cbnz	r3, .L80
 815 0008 38BD     		pop	{r3, r4, r5, pc}
 816              	.LVL43:
 817              	.L79:
1151:Generated_Source\PSoC5/UART_LOG.c ****         {
1152:Generated_Source\PSoC5/UART_LOG.c ****             /* This is a blocking function, it will not exit until all data is sent */
1153:Generated_Source\PSoC5/UART_LOG.c ****             while(string[bufIndex] != (char8) 0)
1154:Generated_Source\PSoC5/UART_LOG.c ****             {
1155:Generated_Source\PSoC5/UART_LOG.c ****                 UART_LOG_PutChar((uint8)string[bufIndex]);
 818              		.loc 1 1155 0
 819 000a FFF7FEFF 		bl	UART_LOG_PutChar
 820              	.LVL44:
1156:Generated_Source\PSoC5/UART_LOG.c ****                 bufIndex++;
 821              		.loc 1 1156 0
 822 000e 0134     		adds	r4, r4, #1
 823              	.LVL45:
 824 0010 A4B2     		uxth	r4, r4
 825              	.LVL46:
 826 0012 01E0     		b	.L77
 827              	.LVL47:
 828              	.L80:
 829 0014 0546     		mov	r5, r0
 830 0016 0024     		movs	r4, #0
ARM GAS  C:\Users\rbhar\AppData\Local\Temp\ccaqTdDy.s 			page 36


 831              	.LVL48:
 832              	.L77:
1153:Generated_Source\PSoC5/UART_LOG.c ****             {
 833              		.loc 1 1153 0
 834 0018 285D     		ldrb	r0, [r5, r4]	@ zero_extendqisi2
 835 001a 0028     		cmp	r0, #0
 836 001c F5D1     		bne	.L79
 837 001e 38BD     		pop	{r3, r4, r5, pc}
 838              	.LVL49:
 839              	.L83:
 840              		.align	2
 841              	.L82:
 842 0020 00000000 		.word	.LANCHOR0
 843              		.cfi_endproc
 844              	.LFE20:
 845              		.size	UART_LOG_PutString, .-UART_LOG_PutString
 846              		.section	.text.UART_LOG_PutArray,"ax",%progbits
 847              		.align	2
 848              		.global	UART_LOG_PutArray
 849              		.thumb
 850              		.thumb_func
 851              		.type	UART_LOG_PutArray, %function
 852              	UART_LOG_PutArray:
 853              	.LFB21:
1157:Generated_Source\PSoC5/UART_LOG.c ****             }
1158:Generated_Source\PSoC5/UART_LOG.c ****         }
1159:Generated_Source\PSoC5/UART_LOG.c ****     }
1160:Generated_Source\PSoC5/UART_LOG.c **** 
1161:Generated_Source\PSoC5/UART_LOG.c **** 
1162:Generated_Source\PSoC5/UART_LOG.c ****     /*******************************************************************************
1163:Generated_Source\PSoC5/UART_LOG.c ****     * Function Name: UART_LOG_PutArray
1164:Generated_Source\PSoC5/UART_LOG.c ****     ********************************************************************************
1165:Generated_Source\PSoC5/UART_LOG.c ****     *
1166:Generated_Source\PSoC5/UART_LOG.c ****     * Summary:
1167:Generated_Source\PSoC5/UART_LOG.c ****     *  Places N bytes of data from a memory array into the TX buffer for
1168:Generated_Source\PSoC5/UART_LOG.c ****     *  transmission.
1169:Generated_Source\PSoC5/UART_LOG.c ****     *
1170:Generated_Source\PSoC5/UART_LOG.c ****     * Parameters:
1171:Generated_Source\PSoC5/UART_LOG.c ****     *  string[]: Address of the memory array residing in RAM or ROM.
1172:Generated_Source\PSoC5/UART_LOG.c ****     *  byteCount: Number of bytes to be transmitted. The type depends on TX Buffer
1173:Generated_Source\PSoC5/UART_LOG.c ****     *             Size parameter.
1174:Generated_Source\PSoC5/UART_LOG.c ****     *
1175:Generated_Source\PSoC5/UART_LOG.c ****     * Return:
1176:Generated_Source\PSoC5/UART_LOG.c ****     *  None.
1177:Generated_Source\PSoC5/UART_LOG.c ****     *
1178:Generated_Source\PSoC5/UART_LOG.c ****     * Global Variables:
1179:Generated_Source\PSoC5/UART_LOG.c ****     *  UART_LOG_initVar - checked to identify that the component has been
1180:Generated_Source\PSoC5/UART_LOG.c ****     *     initialized.
1181:Generated_Source\PSoC5/UART_LOG.c ****     *
1182:Generated_Source\PSoC5/UART_LOG.c ****     * Reentrant:
1183:Generated_Source\PSoC5/UART_LOG.c ****     *  No.
1184:Generated_Source\PSoC5/UART_LOG.c ****     *
1185:Generated_Source\PSoC5/UART_LOG.c ****     * Theory:
1186:Generated_Source\PSoC5/UART_LOG.c ****     *  If there is not enough memory in the TX buffer for the entire string, this
1187:Generated_Source\PSoC5/UART_LOG.c ****     *  function blocks until the last character of the string is loaded into the
1188:Generated_Source\PSoC5/UART_LOG.c ****     *  TX buffer.
1189:Generated_Source\PSoC5/UART_LOG.c ****     *
ARM GAS  C:\Users\rbhar\AppData\Local\Temp\ccaqTdDy.s 			page 37


1190:Generated_Source\PSoC5/UART_LOG.c ****     *******************************************************************************/
1191:Generated_Source\PSoC5/UART_LOG.c ****     void UART_LOG_PutArray(const uint8 string[], uint8 byteCount)
1192:Generated_Source\PSoC5/UART_LOG.c ****                                                                     
1193:Generated_Source\PSoC5/UART_LOG.c ****     {
 854              		.loc 1 1193 0
 855              		.cfi_startproc
 856              		@ args = 0, pretend = 0, frame = 0
 857              		@ frame_needed = 0, uses_anonymous_args = 0
 858              	.LVL50:
1194:Generated_Source\PSoC5/UART_LOG.c ****         uint8 bufIndex = 0u;
1195:Generated_Source\PSoC5/UART_LOG.c **** 
1196:Generated_Source\PSoC5/UART_LOG.c ****         /* If not Initialized then skip this function */
1197:Generated_Source\PSoC5/UART_LOG.c ****         if(UART_LOG_initVar != 0u)
 859              		.loc 1 1197 0
 860 0000 084B     		ldr	r3, .L90
 861 0002 1B78     		ldrb	r3, [r3]	@ zero_extendqisi2
 862 0004 33B9     		cbnz	r3, .L88
 863 0006 7047     		bx	lr
 864              	.LVL51:
 865              	.L87:
 866              		.cfi_def_cfa_offset 16
 867              		.cfi_offset 4, -16
 868              		.cfi_offset 5, -12
 869              		.cfi_offset 6, -8
 870              		.cfi_offset 14, -4
1198:Generated_Source\PSoC5/UART_LOG.c ****         {
1199:Generated_Source\PSoC5/UART_LOG.c ****             while(bufIndex < byteCount)
1200:Generated_Source\PSoC5/UART_LOG.c ****             {
1201:Generated_Source\PSoC5/UART_LOG.c ****                 UART_LOG_PutChar(string[bufIndex]);
 871              		.loc 1 1201 0
 872 0008 305D     		ldrb	r0, [r6, r4]	@ zero_extendqisi2
 873 000a FFF7FEFF 		bl	UART_LOG_PutChar
 874              	.LVL52:
1202:Generated_Source\PSoC5/UART_LOG.c ****                 bufIndex++;
 875              		.loc 1 1202 0
 876 000e 0134     		adds	r4, r4, #1
 877              	.LVL53:
 878 0010 E4B2     		uxtb	r4, r4
 879              	.LVL54:
 880 0012 03E0     		b	.L85
 881              	.LVL55:
 882              	.L88:
 883              		.cfi_def_cfa_offset 0
 884              		.cfi_restore 4
 885              		.cfi_restore 5
 886              		.cfi_restore 6
 887              		.cfi_restore 14
1193:Generated_Source\PSoC5/UART_LOG.c ****         uint8 bufIndex = 0u;
 888              		.loc 1 1193 0
 889 0014 70B5     		push	{r4, r5, r6, lr}
 890              		.cfi_def_cfa_offset 16
 891              		.cfi_offset 4, -16
 892              		.cfi_offset 5, -12
 893              		.cfi_offset 6, -8
 894              		.cfi_offset 14, -4
 895 0016 0D46     		mov	r5, r1
 896 0018 0646     		mov	r6, r0
ARM GAS  C:\Users\rbhar\AppData\Local\Temp\ccaqTdDy.s 			page 38


 897 001a 0024     		movs	r4, #0
 898              	.LVL56:
 899              	.L85:
1199:Generated_Source\PSoC5/UART_LOG.c ****             {
 900              		.loc 1 1199 0
 901 001c AC42     		cmp	r4, r5
 902 001e F3D3     		bcc	.L87
 903 0020 70BD     		pop	{r4, r5, r6, pc}
 904              	.LVL57:
 905              	.L91:
 906 0022 00BF     		.align	2
 907              	.L90:
 908 0024 00000000 		.word	.LANCHOR0
 909              		.cfi_endproc
 910              	.LFE21:
 911              		.size	UART_LOG_PutArray, .-UART_LOG_PutArray
 912              		.section	.text.UART_LOG_PutCRLF,"ax",%progbits
 913              		.align	2
 914              		.global	UART_LOG_PutCRLF
 915              		.thumb
 916              		.thumb_func
 917              		.type	UART_LOG_PutCRLF, %function
 918              	UART_LOG_PutCRLF:
 919              	.LFB22:
1203:Generated_Source\PSoC5/UART_LOG.c ****             }
1204:Generated_Source\PSoC5/UART_LOG.c ****         }
1205:Generated_Source\PSoC5/UART_LOG.c ****     }
1206:Generated_Source\PSoC5/UART_LOG.c **** 
1207:Generated_Source\PSoC5/UART_LOG.c **** 
1208:Generated_Source\PSoC5/UART_LOG.c ****     /*******************************************************************************
1209:Generated_Source\PSoC5/UART_LOG.c ****     * Function Name: UART_LOG_PutCRLF
1210:Generated_Source\PSoC5/UART_LOG.c ****     ********************************************************************************
1211:Generated_Source\PSoC5/UART_LOG.c ****     *
1212:Generated_Source\PSoC5/UART_LOG.c ****     * Summary:
1213:Generated_Source\PSoC5/UART_LOG.c ****     *  Writes a byte of data followed by a carriage return (0x0D) and line feed
1214:Generated_Source\PSoC5/UART_LOG.c ****     *  (0x0A) to the transmit buffer.
1215:Generated_Source\PSoC5/UART_LOG.c ****     *
1216:Generated_Source\PSoC5/UART_LOG.c ****     * Parameters:
1217:Generated_Source\PSoC5/UART_LOG.c ****     *  txDataByte: Data byte to transmit before the carriage return and line feed.
1218:Generated_Source\PSoC5/UART_LOG.c ****     *
1219:Generated_Source\PSoC5/UART_LOG.c ****     * Return:
1220:Generated_Source\PSoC5/UART_LOG.c ****     *  None.
1221:Generated_Source\PSoC5/UART_LOG.c ****     *
1222:Generated_Source\PSoC5/UART_LOG.c ****     * Global Variables:
1223:Generated_Source\PSoC5/UART_LOG.c ****     *  UART_LOG_initVar - checked to identify that the component has been
1224:Generated_Source\PSoC5/UART_LOG.c ****     *     initialized.
1225:Generated_Source\PSoC5/UART_LOG.c ****     *
1226:Generated_Source\PSoC5/UART_LOG.c ****     * Reentrant:
1227:Generated_Source\PSoC5/UART_LOG.c ****     *  No.
1228:Generated_Source\PSoC5/UART_LOG.c ****     *
1229:Generated_Source\PSoC5/UART_LOG.c ****     *******************************************************************************/
1230:Generated_Source\PSoC5/UART_LOG.c ****     void UART_LOG_PutCRLF(uint8 txDataByte) 
1231:Generated_Source\PSoC5/UART_LOG.c ****     {
 920              		.loc 1 1231 0
 921              		.cfi_startproc
 922              		@ args = 0, pretend = 0, frame = 0
 923              		@ frame_needed = 0, uses_anonymous_args = 0
ARM GAS  C:\Users\rbhar\AppData\Local\Temp\ccaqTdDy.s 			page 39


 924              	.LVL58:
 925 0000 08B5     		push	{r3, lr}
 926              		.cfi_def_cfa_offset 8
 927              		.cfi_offset 3, -8
 928              		.cfi_offset 14, -4
1232:Generated_Source\PSoC5/UART_LOG.c ****         /* If not Initialized then skip this function */
1233:Generated_Source\PSoC5/UART_LOG.c ****         if(UART_LOG_initVar != 0u)
 929              		.loc 1 1233 0
 930 0002 064B     		ldr	r3, .L95
 931 0004 1B78     		ldrb	r3, [r3]	@ zero_extendqisi2
 932 0006 3BB1     		cbz	r3, .L92
1234:Generated_Source\PSoC5/UART_LOG.c ****         {
1235:Generated_Source\PSoC5/UART_LOG.c ****             UART_LOG_PutChar(txDataByte);
 933              		.loc 1 1235 0
 934 0008 FFF7FEFF 		bl	UART_LOG_PutChar
 935              	.LVL59:
1236:Generated_Source\PSoC5/UART_LOG.c ****             UART_LOG_PutChar(0x0Du);
 936              		.loc 1 1236 0
 937 000c 0D20     		movs	r0, #13
 938 000e FFF7FEFF 		bl	UART_LOG_PutChar
 939              	.LVL60:
1237:Generated_Source\PSoC5/UART_LOG.c ****             UART_LOG_PutChar(0x0Au);
 940              		.loc 1 1237 0
 941 0012 0A20     		movs	r0, #10
 942 0014 FFF7FEFF 		bl	UART_LOG_PutChar
 943              	.LVL61:
 944              	.L92:
 945 0018 08BD     		pop	{r3, pc}
 946              	.L96:
 947 001a 00BF     		.align	2
 948              	.L95:
 949 001c 00000000 		.word	.LANCHOR0
 950              		.cfi_endproc
 951              	.LFE22:
 952              		.size	UART_LOG_PutCRLF, .-UART_LOG_PutCRLF
 953              		.section	.text.UART_LOG_GetTxBufferSize,"ax",%progbits
 954              		.align	2
 955              		.global	UART_LOG_GetTxBufferSize
 956              		.thumb
 957              		.thumb_func
 958              		.type	UART_LOG_GetTxBufferSize, %function
 959              	UART_LOG_GetTxBufferSize:
 960              	.LFB23:
1238:Generated_Source\PSoC5/UART_LOG.c ****         }
1239:Generated_Source\PSoC5/UART_LOG.c ****     }
1240:Generated_Source\PSoC5/UART_LOG.c **** 
1241:Generated_Source\PSoC5/UART_LOG.c **** 
1242:Generated_Source\PSoC5/UART_LOG.c ****     /*******************************************************************************
1243:Generated_Source\PSoC5/UART_LOG.c ****     * Function Name: UART_LOG_GetTxBufferSize
1244:Generated_Source\PSoC5/UART_LOG.c ****     ********************************************************************************
1245:Generated_Source\PSoC5/UART_LOG.c ****     *
1246:Generated_Source\PSoC5/UART_LOG.c ****     * Summary:
1247:Generated_Source\PSoC5/UART_LOG.c ****     *  Returns the number of bytes in the TX buffer which are waiting to be 
1248:Generated_Source\PSoC5/UART_LOG.c ****     *  transmitted.
1249:Generated_Source\PSoC5/UART_LOG.c ****     *  * TX software buffer is disabled (TX Buffer Size parameter is equal to 4): 
1250:Generated_Source\PSoC5/UART_LOG.c ****     *    returns 0 for empty TX FIFO, 1 for not full TX FIFO or 4 for full TX FIFO.
1251:Generated_Source\PSoC5/UART_LOG.c ****     *  * TX software buffer is enabled: returns the number of bytes in the TX 
ARM GAS  C:\Users\rbhar\AppData\Local\Temp\ccaqTdDy.s 			page 40


1252:Generated_Source\PSoC5/UART_LOG.c ****     *    software buffer which are waiting to be transmitted. Bytes available in the
1253:Generated_Source\PSoC5/UART_LOG.c ****     *    TX FIFO do not count.
1254:Generated_Source\PSoC5/UART_LOG.c ****     *
1255:Generated_Source\PSoC5/UART_LOG.c ****     * Parameters:
1256:Generated_Source\PSoC5/UART_LOG.c ****     *  None.
1257:Generated_Source\PSoC5/UART_LOG.c ****     *
1258:Generated_Source\PSoC5/UART_LOG.c ****     * Return:
1259:Generated_Source\PSoC5/UART_LOG.c ****     *  Number of bytes used in the TX buffer. Return value type depends on the TX 
1260:Generated_Source\PSoC5/UART_LOG.c ****     *  Buffer Size parameter.
1261:Generated_Source\PSoC5/UART_LOG.c ****     *
1262:Generated_Source\PSoC5/UART_LOG.c ****     * Global Variables:
1263:Generated_Source\PSoC5/UART_LOG.c ****     *  UART_LOG_txBufferWrite - used to calculate left space.
1264:Generated_Source\PSoC5/UART_LOG.c ****     *  UART_LOG_txBufferRead - used to calculate left space.
1265:Generated_Source\PSoC5/UART_LOG.c ****     *
1266:Generated_Source\PSoC5/UART_LOG.c ****     * Reentrant:
1267:Generated_Source\PSoC5/UART_LOG.c ****     *  No.
1268:Generated_Source\PSoC5/UART_LOG.c ****     *
1269:Generated_Source\PSoC5/UART_LOG.c ****     * Theory:
1270:Generated_Source\PSoC5/UART_LOG.c ****     *  Allows the user to find out how full the TX Buffer is.
1271:Generated_Source\PSoC5/UART_LOG.c ****     *
1272:Generated_Source\PSoC5/UART_LOG.c ****     *******************************************************************************/
1273:Generated_Source\PSoC5/UART_LOG.c ****     uint8 UART_LOG_GetTxBufferSize(void)
1274:Generated_Source\PSoC5/UART_LOG.c ****                                                             
1275:Generated_Source\PSoC5/UART_LOG.c ****     {
 961              		.loc 1 1275 0
 962              		.cfi_startproc
 963              		@ args = 0, pretend = 0, frame = 0
 964              		@ frame_needed = 0, uses_anonymous_args = 0
 965              		@ link register save eliminated.
1276:Generated_Source\PSoC5/UART_LOG.c ****         uint8 size;
1277:Generated_Source\PSoC5/UART_LOG.c **** 
1278:Generated_Source\PSoC5/UART_LOG.c ****     #if (UART_LOG_TX_INTERRUPT_ENABLED)
1279:Generated_Source\PSoC5/UART_LOG.c **** 
1280:Generated_Source\PSoC5/UART_LOG.c ****         /* Protect variables that could change on interrupt. */
1281:Generated_Source\PSoC5/UART_LOG.c ****         UART_LOG_DisableTxInt();
 966              		.loc 1 1281 0
 967 0000 0122     		movs	r2, #1
 968 0002 0E4B     		ldr	r3, .L101
 969 0004 1A60     		str	r2, [r3]
1282:Generated_Source\PSoC5/UART_LOG.c **** 
1283:Generated_Source\PSoC5/UART_LOG.c ****         if(UART_LOG_txBufferRead == UART_LOG_txBufferWrite)
 970              		.loc 1 1283 0
 971 0006 0E4B     		ldr	r3, .L101+4
 972 0008 5A78     		ldrb	r2, [r3, #1]	@ zero_extendqisi2
 973 000a D2B2     		uxtb	r2, r2
 974 000c 9B78     		ldrb	r3, [r3, #2]	@ zero_extendqisi2
 975 000e 9A42     		cmp	r2, r3
 976 0010 0FD0     		beq	.L100
1284:Generated_Source\PSoC5/UART_LOG.c ****         {
1285:Generated_Source\PSoC5/UART_LOG.c ****             size = 0u;
1286:Generated_Source\PSoC5/UART_LOG.c ****         }
1287:Generated_Source\PSoC5/UART_LOG.c ****         else if(UART_LOG_txBufferRead < UART_LOG_txBufferWrite)
 977              		.loc 1 1287 0
 978 0012 0B4A     		ldr	r2, .L101+4
 979 0014 5278     		ldrb	r2, [r2, #1]	@ zero_extendqisi2
 980 0016 D2B2     		uxtb	r2, r2
 981 0018 9342     		cmp	r3, r2
ARM GAS  C:\Users\rbhar\AppData\Local\Temp\ccaqTdDy.s 			page 41


 982 001a 04D9     		bls	.L99
1288:Generated_Source\PSoC5/UART_LOG.c ****         {
1289:Generated_Source\PSoC5/UART_LOG.c ****             size = (UART_LOG_txBufferWrite - UART_LOG_txBufferRead);
 983              		.loc 1 1289 0
 984 001c 084A     		ldr	r2, .L101+4
 985 001e 5078     		ldrb	r0, [r2, #1]	@ zero_extendqisi2
 986 0020 181A     		subs	r0, r3, r0
 987 0022 C0B2     		uxtb	r0, r0
 988              	.LVL62:
 989 0024 06E0     		b	.L98
 990              	.LVL63:
 991              	.L99:
1290:Generated_Source\PSoC5/UART_LOG.c ****         }
1291:Generated_Source\PSoC5/UART_LOG.c ****         else
1292:Generated_Source\PSoC5/UART_LOG.c ****         {
1293:Generated_Source\PSoC5/UART_LOG.c ****             size = (UART_LOG_TX_BUFFER_SIZE - UART_LOG_txBufferRead) +
 992              		.loc 1 1293 0
 993 0026 064A     		ldr	r2, .L101+4
 994 0028 5078     		ldrb	r0, [r2, #1]	@ zero_extendqisi2
 995 002a 181A     		subs	r0, r3, r0
 996 002c 1030     		adds	r0, r0, #16
 997 002e C0B2     		uxtb	r0, r0
 998              	.LVL64:
 999 0030 00E0     		b	.L98
 1000              	.LVL65:
 1001              	.L100:
1285:Generated_Source\PSoC5/UART_LOG.c ****         }
 1002              		.loc 1 1285 0
 1003 0032 0020     		movs	r0, #0
 1004              	.L98:
 1005              	.LVL66:
1294:Generated_Source\PSoC5/UART_LOG.c ****                     UART_LOG_txBufferWrite;
1295:Generated_Source\PSoC5/UART_LOG.c ****         }
1296:Generated_Source\PSoC5/UART_LOG.c **** 
1297:Generated_Source\PSoC5/UART_LOG.c ****         UART_LOG_EnableTxInt();
 1006              		.loc 1 1297 0
 1007 0034 0122     		movs	r2, #1
 1008 0036 034B     		ldr	r3, .L101+8
 1009 0038 1A60     		str	r2, [r3]
1298:Generated_Source\PSoC5/UART_LOG.c **** 
1299:Generated_Source\PSoC5/UART_LOG.c ****     #else
1300:Generated_Source\PSoC5/UART_LOG.c **** 
1301:Generated_Source\PSoC5/UART_LOG.c ****         size = UART_LOG_TXSTATUS_REG;
1302:Generated_Source\PSoC5/UART_LOG.c **** 
1303:Generated_Source\PSoC5/UART_LOG.c ****         /* Is the fifo is full. */
1304:Generated_Source\PSoC5/UART_LOG.c ****         if((size & UART_LOG_TX_STS_FIFO_FULL) != 0u)
1305:Generated_Source\PSoC5/UART_LOG.c ****         {
1306:Generated_Source\PSoC5/UART_LOG.c ****             size = UART_LOG_FIFO_LENGTH;
1307:Generated_Source\PSoC5/UART_LOG.c ****         }
1308:Generated_Source\PSoC5/UART_LOG.c ****         else if((size & UART_LOG_TX_STS_FIFO_EMPTY) != 0u)
1309:Generated_Source\PSoC5/UART_LOG.c ****         {
1310:Generated_Source\PSoC5/UART_LOG.c ****             size = 0u;
1311:Generated_Source\PSoC5/UART_LOG.c ****         }
1312:Generated_Source\PSoC5/UART_LOG.c ****         else
1313:Generated_Source\PSoC5/UART_LOG.c ****         {
1314:Generated_Source\PSoC5/UART_LOG.c ****             /* We only know there is data in the fifo. */
1315:Generated_Source\PSoC5/UART_LOG.c ****             size = 1u;
ARM GAS  C:\Users\rbhar\AppData\Local\Temp\ccaqTdDy.s 			page 42


1316:Generated_Source\PSoC5/UART_LOG.c ****         }
1317:Generated_Source\PSoC5/UART_LOG.c **** 
1318:Generated_Source\PSoC5/UART_LOG.c ****     #endif /* (UART_LOG_TX_INTERRUPT_ENABLED) */
1319:Generated_Source\PSoC5/UART_LOG.c **** 
1320:Generated_Source\PSoC5/UART_LOG.c ****     return(size);
1321:Generated_Source\PSoC5/UART_LOG.c ****     }
 1010              		.loc 1 1321 0
 1011 003a 7047     		bx	lr
 1012              	.L102:
 1013              		.align	2
 1014              	.L101:
 1015 003c 80E100E0 		.word	-536813184
 1016 0040 00000000 		.word	.LANCHOR0
 1017 0044 00E100E0 		.word	-536813312
 1018              		.cfi_endproc
 1019              	.LFE23:
 1020              		.size	UART_LOG_GetTxBufferSize, .-UART_LOG_GetTxBufferSize
 1021              		.section	.text.UART_LOG_ClearTxBuffer,"ax",%progbits
 1022              		.align	2
 1023              		.global	UART_LOG_ClearTxBuffer
 1024              		.thumb
 1025              		.thumb_func
 1026              		.type	UART_LOG_ClearTxBuffer, %function
 1027              	UART_LOG_ClearTxBuffer:
 1028              	.LFB24:
1322:Generated_Source\PSoC5/UART_LOG.c **** 
1323:Generated_Source\PSoC5/UART_LOG.c **** 
1324:Generated_Source\PSoC5/UART_LOG.c ****     /*******************************************************************************
1325:Generated_Source\PSoC5/UART_LOG.c ****     * Function Name: UART_LOG_ClearTxBuffer
1326:Generated_Source\PSoC5/UART_LOG.c ****     ********************************************************************************
1327:Generated_Source\PSoC5/UART_LOG.c ****     *
1328:Generated_Source\PSoC5/UART_LOG.c ****     * Summary:
1329:Generated_Source\PSoC5/UART_LOG.c ****     *  Clears all data from the TX buffer and hardware TX FIFO.
1330:Generated_Source\PSoC5/UART_LOG.c ****     *
1331:Generated_Source\PSoC5/UART_LOG.c ****     * Parameters:
1332:Generated_Source\PSoC5/UART_LOG.c ****     *  None.
1333:Generated_Source\PSoC5/UART_LOG.c ****     *
1334:Generated_Source\PSoC5/UART_LOG.c ****     * Return:
1335:Generated_Source\PSoC5/UART_LOG.c ****     *  None.
1336:Generated_Source\PSoC5/UART_LOG.c ****     *
1337:Generated_Source\PSoC5/UART_LOG.c ****     * Global Variables:
1338:Generated_Source\PSoC5/UART_LOG.c ****     *  UART_LOG_txBufferWrite - cleared to zero.
1339:Generated_Source\PSoC5/UART_LOG.c ****     *  UART_LOG_txBufferRead - cleared to zero.
1340:Generated_Source\PSoC5/UART_LOG.c ****     *
1341:Generated_Source\PSoC5/UART_LOG.c ****     * Reentrant:
1342:Generated_Source\PSoC5/UART_LOG.c ****     *  No.
1343:Generated_Source\PSoC5/UART_LOG.c ****     *
1344:Generated_Source\PSoC5/UART_LOG.c ****     * Theory:
1345:Generated_Source\PSoC5/UART_LOG.c ****     *  Setting the pointers to zero makes the system believe there is no data to
1346:Generated_Source\PSoC5/UART_LOG.c ****     *  read and writing will resume at address 0 overwriting any data that may have
1347:Generated_Source\PSoC5/UART_LOG.c ****     *  remained in the RAM.
1348:Generated_Source\PSoC5/UART_LOG.c ****     *
1349:Generated_Source\PSoC5/UART_LOG.c ****     * Side Effects:
1350:Generated_Source\PSoC5/UART_LOG.c ****     *  Data waiting in the transmit buffer is not sent; a byte that is currently
1351:Generated_Source\PSoC5/UART_LOG.c ****     *  transmitting finishes transmitting.
1352:Generated_Source\PSoC5/UART_LOG.c ****     *
1353:Generated_Source\PSoC5/UART_LOG.c ****     *******************************************************************************/
ARM GAS  C:\Users\rbhar\AppData\Local\Temp\ccaqTdDy.s 			page 43


1354:Generated_Source\PSoC5/UART_LOG.c ****     void UART_LOG_ClearTxBuffer(void) 
1355:Generated_Source\PSoC5/UART_LOG.c ****     {
 1029              		.loc 1 1355 0
 1030              		.cfi_startproc
 1031              		@ args = 0, pretend = 0, frame = 0
 1032              		@ frame_needed = 0, uses_anonymous_args = 0
 1033 0000 08B5     		push	{r3, lr}
 1034              		.cfi_def_cfa_offset 8
 1035              		.cfi_offset 3, -8
 1036              		.cfi_offset 14, -4
1356:Generated_Source\PSoC5/UART_LOG.c ****         uint8 enableInterrupts;
1357:Generated_Source\PSoC5/UART_LOG.c **** 
1358:Generated_Source\PSoC5/UART_LOG.c ****         enableInterrupts = CyEnterCriticalSection();
 1037              		.loc 1 1358 0
 1038 0002 FFF7FEFF 		bl	CyEnterCriticalSection
 1039              	.LVL67:
1359:Generated_Source\PSoC5/UART_LOG.c ****         /* Clear the HW FIFO */
1360:Generated_Source\PSoC5/UART_LOG.c ****         UART_LOG_TXDATA_AUX_CTL_REG |= (uint8)  UART_LOG_TX_FIFO_CLR;
 1040              		.loc 1 1360 0
 1041 0006 0A4B     		ldr	r3, .L105
 1042 0008 1A78     		ldrb	r2, [r3]	@ zero_extendqisi2
 1043 000a 42F00102 		orr	r2, r2, #1
 1044 000e 1A70     		strb	r2, [r3]
1361:Generated_Source\PSoC5/UART_LOG.c ****         UART_LOG_TXDATA_AUX_CTL_REG &= (uint8) ~UART_LOG_TX_FIFO_CLR;
 1045              		.loc 1 1361 0
 1046 0010 1A78     		ldrb	r2, [r3]	@ zero_extendqisi2
 1047 0012 02F0FE02 		and	r2, r2, #254
 1048 0016 1A70     		strb	r2, [r3]
1362:Generated_Source\PSoC5/UART_LOG.c ****         CyExitCriticalSection(enableInterrupts);
 1049              		.loc 1 1362 0
 1050 0018 FFF7FEFF 		bl	CyExitCriticalSection
 1051              	.LVL68:
1363:Generated_Source\PSoC5/UART_LOG.c **** 
1364:Generated_Source\PSoC5/UART_LOG.c ****     #if (UART_LOG_TX_INTERRUPT_ENABLED)
1365:Generated_Source\PSoC5/UART_LOG.c **** 
1366:Generated_Source\PSoC5/UART_LOG.c ****         /* Protect variables that could change on interrupt. */
1367:Generated_Source\PSoC5/UART_LOG.c ****         UART_LOG_DisableTxInt();
 1052              		.loc 1 1367 0
 1053 001c 0123     		movs	r3, #1
 1054 001e 054A     		ldr	r2, .L105+4
 1055 0020 1360     		str	r3, [r2]
1368:Generated_Source\PSoC5/UART_LOG.c **** 
1369:Generated_Source\PSoC5/UART_LOG.c ****         UART_LOG_txBufferRead = 0u;
 1056              		.loc 1 1369 0
 1057 0022 054A     		ldr	r2, .L105+8
 1058 0024 0021     		movs	r1, #0
 1059 0026 5170     		strb	r1, [r2, #1]
1370:Generated_Source\PSoC5/UART_LOG.c ****         UART_LOG_txBufferWrite = 0u;
 1060              		.loc 1 1370 0
 1061 0028 9170     		strb	r1, [r2, #2]
1371:Generated_Source\PSoC5/UART_LOG.c **** 
1372:Generated_Source\PSoC5/UART_LOG.c ****         /* Enable Tx interrupt. */
1373:Generated_Source\PSoC5/UART_LOG.c ****         UART_LOG_EnableTxInt();
 1062              		.loc 1 1373 0
 1063 002a 044A     		ldr	r2, .L105+12
 1064 002c 1360     		str	r3, [r2]
 1065 002e 08BD     		pop	{r3, pc}
ARM GAS  C:\Users\rbhar\AppData\Local\Temp\ccaqTdDy.s 			page 44


 1066              	.L106:
 1067              		.align	2
 1068              	.L105:
 1069 0030 90640040 		.word	1073767568
 1070 0034 80E100E0 		.word	-536813184
 1071 0038 00000000 		.word	.LANCHOR0
 1072 003c 00E100E0 		.word	-536813312
 1073              		.cfi_endproc
 1074              	.LFE24:
 1075              		.size	UART_LOG_ClearTxBuffer, .-UART_LOG_ClearTxBuffer
 1076              		.section	.text.UART_LOG_SendBreak,"ax",%progbits
 1077              		.align	2
 1078              		.global	UART_LOG_SendBreak
 1079              		.thumb
 1080              		.thumb_func
 1081              		.type	UART_LOG_SendBreak, %function
 1082              	UART_LOG_SendBreak:
 1083              	.LFB25:
1374:Generated_Source\PSoC5/UART_LOG.c **** 
1375:Generated_Source\PSoC5/UART_LOG.c ****     #endif /* (UART_LOG_TX_INTERRUPT_ENABLED) */
1376:Generated_Source\PSoC5/UART_LOG.c ****     }
1377:Generated_Source\PSoC5/UART_LOG.c **** 
1378:Generated_Source\PSoC5/UART_LOG.c **** 
1379:Generated_Source\PSoC5/UART_LOG.c ****     /*******************************************************************************
1380:Generated_Source\PSoC5/UART_LOG.c ****     * Function Name: UART_LOG_SendBreak
1381:Generated_Source\PSoC5/UART_LOG.c ****     ********************************************************************************
1382:Generated_Source\PSoC5/UART_LOG.c ****     *
1383:Generated_Source\PSoC5/UART_LOG.c ****     * Summary:
1384:Generated_Source\PSoC5/UART_LOG.c ****     *  Transmits a break signal on the bus.
1385:Generated_Source\PSoC5/UART_LOG.c ****     *
1386:Generated_Source\PSoC5/UART_LOG.c ****     * Parameters:
1387:Generated_Source\PSoC5/UART_LOG.c ****     *  uint8 retMode:  Send Break return mode. See the following table for options.
1388:Generated_Source\PSoC5/UART_LOG.c ****     *   UART_LOG_SEND_BREAK - Initialize registers for break, send the Break
1389:Generated_Source\PSoC5/UART_LOG.c ****     *       signal and return immediately.
1390:Generated_Source\PSoC5/UART_LOG.c ****     *   UART_LOG_WAIT_FOR_COMPLETE_REINIT - Wait until break transmission is
1391:Generated_Source\PSoC5/UART_LOG.c ****     *       complete, reinitialize registers to normal transmission mode then return
1392:Generated_Source\PSoC5/UART_LOG.c ****     *   UART_LOG_REINIT - Reinitialize registers to normal transmission mode
1393:Generated_Source\PSoC5/UART_LOG.c ****     *       then return.
1394:Generated_Source\PSoC5/UART_LOG.c ****     *   UART_LOG_SEND_WAIT_REINIT - Performs both options: 
1395:Generated_Source\PSoC5/UART_LOG.c ****     *      UART_LOG_SEND_BREAK and UART_LOG_WAIT_FOR_COMPLETE_REINIT.
1396:Generated_Source\PSoC5/UART_LOG.c ****     *      This option is recommended for most cases.
1397:Generated_Source\PSoC5/UART_LOG.c ****     *
1398:Generated_Source\PSoC5/UART_LOG.c ****     * Return:
1399:Generated_Source\PSoC5/UART_LOG.c ****     *  None.
1400:Generated_Source\PSoC5/UART_LOG.c ****     *
1401:Generated_Source\PSoC5/UART_LOG.c ****     * Global Variables:
1402:Generated_Source\PSoC5/UART_LOG.c ****     *  UART_LOG_initVar - checked to identify that the component has been
1403:Generated_Source\PSoC5/UART_LOG.c ****     *     initialized.
1404:Generated_Source\PSoC5/UART_LOG.c ****     *  txPeriod - static variable, used for keeping TX period configuration.
1405:Generated_Source\PSoC5/UART_LOG.c ****     *
1406:Generated_Source\PSoC5/UART_LOG.c ****     * Reentrant:
1407:Generated_Source\PSoC5/UART_LOG.c ****     *  No.
1408:Generated_Source\PSoC5/UART_LOG.c ****     *
1409:Generated_Source\PSoC5/UART_LOG.c ****     * Theory:
1410:Generated_Source\PSoC5/UART_LOG.c ****     *  SendBreak function initializes registers to send 13-bit break signal. It is
1411:Generated_Source\PSoC5/UART_LOG.c ****     *  important to return the registers configuration to normal for continue 8-bit
1412:Generated_Source\PSoC5/UART_LOG.c ****     *  operation.
ARM GAS  C:\Users\rbhar\AppData\Local\Temp\ccaqTdDy.s 			page 45


1413:Generated_Source\PSoC5/UART_LOG.c ****     *  There are 3 variants for this API usage:
1414:Generated_Source\PSoC5/UART_LOG.c ****     *  1) SendBreak(3) - function will send the Break signal and take care on the
1415:Generated_Source\PSoC5/UART_LOG.c ****     *     configuration returning. Function will block CPU until transmission
1416:Generated_Source\PSoC5/UART_LOG.c ****     *     complete.
1417:Generated_Source\PSoC5/UART_LOG.c ****     *  2) User may want to use blocking time if UART configured to the low speed
1418:Generated_Source\PSoC5/UART_LOG.c ****     *     operation
1419:Generated_Source\PSoC5/UART_LOG.c ****     *     Example for this case:
1420:Generated_Source\PSoC5/UART_LOG.c ****     *     SendBreak(0);     - initialize Break signal transmission
1421:Generated_Source\PSoC5/UART_LOG.c ****     *         Add your code here to use CPU time
1422:Generated_Source\PSoC5/UART_LOG.c ****     *     SendBreak(1);     - complete Break operation
1423:Generated_Source\PSoC5/UART_LOG.c ****     *  3) Same to 2) but user may want to initialize and use the interrupt to
1424:Generated_Source\PSoC5/UART_LOG.c ****     *     complete break operation.
1425:Generated_Source\PSoC5/UART_LOG.c ****     *     Example for this case:
1426:Generated_Source\PSoC5/UART_LOG.c ****     *     Initialize TX interrupt with "TX - On TX Complete" parameter
1427:Generated_Source\PSoC5/UART_LOG.c ****     *     SendBreak(0);     - initialize Break signal transmission
1428:Generated_Source\PSoC5/UART_LOG.c ****     *         Add your code here to use CPU time
1429:Generated_Source\PSoC5/UART_LOG.c ****     *     When interrupt appear with UART_LOG_TX_STS_COMPLETE status:
1430:Generated_Source\PSoC5/UART_LOG.c ****     *     SendBreak(2);     - complete Break operation
1431:Generated_Source\PSoC5/UART_LOG.c ****     *
1432:Generated_Source\PSoC5/UART_LOG.c ****     * Side Effects:
1433:Generated_Source\PSoC5/UART_LOG.c ****     *  The UART_LOG_SendBreak() function initializes registers to send a
1434:Generated_Source\PSoC5/UART_LOG.c ****     *  break signal.
1435:Generated_Source\PSoC5/UART_LOG.c ****     *  Break signal length depends on the break signal bits configuration.
1436:Generated_Source\PSoC5/UART_LOG.c ****     *  The register configuration should be reinitialized before normal 8-bit
1437:Generated_Source\PSoC5/UART_LOG.c ****     *  communication can continue.
1438:Generated_Source\PSoC5/UART_LOG.c ****     *
1439:Generated_Source\PSoC5/UART_LOG.c ****     *******************************************************************************/
1440:Generated_Source\PSoC5/UART_LOG.c ****     void UART_LOG_SendBreak(uint8 retMode) 
1441:Generated_Source\PSoC5/UART_LOG.c ****     {
 1084              		.loc 1 1441 0
 1085              		.cfi_startproc
 1086              		@ args = 0, pretend = 0, frame = 0
 1087              		@ frame_needed = 0, uses_anonymous_args = 0
 1088              		@ link register save eliminated.
 1089              	.LVL69:
1442:Generated_Source\PSoC5/UART_LOG.c **** 
1443:Generated_Source\PSoC5/UART_LOG.c ****         /* If not Initialized then skip this function*/
1444:Generated_Source\PSoC5/UART_LOG.c ****         if(UART_LOG_initVar != 0u)
 1090              		.loc 1 1444 0
 1091 0000 124B     		ldr	r3, .L114
 1092 0002 1B78     		ldrb	r3, [r3]	@ zero_extendqisi2
 1093 0004 0BB3     		cbz	r3, .L107
 1094              	.LBB2:
1445:Generated_Source\PSoC5/UART_LOG.c ****         {
1446:Generated_Source\PSoC5/UART_LOG.c ****             /* Set the Counter to 13-bits and transmit a 00 byte */
1447:Generated_Source\PSoC5/UART_LOG.c ****             /* When that is done then reset the counter value back */
1448:Generated_Source\PSoC5/UART_LOG.c ****             uint8 tmpStat;
1449:Generated_Source\PSoC5/UART_LOG.c **** 
1450:Generated_Source\PSoC5/UART_LOG.c ****         #if(UART_LOG_HD_ENABLED) /* Half Duplex mode*/
1451:Generated_Source\PSoC5/UART_LOG.c **** 
1452:Generated_Source\PSoC5/UART_LOG.c ****             if( (retMode == UART_LOG_SEND_BREAK) ||
1453:Generated_Source\PSoC5/UART_LOG.c ****                 (retMode == UART_LOG_SEND_WAIT_REINIT ) )
1454:Generated_Source\PSoC5/UART_LOG.c ****             {
1455:Generated_Source\PSoC5/UART_LOG.c ****                 /* CTRL_HD_SEND_BREAK - sends break bits in HD mode */
1456:Generated_Source\PSoC5/UART_LOG.c ****                 UART_LOG_WriteControlRegister(UART_LOG_ReadControlRegister() |
1457:Generated_Source\PSoC5/UART_LOG.c ****                                                       UART_LOG_CTRL_HD_SEND_BREAK);
1458:Generated_Source\PSoC5/UART_LOG.c ****                 /* Send zeros */
ARM GAS  C:\Users\rbhar\AppData\Local\Temp\ccaqTdDy.s 			page 46


1459:Generated_Source\PSoC5/UART_LOG.c ****                 UART_LOG_TXDATA_REG = 0u;
1460:Generated_Source\PSoC5/UART_LOG.c **** 
1461:Generated_Source\PSoC5/UART_LOG.c ****                 do /* Wait until transmit starts */
1462:Generated_Source\PSoC5/UART_LOG.c ****                 {
1463:Generated_Source\PSoC5/UART_LOG.c ****                     tmpStat = UART_LOG_TXSTATUS_REG;
1464:Generated_Source\PSoC5/UART_LOG.c ****                 }
1465:Generated_Source\PSoC5/UART_LOG.c ****                 while((tmpStat & UART_LOG_TX_STS_FIFO_EMPTY) != 0u);
1466:Generated_Source\PSoC5/UART_LOG.c ****             }
1467:Generated_Source\PSoC5/UART_LOG.c **** 
1468:Generated_Source\PSoC5/UART_LOG.c ****             if( (retMode == UART_LOG_WAIT_FOR_COMPLETE_REINIT) ||
1469:Generated_Source\PSoC5/UART_LOG.c ****                 (retMode == UART_LOG_SEND_WAIT_REINIT) )
1470:Generated_Source\PSoC5/UART_LOG.c ****             {
1471:Generated_Source\PSoC5/UART_LOG.c ****                 do /* Wait until transmit complete */
1472:Generated_Source\PSoC5/UART_LOG.c ****                 {
1473:Generated_Source\PSoC5/UART_LOG.c ****                     tmpStat = UART_LOG_TXSTATUS_REG;
1474:Generated_Source\PSoC5/UART_LOG.c ****                 }
1475:Generated_Source\PSoC5/UART_LOG.c ****                 while(((uint8)~tmpStat & UART_LOG_TX_STS_COMPLETE) != 0u);
1476:Generated_Source\PSoC5/UART_LOG.c ****             }
1477:Generated_Source\PSoC5/UART_LOG.c **** 
1478:Generated_Source\PSoC5/UART_LOG.c ****             if( (retMode == UART_LOG_WAIT_FOR_COMPLETE_REINIT) ||
1479:Generated_Source\PSoC5/UART_LOG.c ****                 (retMode == UART_LOG_REINIT) ||
1480:Generated_Source\PSoC5/UART_LOG.c ****                 (retMode == UART_LOG_SEND_WAIT_REINIT) )
1481:Generated_Source\PSoC5/UART_LOG.c ****             {
1482:Generated_Source\PSoC5/UART_LOG.c ****                 UART_LOG_WriteControlRegister(UART_LOG_ReadControlRegister() &
1483:Generated_Source\PSoC5/UART_LOG.c ****                                               (uint8)~UART_LOG_CTRL_HD_SEND_BREAK);
1484:Generated_Source\PSoC5/UART_LOG.c ****             }
1485:Generated_Source\PSoC5/UART_LOG.c **** 
1486:Generated_Source\PSoC5/UART_LOG.c ****         #else /* UART_LOG_HD_ENABLED Full Duplex mode */
1487:Generated_Source\PSoC5/UART_LOG.c **** 
1488:Generated_Source\PSoC5/UART_LOG.c ****             static uint8 txPeriod;
1489:Generated_Source\PSoC5/UART_LOG.c **** 
1490:Generated_Source\PSoC5/UART_LOG.c ****             if( (retMode == UART_LOG_SEND_BREAK) ||
 1095              		.loc 1 1490 0
 1096 0006 08B1     		cbz	r0, .L109
 1097              		.loc 1 1490 0 is_stmt 0 discriminator 1
 1098 0008 0328     		cmp	r0, #3
 1099 000a 0DD1     		bne	.L110
 1100              	.L109:
1491:Generated_Source\PSoC5/UART_LOG.c ****                 (retMode == UART_LOG_SEND_WAIT_REINIT) )
1492:Generated_Source\PSoC5/UART_LOG.c ****             {
1493:Generated_Source\PSoC5/UART_LOG.c ****                 /* CTRL_HD_SEND_BREAK - skip to send parity bit at Break signal in Full Duplex mode
1494:Generated_Source\PSoC5/UART_LOG.c ****                 #if( (UART_LOG_PARITY_TYPE != UART_LOG__B_UART__NONE_REVB) || \
1495:Generated_Source\PSoC5/UART_LOG.c ****                                     (UART_LOG_PARITY_TYPE_SW != 0u) )
1496:Generated_Source\PSoC5/UART_LOG.c ****                     UART_LOG_WriteControlRegister(UART_LOG_ReadControlRegister() |
1497:Generated_Source\PSoC5/UART_LOG.c ****                                                           UART_LOG_CTRL_HD_SEND_BREAK);
1498:Generated_Source\PSoC5/UART_LOG.c ****                 #endif /* End UART_LOG_PARITY_TYPE != UART_LOG__B_UART__NONE_REVB  */
1499:Generated_Source\PSoC5/UART_LOG.c **** 
1500:Generated_Source\PSoC5/UART_LOG.c ****                 #if(UART_LOG_TXCLKGEN_DP)
1501:Generated_Source\PSoC5/UART_LOG.c ****                     txPeriod = UART_LOG_TXBITCLKTX_COMPLETE_REG;
 1101              		.loc 1 1501 0 is_stmt 1
 1102 000c 104B     		ldr	r3, .L114+4
 1103 000e 1978     		ldrb	r1, [r3]	@ zero_extendqisi2
 1104 0010 0E4A     		ldr	r2, .L114
 1105 0012 D170     		strb	r1, [r2, #3]
1502:Generated_Source\PSoC5/UART_LOG.c ****                     UART_LOG_TXBITCLKTX_COMPLETE_REG = UART_LOG_TXBITCTR_BREAKBITS;
 1106              		.loc 1 1502 0
 1107 0014 6722     		movs	r2, #103
ARM GAS  C:\Users\rbhar\AppData\Local\Temp\ccaqTdDy.s 			page 47


 1108 0016 1A70     		strb	r2, [r3]
1503:Generated_Source\PSoC5/UART_LOG.c ****                 #else
1504:Generated_Source\PSoC5/UART_LOG.c ****                     txPeriod = UART_LOG_TXBITCTR_PERIOD_REG;
1505:Generated_Source\PSoC5/UART_LOG.c ****                     UART_LOG_TXBITCTR_PERIOD_REG = UART_LOG_TXBITCTR_BREAKBITS8X;
1506:Generated_Source\PSoC5/UART_LOG.c ****                 #endif /* End UART_LOG_TXCLKGEN_DP */
1507:Generated_Source\PSoC5/UART_LOG.c **** 
1508:Generated_Source\PSoC5/UART_LOG.c ****                 /* Send zeros */
1509:Generated_Source\PSoC5/UART_LOG.c ****                 UART_LOG_TXDATA_REG = 0u;
 1109              		.loc 1 1509 0
 1110 0018 0022     		movs	r2, #0
 1111 001a 0D33     		adds	r3, r3, #13
 1112 001c 1A70     		strb	r2, [r3]
 1113              	.L111:
1510:Generated_Source\PSoC5/UART_LOG.c **** 
1511:Generated_Source\PSoC5/UART_LOG.c ****                 do /* Wait until transmit starts */
1512:Generated_Source\PSoC5/UART_LOG.c ****                 {
1513:Generated_Source\PSoC5/UART_LOG.c ****                     tmpStat = UART_LOG_TXSTATUS_REG;
 1114              		.loc 1 1513 0 discriminator 1
 1115 001e 0D4B     		ldr	r3, .L114+8
 1116 0020 1B78     		ldrb	r3, [r3]	@ zero_extendqisi2
 1117              	.LVL70:
1514:Generated_Source\PSoC5/UART_LOG.c ****                 }
1515:Generated_Source\PSoC5/UART_LOG.c ****                 while((tmpStat & UART_LOG_TX_STS_FIFO_EMPTY) != 0u);
 1118              		.loc 1 1515 0 discriminator 1
 1119 0022 13F0020F 		tst	r3, #2
 1120 0026 FAD1     		bne	.L111
 1121              	.LVL71:
 1122              	.L110:
1516:Generated_Source\PSoC5/UART_LOG.c ****             }
1517:Generated_Source\PSoC5/UART_LOG.c **** 
1518:Generated_Source\PSoC5/UART_LOG.c ****             if( (retMode == UART_LOG_WAIT_FOR_COMPLETE_REINIT) ||
 1123              		.loc 1 1518 0
 1124 0028 0128     		cmp	r0, #1
 1125 002a 01D0     		beq	.L112
 1126              		.loc 1 1518 0 is_stmt 0 discriminator 1
 1127 002c 0328     		cmp	r0, #3
 1128 002e 04D1     		bne	.L113
 1129              	.L112:
1519:Generated_Source\PSoC5/UART_LOG.c ****                 (retMode == UART_LOG_SEND_WAIT_REINIT) )
1520:Generated_Source\PSoC5/UART_LOG.c ****             {
1521:Generated_Source\PSoC5/UART_LOG.c ****                 do /* Wait until transmit complete */
1522:Generated_Source\PSoC5/UART_LOG.c ****                 {
1523:Generated_Source\PSoC5/UART_LOG.c ****                     tmpStat = UART_LOG_TXSTATUS_REG;
 1130              		.loc 1 1523 0 is_stmt 1 discriminator 1
 1131 0030 084B     		ldr	r3, .L114+8
 1132 0032 1B78     		ldrb	r3, [r3]	@ zero_extendqisi2
 1133              	.LVL72:
1524:Generated_Source\PSoC5/UART_LOG.c ****                 }
1525:Generated_Source\PSoC5/UART_LOG.c ****                 while(((uint8)~tmpStat & UART_LOG_TX_STS_COMPLETE) != 0u);
 1134              		.loc 1 1525 0 discriminator 1
 1135 0034 13F0010F 		tst	r3, #1
 1136 0038 FAD0     		beq	.L112
 1137              	.LVL73:
 1138              	.L113:
1526:Generated_Source\PSoC5/UART_LOG.c ****             }
1527:Generated_Source\PSoC5/UART_LOG.c **** 
1528:Generated_Source\PSoC5/UART_LOG.c ****             if( (retMode == UART_LOG_WAIT_FOR_COMPLETE_REINIT) ||
ARM GAS  C:\Users\rbhar\AppData\Local\Temp\ccaqTdDy.s 			page 48


1529:Generated_Source\PSoC5/UART_LOG.c ****                 (retMode == UART_LOG_REINIT) ||
 1139              		.loc 1 1529 0
 1140 003a 0138     		subs	r0, r0, #1
 1141              	.LVL74:
 1142 003c C0B2     		uxtb	r0, r0
1528:Generated_Source\PSoC5/UART_LOG.c ****                 (retMode == UART_LOG_REINIT) ||
 1143              		.loc 1 1528 0
 1144 003e 0228     		cmp	r0, #2
 1145 0040 03D8     		bhi	.L107
1530:Generated_Source\PSoC5/UART_LOG.c ****                 (retMode == UART_LOG_SEND_WAIT_REINIT) )
1531:Generated_Source\PSoC5/UART_LOG.c ****             {
1532:Generated_Source\PSoC5/UART_LOG.c **** 
1533:Generated_Source\PSoC5/UART_LOG.c ****             #if(UART_LOG_TXCLKGEN_DP)
1534:Generated_Source\PSoC5/UART_LOG.c ****                 UART_LOG_TXBITCLKTX_COMPLETE_REG = txPeriod;
 1146              		.loc 1 1534 0
 1147 0042 024B     		ldr	r3, .L114
 1148 0044 DA78     		ldrb	r2, [r3, #3]	@ zero_extendqisi2
 1149 0046 024B     		ldr	r3, .L114+4
 1150 0048 1A70     		strb	r2, [r3]
 1151              	.L107:
 1152 004a 7047     		bx	lr
 1153              	.L115:
 1154              		.align	2
 1155              	.L114:
 1156 004c 00000000 		.word	.LANCHOR0
 1157 0050 33640040 		.word	1073767475
 1158 0054 63640040 		.word	1073767523
 1159              	.LBE2:
 1160              		.cfi_endproc
 1161              	.LFE25:
 1162              		.size	UART_LOG_SendBreak, .-UART_LOG_SendBreak
 1163              		.section	.text.UART_LOG_SetTxAddressMode,"ax",%progbits
 1164              		.align	2
 1165              		.global	UART_LOG_SetTxAddressMode
 1166              		.thumb
 1167              		.thumb_func
 1168              		.type	UART_LOG_SetTxAddressMode, %function
 1169              	UART_LOG_SetTxAddressMode:
 1170              	.LFB26:
1535:Generated_Source\PSoC5/UART_LOG.c ****             #else
1536:Generated_Source\PSoC5/UART_LOG.c ****                 UART_LOG_TXBITCTR_PERIOD_REG = txPeriod;
1537:Generated_Source\PSoC5/UART_LOG.c ****             #endif /* End UART_LOG_TXCLKGEN_DP */
1538:Generated_Source\PSoC5/UART_LOG.c **** 
1539:Generated_Source\PSoC5/UART_LOG.c ****             #if( (UART_LOG_PARITY_TYPE != UART_LOG__B_UART__NONE_REVB) || \
1540:Generated_Source\PSoC5/UART_LOG.c ****                  (UART_LOG_PARITY_TYPE_SW != 0u) )
1541:Generated_Source\PSoC5/UART_LOG.c ****                 UART_LOG_WriteControlRegister(UART_LOG_ReadControlRegister() &
1542:Generated_Source\PSoC5/UART_LOG.c ****                                                       (uint8) ~UART_LOG_CTRL_HD_SEND_BREAK);
1543:Generated_Source\PSoC5/UART_LOG.c ****             #endif /* End UART_LOG_PARITY_TYPE != NONE */
1544:Generated_Source\PSoC5/UART_LOG.c ****             }
1545:Generated_Source\PSoC5/UART_LOG.c ****         #endif    /* End UART_LOG_HD_ENABLED */
1546:Generated_Source\PSoC5/UART_LOG.c ****         }
1547:Generated_Source\PSoC5/UART_LOG.c ****     }
1548:Generated_Source\PSoC5/UART_LOG.c **** 
1549:Generated_Source\PSoC5/UART_LOG.c **** 
1550:Generated_Source\PSoC5/UART_LOG.c ****     /*******************************************************************************
1551:Generated_Source\PSoC5/UART_LOG.c ****     * Function Name: UART_LOG_SetTxAddressMode
1552:Generated_Source\PSoC5/UART_LOG.c ****     ********************************************************************************
ARM GAS  C:\Users\rbhar\AppData\Local\Temp\ccaqTdDy.s 			page 49


1553:Generated_Source\PSoC5/UART_LOG.c ****     *
1554:Generated_Source\PSoC5/UART_LOG.c ****     * Summary:
1555:Generated_Source\PSoC5/UART_LOG.c ****     *  Configures the transmitter to signal the next bytes is address or data.
1556:Generated_Source\PSoC5/UART_LOG.c ****     *
1557:Generated_Source\PSoC5/UART_LOG.c ****     * Parameters:
1558:Generated_Source\PSoC5/UART_LOG.c ****     *  addressMode: 
1559:Generated_Source\PSoC5/UART_LOG.c ****     *       UART_LOG_SET_SPACE - Configure the transmitter to send the next
1560:Generated_Source\PSoC5/UART_LOG.c ****     *                                    byte as a data.
1561:Generated_Source\PSoC5/UART_LOG.c ****     *       UART_LOG_SET_MARK  - Configure the transmitter to send the next
1562:Generated_Source\PSoC5/UART_LOG.c ****     *                                    byte as an address.
1563:Generated_Source\PSoC5/UART_LOG.c ****     *
1564:Generated_Source\PSoC5/UART_LOG.c ****     * Return:
1565:Generated_Source\PSoC5/UART_LOG.c ****     *  None.
1566:Generated_Source\PSoC5/UART_LOG.c ****     *
1567:Generated_Source\PSoC5/UART_LOG.c ****     * Side Effects:
1568:Generated_Source\PSoC5/UART_LOG.c ****     *  This function sets and clears UART_LOG_CTRL_MARK bit in the Control
1569:Generated_Source\PSoC5/UART_LOG.c ****     *  register.
1570:Generated_Source\PSoC5/UART_LOG.c ****     *
1571:Generated_Source\PSoC5/UART_LOG.c ****     *******************************************************************************/
1572:Generated_Source\PSoC5/UART_LOG.c ****     void UART_LOG_SetTxAddressMode(uint8 addressMode) 
1573:Generated_Source\PSoC5/UART_LOG.c ****     {
 1171              		.loc 1 1573 0
 1172              		.cfi_startproc
 1173              		@ args = 0, pretend = 0, frame = 0
 1174              		@ frame_needed = 0, uses_anonymous_args = 0
 1175              		@ link register save eliminated.
 1176              	.LVL75:
 1177 0000 7047     		bx	lr
 1178              		.cfi_endproc
 1179              	.LFE26:
 1180              		.size	UART_LOG_SetTxAddressMode, .-UART_LOG_SetTxAddressMode
 1181              		.global	UART_LOG_txBufferWrite
 1182              		.global	UART_LOG_txBufferRead
 1183              		.comm	UART_LOG_txBuffer,16,4
 1184              		.global	UART_LOG_initVar
 1185 0002 00BF     		.bss
 1186              		.set	.LANCHOR0,. + 0
 1187              		.type	UART_LOG_initVar, %object
 1188              		.size	UART_LOG_initVar, 1
 1189              	UART_LOG_initVar:
 1190 0000 00       		.space	1
 1191              		.type	UART_LOG_txBufferRead, %object
 1192              		.size	UART_LOG_txBufferRead, 1
 1193              	UART_LOG_txBufferRead:
 1194 0001 00       		.space	1
 1195              		.type	UART_LOG_txBufferWrite, %object
 1196              		.size	UART_LOG_txBufferWrite, 1
 1197              	UART_LOG_txBufferWrite:
 1198 0002 00       		.space	1
 1199              		.type	txPeriod.5131, %object
 1200              		.size	txPeriod.5131, 1
 1201              	txPeriod.5131:
 1202 0003 00       		.space	1
 1203              		.text
 1204              	.Letext0:
 1205              		.file 2 "Generated_Source\\PSoC5\\cytypes.h"
 1206              		.file 3 "Generated_Source\\PSoC5\\CyLib.h"
ARM GAS  C:\Users\rbhar\AppData\Local\Temp\ccaqTdDy.s 			page 50


 1207              		.file 4 "Generated_Source\\PSoC5\\UART_LOG_IntClock.h"